
SchuylerBoardTest.elf:     file format elf32-avr

Sections:
Idx Name          Size      VMA       LMA       File off  Algn
  0 .data         0000118c  00800200  00008664  000086f8  2**0
                  CONTENTS, ALLOC, LOAD, DATA
  1 .text         00008664  00000000  00000000  00000094  2**1
                  CONTENTS, ALLOC, LOAD, READONLY, CODE
  2 .bss          000002ed  0080138c  0080138c  00009884  2**0
                  ALLOC
  3 .comment      0000005c  00000000  00000000  00009884  2**0
                  CONTENTS, READONLY
  4 .note.gnu.avr.deviceinfo 00000040  00000000  00000000  000098e0  2**2
                  CONTENTS, READONLY
  5 .debug_aranges 000008b8  00000000  00000000  00009920  2**0
                  CONTENTS, READONLY, DEBUGGING
  6 .debug_info   0000cb74  00000000  00000000  0000a1d8  2**0
                  CONTENTS, READONLY, DEBUGGING
  7 .debug_abbrev 00002e8a  00000000  00000000  00016d4c  2**0
                  CONTENTS, READONLY, DEBUGGING
  8 .debug_line   00006308  00000000  00000000  00019bd6  2**0
                  CONTENTS, READONLY, DEBUGGING
  9 .debug_frame  000023d0  00000000  00000000  0001fee0  2**2
                  CONTENTS, READONLY, DEBUGGING
 10 .debug_str    000023fa  00000000  00000000  000222b0  2**0
                  CONTENTS, READONLY, DEBUGGING
 11 .debug_loc    0000aa7f  00000000  00000000  000246aa  2**0
                  CONTENTS, READONLY, DEBUGGING
 12 .debug_ranges 00000788  00000000  00000000  0002f129  2**0
                  CONTENTS, READONLY, DEBUGGING

Disassembly of section .text:

00000000 <__vectors>:
       0:	0c 94 47 0b 	jmp	0x168e	; 0x168e <__ctors_end>
       4:	0c 94 68 0b 	jmp	0x16d0	; 0x16d0 <__bad_interrupt>
       8:	0c 94 68 0b 	jmp	0x16d0	; 0x16d0 <__bad_interrupt>
       c:	0c 94 68 0b 	jmp	0x16d0	; 0x16d0 <__bad_interrupt>
      10:	0c 94 68 0b 	jmp	0x16d0	; 0x16d0 <__bad_interrupt>
      14:	0c 94 68 0b 	jmp	0x16d0	; 0x16d0 <__bad_interrupt>
      18:	0c 94 68 0b 	jmp	0x16d0	; 0x16d0 <__bad_interrupt>
      1c:	0c 94 68 0b 	jmp	0x16d0	; 0x16d0 <__bad_interrupt>
      20:	0c 94 2b 13 	jmp	0x2656	; 0x2656 <__vector_8>
      24:	0c 94 68 0b 	jmp	0x16d0	; 0x16d0 <__bad_interrupt>
      28:	0c 94 68 0b 	jmp	0x16d0	; 0x16d0 <__bad_interrupt>
      2c:	0c 94 68 0b 	jmp	0x16d0	; 0x16d0 <__bad_interrupt>
      30:	0c 94 68 0b 	jmp	0x16d0	; 0x16d0 <__bad_interrupt>
      34:	0c 94 35 13 	jmp	0x266a	; 0x266a <__vector_13>
      38:	0c 94 68 0b 	jmp	0x16d0	; 0x16d0 <__bad_interrupt>
      3c:	0c 94 68 0b 	jmp	0x16d0	; 0x16d0 <__bad_interrupt>
      40:	0c 94 68 0b 	jmp	0x16d0	; 0x16d0 <__bad_interrupt>
      44:	0c 94 68 0b 	jmp	0x16d0	; 0x16d0 <__bad_interrupt>
      48:	0c 94 68 0b 	jmp	0x16d0	; 0x16d0 <__bad_interrupt>
      4c:	0c 94 68 0b 	jmp	0x16d0	; 0x16d0 <__bad_interrupt>
      50:	0c 94 68 0b 	jmp	0x16d0	; 0x16d0 <__bad_interrupt>
      54:	0c 94 68 0b 	jmp	0x16d0	; 0x16d0 <__bad_interrupt>
      58:	0c 94 68 0b 	jmp	0x16d0	; 0x16d0 <__bad_interrupt>
      5c:	0c 94 68 0b 	jmp	0x16d0	; 0x16d0 <__bad_interrupt>
      60:	0c 94 68 0b 	jmp	0x16d0	; 0x16d0 <__bad_interrupt>
      64:	0c 94 bb 39 	jmp	0x7376	; 0x7376 <__vector_25>
      68:	0c 94 68 0b 	jmp	0x16d0	; 0x16d0 <__bad_interrupt>
      6c:	0c 94 68 0b 	jmp	0x16d0	; 0x16d0 <__bad_interrupt>
      70:	0c 94 68 0b 	jmp	0x16d0	; 0x16d0 <__bad_interrupt>
      74:	0c 94 ca 14 	jmp	0x2994	; 0x2994 <__vector_29>
      78:	0c 94 68 0b 	jmp	0x16d0	; 0x16d0 <__bad_interrupt>
      7c:	0c 94 68 0b 	jmp	0x16d0	; 0x16d0 <__bad_interrupt>
      80:	0c 94 68 0b 	jmp	0x16d0	; 0x16d0 <__bad_interrupt>
      84:	0c 94 68 0b 	jmp	0x16d0	; 0x16d0 <__bad_interrupt>
      88:	0c 94 68 0b 	jmp	0x16d0	; 0x16d0 <__bad_interrupt>
      8c:	0c 94 68 0b 	jmp	0x16d0	; 0x16d0 <__bad_interrupt>
      90:	0c 94 9a 3a 	jmp	0x7534	; 0x7534 <__vector_36>
      94:	0c 94 68 0b 	jmp	0x16d0	; 0x16d0 <__bad_interrupt>
      98:	0c 94 68 0b 	jmp	0x16d0	; 0x16d0 <__bad_interrupt>
      9c:	0c 94 68 0b 	jmp	0x16d0	; 0x16d0 <__bad_interrupt>
      a0:	0c 94 68 0b 	jmp	0x16d0	; 0x16d0 <__bad_interrupt>
      a4:	0c 94 68 0b 	jmp	0x16d0	; 0x16d0 <__bad_interrupt>
      a8:	0c 94 68 0b 	jmp	0x16d0	; 0x16d0 <__bad_interrupt>
      ac:	0c 94 68 0b 	jmp	0x16d0	; 0x16d0 <__bad_interrupt>
      b0:	0c 94 68 0b 	jmp	0x16d0	; 0x16d0 <__bad_interrupt>
      b4:	0c 94 68 0b 	jmp	0x16d0	; 0x16d0 <__bad_interrupt>
      b8:	0c 94 68 0b 	jmp	0x16d0	; 0x16d0 <__bad_interrupt>
      bc:	0c 94 68 0b 	jmp	0x16d0	; 0x16d0 <__bad_interrupt>
      c0:	0c 94 68 0b 	jmp	0x16d0	; 0x16d0 <__bad_interrupt>
      c4:	0c 94 68 0b 	jmp	0x16d0	; 0x16d0 <__bad_interrupt>
      c8:	0c 94 68 0b 	jmp	0x16d0	; 0x16d0 <__bad_interrupt>
      cc:	0c 94 68 0b 	jmp	0x16d0	; 0x16d0 <__bad_interrupt>
      d0:	0c 94 68 0b 	jmp	0x16d0	; 0x16d0 <__bad_interrupt>
      d4:	0c 94 68 0b 	jmp	0x16d0	; 0x16d0 <__bad_interrupt>
      d8:	0c 94 68 0b 	jmp	0x16d0	; 0x16d0 <__bad_interrupt>
      dc:	0c 94 68 0b 	jmp	0x16d0	; 0x16d0 <__bad_interrupt>
      e0:	0c 94 68 0b 	jmp	0x16d0	; 0x16d0 <__bad_interrupt>

000000e4 <__trampolines_end>:
      e4:	6e 61       	ori	r22, 0x1E	; 30
      e6:	6e 00       	.word	0x006e	; ????

000000e8 <__c.2332>:
      e8:	69 6e 66 00 00 40 7a 10 f3 5a 00 a0 72 4e 18 09     inf..@z..Z..rN..
      f8:	00 10 a5 d4 e8 00 00 e8 76 48 17 00 00 e4 0b 54     ........vH.....T
     108:	02 00 00 ca 9a 3b 00 00 00 e1 f5 05 00 00 80 96     .....;..........
     118:	98 00 00 00 40 42 0f 00 00 00 a0 86 01 00 00 00     ....@B..........
     128:	10 27 00 00 00 00 e8 03 00 00 00 00 64 00 00 00     .'..........d...
     138:	00 00 0a 00 00 00 00 00 01 00 00 00 00 00 2c 76     ..............,v
     148:	d8 88 dc 67 4f 08 23 df c1 df ae 59 e1 b1 b7 96     ...gO.#....Y....
     158:	e5 e3 e4 53 c6 3a e6 51 99 76 96 e8 e6 c2 84 26     ...S.:.Q.v.....&
     168:	eb 89 8c 9b 62 ed 40 7c 6f fc ef bc 9c 9f 40 f2     ....b.@|o.....@.
     178:	ba a5 6f a5 f4 90 05 5a 2a f7 5c 93 6b 6c f9 67     ..o....Z*.\.kl.g
     188:	6d c1 1b fc e0 e4 0d 47 fe f5 20 e6 b5 00 d0 ed     m......G.. .....
     198:	90 2e 03 00 94 35 77 05 00 80 84 1e 08 00 00 20     .....5w........ 
     1a8:	4e 0a 00 00 00 c8 0c 33 33 33 33 0f 98 6e 12 83     N......3333..n..
     1b8:	11 41 ef 8d 21 14 89 3b e6 55 16 cf fe e6 db 18     .A..!..;.U......
     1c8:	d1 84 4b 38 1b f7 7c 1d 90 1d a4 bb e4 24 20 32     ..K8..|......$ 2
     1d8:	84 72 5e 22 81 00 c9 f1 24 ec a1 e5 3d 27           .r^"....$...='

000001e6 <__c.2514>:
     1e6:	46 4c 41 53 48 20 77 72 69 74 65 20 66 61 69 6c     FLASH write fail
     1f6:	65 64 0a 00                                         ed..

000001fa <__c.2530>:
     1fa:	46 4c 41 53 48 20 72 65 61 64 20 66 61 69 6c 65     FLASH read faile
     20a:	64 0a 00                                            d..

0000020d <__c.2046>:
     20d:	75 6e 6b 6e 6f 77 6e 20 41 44 43 32 35 31 38 20     unknown ADC2518 
     21d:	6f 73 63 69 6c 61 74 6f 72 53 70 65 65 64 0a 00     oscilatorSpeed..

0000022d <__c.2037>:
     22d:	4f 53 52 3a 20 6c 6f 67 32 73 61 6d 70 6c 65 73     OSR: log2samples
     23d:	20 3e 20 37 00                                       > 7.

00000242 <__c.2082>:
     242:	0a 00                                               ..

00000244 <__c.2077>:
     244:	25 64 20 00                                         %d .

00000248 <__c.2071>:
     248:	45 52 52 4f 52 3a 20 4e 6f 20 41 44 43 20 43 68     ERROR: No ADC Ch
     258:	61 6e 6e 65 6c 73 20 61 63 74 69 76 65 0a 00        annels active..

00000267 <__c.2042>:
     267:	0a 53 74 61 6c 65 20 50 72 65 73 73 75 72 65 20     .Stale Pressure 
     277:	49 6e 74 65 72 6e 61 6c 20 46 61 75 6c 74 20 25     Internal Fault %
     287:	64 0a 00                                            d..

0000028a <__c.2040>:
     28a:	0a 53 74 61 6c 65 20 50 72 65 73 73 75 72 65 20     .Stale Pressure 
     29a:	52 65 61 64 69 6e 67 20 25 64 0a 00                 Reading %d..

000002a6 <__c.2038>:
     2a6:	0a 53 65 6e 73 6f 72 20 25 64 20 69 6e 20 50 72     .Sensor %d in Pr
     2b6:	6f 67 72 61 6d 6d 69 6e 67 20 4d 6f 64 65 0a 00     ogramming Mode..

000002c6 <__c.2551>:
     2c6:	57 72 69 74 69 6e 67 20 74 6f 20 30 78 25 30 38     Writing to 0x%08
     2d6:	6c 78 3a 20 25 73 0a 00                             lx: %s..

000002de <__c.2553>:
     2de:	73 70 69 5f 46 6c 61 73 68 57 72 69 74 65 3a 20     spi_FlashWrite: 
     2ee:	32 6e 64 20 70 61 67 65 20 77 72 69 74 65 20 66     2nd page write f
     2fe:	61 69 6c 65 64 0a 00                                ailed..

00000305 <__c.2555>:
     305:	73 70 69 5f 46 6c 61 73 68 57 72 69 74 65 3a 20     spi_FlashWrite: 
     315:	32 6e 64 20 70 61 67 65 20 61 64 64 72 65 73 73     2nd page address
     325:	20 6d 61 70 70 69 6e 67 20 66 61 69 6c 65 64 0a      mapping failed.
	...

00000336 <__c.2557>:
     336:	73 70 69 5f 46 6c 61 73 68 57 72 69 74 65 3a 20     spi_FlashWrite: 
     346:	31 73 74 20 70 61 67 65 20 77 72 69 74 65 20 66     1st page write f
     356:	61 69 6c 65 64 0a 00                                ailed..

0000035d <__c.2600>:
     35d:	73 70 69 5f 46 6c 61 73 68 52 65 61 64 3a 20 32     spi_FlashRead: 2
     36d:	6e 64 20 70 61 67 65 20 72 65 61 64 20 66 61 69     nd page read fai
     37d:	6c 65 64 0a 00                                      led..

00000382 <__c.2602>:
     382:	73 70 69 5f 46 6c 61 73 68 52 65 61 64 3a 20 31     spi_FlashRead: 1
     392:	73 74 20 70 61 67 65 20 72 65 61 64 20 66 61 69     st page read fai
     3a2:	6c 65 64 0a 00                                      led..

000003a7 <__c.2609>:
     3a7:	73 70 69 5f 46 6c 61 73 68 45 72 61 73 65 42 6c     spi_FlashEraseBl
     3b7:	6f 63 6b 3a 20 57 72 69 74 65 20 64 69 61 73 62     ock: Write diasb
     3c7:	6c 65 20 66 61 69 6c 65 64 0a 00                    le failed..

000003d2 <__c.2611>:
     3d2:	73 70 69 5f 46 6c 61 73 68 45 72 61 73 65 42 6c     spi_FlashEraseBl
     3e2:	6f 63 6b 3a 20 46 6c 61 73 68 20 6e 65 76 65 72     ock: Flash never
     3f2:	20 72 65 61 64 79 20 61 66 74 65 72 20 62 6c 6f      ready after blo
     402:	63 6b 20 65 72 61 73 65 0a 00                       ck erase..

0000040c <__c.2613>:
     40c:	73 70 69 5f 46 6c 61 73 68 45 72 61 73 65 42 6c     spi_FlashEraseBl
     41c:	6f 63 6b 3a 20 46 6c 61 73 68 20 77 6f 6e 27 74     ock: Flash won't
     42c:	20 65 6e 61 62 6c 65 20 77 72 69 74 65 0a 00         enable write..

0000043b <__c.2615>:
     43b:	73 70 69 5f 46 6c 61 73 68 45 72 61 73 65 42 6c     spi_FlashEraseBl
     44b:	6f 63 6b 3a 20 46 6c 61 73 68 20 6e 65 76 65 72     ock: Flash never
     45b:	20 72 65 61 64 79 0a 00                              ready..

00000463 <__c.2617>:
     463:	73 70 69 5f 46 6c 61 73 68 45 72 61 73 65 42 6c     spi_FlashEraseBl
     473:	6f 63 6b 3a 20 41 64 64 72 65 73 73 20 65 78 63     ock: Address exc
     483:	65 65 64 73 20 61 76 61 69 6c 61 62 6c 65 20 62     eeds available b
     493:	6c 6f 63 6b 73 0a 00                                locks..

0000049a <__c.2625>:
     49a:	45 72 61 73 69 6e 67 20 62 6c 6f 63 6b 20 25 64     Erasing block %d
     4aa:	0a 00                                               ..

000004ac <__c.2627>:
     4ac:	73 70 69 5f 46 6c 61 73 68 45 72 61 73 65 41 6c     spi_FlashEraseAl
     4bc:	6c 42 6c 6f 63 6b 73 3a 20 45 72 61 73 65 20 66     lBlocks: Erase f
     4cc:	61 69 6c 75 72 65 20 61 74 20 62 6c 6f 63 6b 20     ailure at block 
     4dc:	25 64 0a 00                                         %d..

000004e0 <majorGeneral>:
     4e0:	49 20 61 6d 20 74 68 65 20 76 65 72 79 20 6d 6f     I am the very mo
     4f0:	64 65 6c 20 6f 66 20 61 20 6d 6f 64 65 72 6e 20     del of a modern 
     500:	4d 61 6a 6f 72 2d 47 65 6e 65 72 61 6c 0a 00 00     Major-General...
	...
     51c:	00 00 49 27 76 65 20 69 6e 66 6f 72 6d 61 74 69     ..I've informati
     52c:	6f 6e 20 76 65 67 65 74 61 62 6c 65 2c 20 61 6e     on vegetable, an
     53c:	69 6d 61 6c 2c 20 61 6e 64 20 6d 69 6e 65 72 61     imal, and minera
     54c:	6c 0a 00 00 00 00 00 00 00 00 00 00 00 00 00 00     l...............
     55c:	49 20 6b 6e 6f 77 20 74 68 65 20 6b 69 6e 67 73     I know the kings
     56c:	20 6f 66 20 45 6e 67 6c 61 6e 64 2c 20 61 6e 64      of England, and
     57c:	20 49 20 71 75 6f 74 65 20 74 68 65 20 66 69 67      I quote the fig
     58c:	68 74 73 0a 00 00 00 00 00 00 00 00 00 00 48 69     hts...........Hi
     59c:	73 74 6f 72 69 63 61 6c 0a 00 00 00 00 00 00 00     storical........
	...
     5d8:	46 72 6f 6d 20 4d 61 72 61 74 68 6f 6e 20 74 6f     From Marathon to
     5e8:	20 57 61 74 65 72 6c 6f 6f 2c 20 69 6e 20 6f 72      Waterloo, in or
     5f8:	64 65 72 20 63 61 74 65 67 6f 72 69 63 61 6c 0a     der categorical.
	...
     614:	00 00 49 27 6d 20 76 65 72 79 20 77 65 6c 6c 20     ..I'm very well 
     624:	61 63 71 75 61 69 6e 74 65 64 2c 20 74 6f 6f 2c     acquainted, too,
     634:	20 77 69 74 68 20 6d 61 74 74 65 72 73 0a 00 00      with matters...
	...
     654:	4d 61 74 68 65 6d 61 74 69 63 61 6c 0a 00 00 00     Mathematical....
	...
     690:	00 00 49 20 75 6e 64 65 72 73 74 61 6e 64 20 65     ..I understand e
     6a0:	71 75 61 74 69 6f 6e 73 2c 20 62 6f 74 68 20 74     quations, both t
     6b0:	68 65 20 73 69 6d 70 6c 65 20 61 6e 64 20 71 75     he simple and qu
     6c0:	61 64 72 61 74 69 63 61 6c 0a 00 00 00 00 00 00     adratical.......
     6d0:	41 62 6f 75 74 20 62 69 6e 6f 6d 69 61 6c 20 74     About binomial t
     6e0:	68 65 6f 72 65 6d 20 49 27 6d 20 74 65 65 6d 69     heorem I'm teemi
     6f0:	6e 67 20 77 69 74 68 20 61 20 6c 6f 74 20 6f 27     ng with a lot o'
     700:	20 6e 65 77 73 0a 00 00 00 00 00 00 00 00 57 69      news.........Wi
     710:	74 68 20 6d 61 6e 79 20 63 68 65 65 72 66 75 6c     th many cheerful
     720:	20 66 61 63 74 73 20 61 62 6f 75 74 20 74 68 65      facts about the
     730:	20 73 71 75 61 72 65 20 6f 66 20 74 68 65 0a 00      square of the..
	...
     74c:	48 79 70 6f 74 65 6e 75 73 65 0a 00 00 00 00 00     Hypotenuse......
	...
     788:	00 00 57 69 74 68 20 6d 61 6e 79 20 63 68 65 65     ..With many chee
     798:	72 66 75 6c 20 66 61 63 74 73 20 61 62 6f 75 74     rful facts about
     7a8:	20 74 68 65 20 73 71 75 61 72 65 20 6f 66 20 74      the square of t
     7b8:	68 65 0a 00 00 00 00 00 00 00 00 00 00 00 00 00     he..............
     7c8:	48 79 70 6f 74 65 6e 75 73 65 0a 00 00 00 00 00     Hypotenuse......
	...
     804:	00 00 57 69 74 68 20 6d 61 6e 79 20 63 68 65 65     ..With many chee
     814:	72 66 75 6c 20 66 61 63 74 73 20 61 62 6f 75 74     rful facts about
     824:	20 74 68 65 20 73 71 75 61 72 65 20 6f 66 20 74      the square of t
     834:	68 65 0a 00 00 00 00 00 00 00 00 00 00 00 00 00     he..............
     844:	48 79 70 6f 74 65 6e 75 73 65 0a 00 00 00 00 00     Hypotenuse......
	...
     880:	00 00 57 69 74 68 20 6d 61 6e 79 20 63 68 65 65     ..With many chee
     890:	72 66 75 6c 20 66 61 63 74 73 20 61 62 6f 75 74     rful facts about
     8a0:	20 74 68 65 20 73 71 75 61 72 65 20 6f 66 20 74      the square of t
     8b0:	68 65 0a 00 00 00 00 00 00 00 00 00 00 00 00 00     he..............
     8c0:	48 79 70 6f 74 65 70 6f 74 65 6e 75 73 65 0a 00     Hypotepotenuse..
	...
     8fc:	00 00 49 27 6d 20 76 65 72 79 20 67 6f 6f 64 20     ..I'm very good 
     90c:	61 74 20 69 6e 74 65 67 72 61 6c 20 61 6e 64 20     at integral and 
     91c:	64 69 66 66 65 72 65 6e 74 69 61 6c 20 63 61 6c     differential cal
     92c:	63 75 6c 75 73 0a 00 00 00 00 00 00 00 00 00 00     culus...........
     93c:	49 20 6b 6e 6f 77 20 74 68 65 20 73 63 69 65 6e     I know the scien
     94c:	74 69 66 69 63 20 6e 61 6d 65 73 20 6f 66 20 62     tific names of b
     95c:	65 69 6e 67 73 20 61 6e 69 6d 61 6c 63 75 6c 6f     eings animalculo
     96c:	75 73 0a 00 00 00 00 00 00 00 00 00 00 00 49 6e     us............In
     97c:	20 73 68 6f 72 74 2c 20 69 6e 20 6d 61 74 74 65      short, in matte
     98c:	72 73 20 76 65 67 65 74 61 62 6c 65 2c 20 61 6e     rs vegetable, an
     99c:	69 6d 61 6c 2c 20 61 6e 64 20 6d 69 6e 65 72 61     imal, and minera
     9ac:	6c 0a 00 00 00 00 00 00 00 00 00 00 49 20 61 6d     l...........I am
     9bc:	20 74 68 65 20 76 65 72 79 20 6d 6f 64 65 6c 20      the very model 
     9cc:	6f 66 20 61 20 6d 6f 64 65 72 6e 20 4d 61 6a 6f     of a modern Majo
     9dc:	72 2d 47 65 6e 65 72 61 6c 0a 00 00 00 00 00 00     r-General.......
	...
     9f4:	00 00 49 6e 20 73 68 6f 72 74 2c 20 69 6e 20 6d     ..In short, in m
     a04:	61 74 74 65 72 73 20 76 65 67 65 74 61 62 6c 65     atters vegetable
     a14:	2c 20 61 6e 69 6d 61 6c 2c 20 61 6e 64 20 6d 69     , animal, and mi
     a24:	6e 65 72 61 6c 0a 00 00 00 00 00 00 00 00 00 00     neral...........
     a34:	48 65 20 69 73 20 74 68 65 20 76 65 72 79 20 6d     He is the very m
     a44:	6f 64 65 6c 20 6f 66 20 61 20 6d 6f 64 65 72 6e     odel of a modern
     a54:	20 4d 61 6a 6f 72 2d 47 65 6e 65 72 61 6c 0a 00      Major-General..
	...
     a70:	00 00 49 20 6b 6e 6f 77 20 6f 75 72 20 6d 79 74     ..I know our myt
     a80:	68 69 63 20 68 69 73 74 6f 72 79 2c 20 4b 69 6e     hic history, Kin
     a90:	67 20 41 72 74 68 75 72 27 73 20 61 6e 64 20 53     g Arthur's and S
     aa0:	69 72 0a 00 00 00 00 00 00 00 00 00 00 00 00 00     ir..............
     ab0:	43 61 72 61 64 6f 63 27 73 0a 00 00 00 00 00 00     Caradoc's.......
	...
     aec:	00 00 49 20 61 6e 73 77 65 72 20 68 61 72 64 20     ..I answer hard 
     afc:	61 63 72 6f 73 74 69 63 73 2c 20 49 27 76 65 20     acrostics, I've 
     b0c:	61 20 70 72 65 74 74 79 20 74 61 73 74 65 20 66     a pretty taste f
     b1c:	6f 72 0a 00 00 00 00 00 00 00 00 00 00 00 00 00     or..............
     b2c:	50 61 72 61 64 6f 78 0a 00 00 00 00 00 00 00 00     Paradox.........
	...
     b68:	00 00 49 20 71 75 6f 74 65 20 69 6e 20 65 6c 65     ..I quote in ele
     b78:	67 69 61 63 73 20 61 6c 6c 20 74 68 65 20 63 72     giacs all the cr
     b88:	69 6d 65 73 20 6f 66 20 48 65 6c 69 6f 67 61 62     imes of Heliogab
     b98:	61 6c 75 73 0a 00 00 00 00 00 00 00 00 00 00 00     alus............
     ba8:	49 6e 20 63 6f 6e 69 63 73 20 49 20 63 61 6e 20     In conics I can 
     bb8:	66 6c 6f 6f 72 20 70 65 63 75 6c 69 61 72 69 74     floor peculiarit
     bc8:	69 65 73 20 70 61 72 61 62 6f 6c 6f 75 73 0a 00     ies parabolous..
	...
     be4:	00 00 49 20 63 61 6e 20 74 65 6c 6c 20 75 6e 64     ..I can tell und
     bf4:	6f 75 62 74 65 64 20 52 61 70 68 61 65 6c 73 20     oubted Raphaels 
     c04:	66 72 6f 6d 20 47 65 72 61 72 64 20 44 6f 77 73     from Gerard Dows
     c14:	20 61 6e 64 0a 00 00 00 00 00 00 00 00 00 00 00      and............
     c24:	5a 6f 66 66 61 6e 69 65 73 0a 00 00 00 00 00 00     Zoffanies.......
	...
     c60:	00 00 49 20 6b 6e 6f 77 20 74 68 65 20 63 72 6f     ..I know the cro
     c70:	61 6b 69 6e 67 20 63 68 6f 72 75 73 20 66 72 6f     aking chorus fro
     c80:	6d 20 74 68 65 20 46 72 6f 67 73 20 6f 66 0a 00     m the Frogs of..
	...
     ca0:	41 72 69 73 74 6f 70 68 61 6e 65 73 0a 00 00 00     Aristophanes....
	...
     cdc:	00 00 54 68 65 6e 20 49 20 63 61 6e 20 68 75 6d     ..Then I can hum
     cec:	20 61 20 66 75 67 75 65 20 6f 66 20 77 68 69 63      a fugue of whic
     cfc:	68 20 49 27 76 65 20 68 65 61 72 64 20 74 68 65     h I've heard the
     d0c:	20 6d 75 73 69 63 27 73 0a 00 00 00 00 00 00 00      music's........
     d1c:	44 69 6e 20 61 66 6f 72 65 0a 00 00 00 00 00 00     Din afore.......
	...
     d58:	00 00 41 6e 64 20 77 68 69 73 74 6c 65 20 61 6c     ..And whistle al
     d68:	6c 20 74 68 65 20 61 69 72 73 20 66 72 6f 6d 20     l the airs from 
     d78:	74 68 61 74 20 69 6e 66 65 72 6e 61 6c 20 6e 6f     that infernal no
     d88:	6e 73 65 6e 73 65 0a 00 00 00 00 00 00 00 00 00     nsense..........
     d98:	50 69 6e 61 66 6f 72 65 0a 00 00 00 00 00 00 00     Pinafore........
	...
     dd4:	00 00 41 6e 64 20 77 68 69 73 74 6c 65 20 61 6c     ..And whistle al
     de4:	6c 20 74 68 65 20 61 69 72 73 20 66 72 6f 6d 20     l the airs from 
     df4:	74 68 61 74 20 69 6e 66 65 72 6e 61 6c 20 6e 6f     that infernal no
     e04:	6e 73 65 6e 73 65 0a 00 00 00 00 00 00 00 00 00     nsense..........
     e14:	50 69 6e 61 66 6f 72 65 0a 00 00 00 00 00 00 00     Pinafore........
	...
     e50:	00 00 41 6e 64 20 77 68 69 73 74 6c 65 20 61 6c     ..And whistle al
     e60:	6c 20 74 68 65 20 61 69 72 73 20 66 72 6f 6d 20     l the airs from 
     e70:	74 68 61 74 20 69 6e 66 65 72 6e 61 6c 20 6e 6f     that infernal no
     e80:	6e 73 65 6e 73 65 0a 00 00 00 00 00 00 00 00 00     nsense..........
     e90:	50 69 6e 61 66 6f 72 65 0a 00 00 00 00 00 00 00     Pinafore........
	...
     ecc:	00 00 41 6e 64 20 77 68 69 73 74 6c 65 20 61 6c     ..And whistle al
     edc:	6c 20 74 68 65 20 61 69 72 73 20 66 72 6f 6d 20     l the airs from 
     eec:	74 68 61 74 20 69 6e 66 65 72 6e 61 6c 20 6e 6f     that infernal no
     efc:	6e 73 65 6e 73 65 0a 00 00 00 00 00 00 00 00 00     nsense..........
     f0c:	50 69 6e 61 70 69 6e 61 66 6f 72 65 0a 00 00 00     Pinapinafore....
	...
     f48:	00 00 54 68 65 6e 20 49 20 63 61 6e 20 77 72 69     ..Then I can wri
     f58:	74 65 20 61 20 77 61 73 68 69 6e 67 20 62 69 6c     te a washing bil
     f68:	6c 20 69 6e 20 42 61 62 79 6c 6f 6e 69 63 20 63     l in Babylonic c
     f78:	75 6e 65 69 66 6f 72 6d 0a 00 00 00 00 00 00 00     uneiform........
     f88:	41 6e 64 20 74 65 6c 6c 20 79 6f 75 20 65 76 27     And tell you ev'
     f98:	72 79 20 64 65 74 61 69 6c 20 6f 66 20 43 61 72     ry detail of Car
     fa8:	61 63 74 61 63 75 73 27 73 20 75 6e 69 66 6f 72     actacus's unifor
     fb8:	6d 0a 00 00 00 00 00 00 00 00 00 00 00 00 49 6e     m.............In
     fc8:	20 73 68 6f 72 74 2c 20 69 6e 20 6d 61 74 74 65      short, in matte
     fd8:	72 73 20 76 65 67 65 74 61 62 6c 65 2c 20 61 6e     rs vegetable, an
     fe8:	69 6d 61 6c 2c 20 61 6e 64 20 6d 69 6e 65 72 61     imal, and minera
     ff8:	6c 0a 00 00 00 00 00 00 00 00 00 00 49 20 61 6d     l...........I am
    1008:	20 74 68 65 20 76 65 72 79 20 6d 6f 64 65 6c 20      the very model 
    1018:	6f 66 20 61 20 6d 6f 64 65 72 6e 20 4d 61 6a 6f     of a modern Majo
    1028:	72 2d 47 65 6e 65 72 61 6c 0a 00 00 00 00 00 00     r-General.......
	...
    1040:	00 00 49 6e 20 73 68 6f 72 74 2c 20 69 6e 20 6d     ..In short, in m
    1050:	61 74 74 65 72 73 20 76 65 67 65 74 61 62 6c 65     atters vegetable
    1060:	2c 20 61 6e 69 6d 61 6c 2c 20 61 6e 64 20 6d 69     , animal, and mi
    1070:	6e 65 72 61 6c 0a 00 00 00 00 00 00 00 00 00 00     neral...........
    1080:	48 65 20 69 73 20 74 68 65 20 76 65 72 79 20 6d     He is the very m
    1090:	6f 64 65 6c 20 6f 66 20 61 20 6d 6f 64 65 72 6e     odel of a modern
    10a0:	20 4d 61 6a 6f 72 2d 47 65 6e 65 72 61 6c 0a 00      Major-General..
	...
    10bc:	00 00 49 6e 20 66 61 63 74 2c 20 77 68 65 6e 20     ..In fact, when 
    10cc:	49 20 6b 6e 6f 77 20 77 68 61 74 20 69 73 20 6d     I know what is m
    10dc:	65 61 6e 74 20 62 79 20 27 6d 61 6d 65 6c 6f 6e     eant by 'mamelon
    10ec:	27 20 61 6e 64 0a 00 00 00 00 00 00 00 00 00 00     ' and...........
    10fc:	27 52 61 76 65 6c 69 6e 27 0a 00 00 00 00 00 00     'Ravelin'.......
	...
    1138:	00 00 57 68 65 6e 20 49 20 63 61 6e 20 74 65 6c     ..When I can tel
    1148:	6c 20 61 74 20 73 69 67 68 74 20 61 20 4d 61 75     l at sight a Mau
    1158:	73 65 72 20 72 69 66 6c 65 20 66 72 6f 6d 20 61     ser rifle from a
    1168:	20 6a 61 76 65 6c 69 6e 0a 00 00 00 00 00 00 00      javelin........
    1178:	57 68 65 6e 20 73 75 63 68 20 61 66 66 61 69 72     When such affair
    1188:	73 20 61 73 20 73 6f 72 74 69 65 73 20 61 6e 64     s as sorties and
    1198:	20 73 75 72 70 72 69 73 65 73 20 49 27 6d 20 6d      surprises I'm m
    11a8:	6f 72 65 0a 00 00 00 00 00 00 00 00 00 00 57 61     ore...........Wa
    11b8:	72 79 20 61 74 0a 00 00 00 00 00 00 00 00 00 00     ry at...........
	...
    11f4:	41 6e 64 20 77 68 65 6e 20 49 20 6b 6e 6f 77 20     And when I know 
    1204:	70 72 65 63 69 73 65 6c 79 20 77 68 61 74 20 69     precisely what i
    1214:	73 20 6d 65 61 6e 74 20 62 79 0a 00 00 00 00 00     s meant by......
	...
    1230:	00 00 27 43 6f 6d 6d 69 73 73 61 72 69 61 74 27     ..'Commissariat'
    1240:	0a 00 00 00 00 00 00 00 00 00 00 00 00 00 00 00     ................
	...
    1270:	57 68 65 6e 20 49 20 68 61 76 65 20 6c 65 61 72     When I have lear
    1280:	6e 74 20 77 68 61 74 20 70 72 6f 67 72 65 73 73     nt what progress
    1290:	20 68 61 73 20 62 65 65 6e 20 6d 61 64 65 20 69      has been made i
    12a0:	6e 0a 00 00 00 00 00 00 00 00 00 00 00 00 4d 6f     n.............Mo
    12b0:	64 65 72 6e 20 67 75 6e 6e 65 72 79 0a 00 00 00     dern gunnery....
	...
    12ec:	57 68 65 6e 20 49 20 6b 6e 6f 77 20 6d 6f 72 65     When I know more
    12fc:	20 6f 66 20 74 61 63 74 69 63 73 20 74 68 61 6e      of tactics than
    130c:	20 61 20 6e 6f 76 69 63 65 20 69 6e 20 61 20 6e      a novice in a n
    131c:	75 6e 6e 65 72 79 0a 00 00 00 00 00 00 00 49 6e     unnery........In
    132c:	20 73 68 6f 72 74 2c 20 77 68 65 6e 20 49 27 76      short, when I'v
    133c:	65 20 61 20 73 6d 61 74 74 65 72 69 6e 67 20 6f     e a smattering o
    134c:	66 20 65 6c 65 6d 65 6e 74 61 6c 20 73 74 72 61     f elemental stra
    135c:	74 65 67 79 0a 00 00 00 00 00 00 00 59 6f 75 27     tegy........You'
    136c:	6c 6c 20 73 61 79 20 61 20 62 65 74 74 65 72 20     ll say a better 
    137c:	4d 61 6a 6f 72 2d 47 65 6e 65 72 61 6c 20 68 61     Major-General ha
    138c:	64 20 6e 65 76 65 72 20 73 61 74 20 61 20 67 65     d never sat a ge
    139c:	65 0a 00 00 00 00 00 00 00 00 59 6f 75 27 6c 6c     e.........You'll
    13ac:	20 73 61 79 20 61 20 62 65 74 74 65 72 20 4d 61      say a better Ma
    13bc:	6a 6f 72 2d 47 65 6e 65 72 61 6c 20 68 61 64 20     jor-General had 
    13cc:	6e 65 76 65 72 20 73 61 74 20 61 20 67 65 65 0a     never sat a gee.
	...
    13e4:	59 6f 75 27 6c 6c 20 73 61 79 20 61 20 62 65 74     You'll say a bet
    13f4:	74 65 72 20 4d 61 6a 6f 72 2d 47 65 6e 65 72 61     ter Major-Genera
    1404:	6c 20 68 61 64 20 6e 65 76 65 72 20 73 61 74 20     l had never sat 
    1414:	61 20 67 65 65 0a 00 00 00 00 00 00 00 00 59 6f     a gee.........Yo
    1424:	75 27 6c 6c 20 73 61 79 20 61 20 62 65 74 74 65     u'll say a bette
    1434:	72 20 4d 61 6a 6f 72 2d 47 65 6e 65 72 61 6c 20     r Major-General 
    1444:	68 61 64 20 6e 65 76 65 72 20 73 61 74 20 61 20     had never sat a 
    1454:	73 61 74 20 61 0a 00 00 00 00 00 00 47 65 65 0a     sat a.......Gee.
	...
    149c:	00 00 46 6f 72 20 6d 79 20 6d 69 6c 69 74 61 72     ..For my militar
    14ac:	79 20 6b 6e 6f 77 6c 65 64 67 65 2c 20 74 68 6f     y knowledge, tho
    14bc:	75 67 68 20 49 27 6d 20 70 6c 75 63 6b 79 20 61     ugh I'm plucky a
    14cc:	6e 64 0a 00 00 00 00 00 00 00 00 00 00 00 00 00     nd..............
    14dc:	41 64 76 65 6e 74 75 72 79 0a 00 00 00 00 00 00     Adventury.......
	...
    1518:	00 00 48 61 73 20 6f 6e 6c 79 20 62 65 65 6e 20     ..Has only been 
    1528:	62 72 6f 75 67 68 74 20 64 6f 77 6e 20 74 6f 20     brought down to 
    1538:	74 68 65 20 62 65 67 69 6e 6e 69 6e 67 20 6f 66     the beginning of
    1548:	20 74 68 65 0a 00 00 00 00 00 00 00 00 00 00 00      the............
    1558:	43 65 6e 74 75 72 79 0a 00 00 00 00 00 00 00 00     Century.........
	...
    1594:	00 00 42 75 74 20 73 74 69 6c 6c 2c 20 69 6e 20     ..But still, in 
    15a4:	6d 61 74 74 65 72 73 20 76 65 67 65 74 61 62 6c     matters vegetabl
    15b4:	65 2c 20 61 6e 69 6d 61 6c 2c 20 61 6e 64 20 6d     e, animal, and m
    15c4:	69 6e 65 72 61 6c 0a 00 00 00 00 00 00 00 00 00     ineral..........
    15d4:	49 20 61 6d 20 74 68 65 20 76 65 72 79 20 6d 6f     I am the very mo
    15e4:	64 65 6c 20 6f 66 20 61 20 6d 6f 64 65 72 6e 20     del of a modern 
    15f4:	4d 61 6a 6f 72 2d 47 65 6e 65 72 61 6c 0a 00 00     Major-General...
	...
    1610:	00 00 42 75 74 20 73 74 69 6c 6c 2c 20 69 6e 20     ..But still, in 
    1620:	6d 61 74 74 65 72 73 20 76 65 67 65 74 61 62 6c     matters vegetabl
    1630:	65 2c 20 61 6e 69 6d 61 6c 2c 20 61 6e 64 20 6d     e, animal, and m
    1640:	69 6e 65 72 61 6c 0a 00 00 00 00 00 00 00 00 00     ineral..........
    1650:	48 65 20 69 73 20 74 68 65 20 76 65 72 79 20 6d     He is the very m
    1660:	6f 64 65 6c 20 6f 66 20 61 20 6d 6f 64 65 72 6e     odel of a modern
    1670:	20 4d 61 6a 6f 72 2d 47 65 6e 65 72 61 6c 0a 00      Major-General..
	...

0000168e <__ctors_end>:
    168e:	11 24       	eor	r1, r1
    1690:	1f be       	out	0x3f, r1	; 63
    1692:	cf ef       	ldi	r28, 0xFF	; 255
    1694:	d1 e2       	ldi	r29, 0x21	; 33
    1696:	de bf       	out	0x3e, r29	; 62
    1698:	cd bf       	out	0x3d, r28	; 61
    169a:	00 e0       	ldi	r16, 0x00	; 0
    169c:	0c bf       	out	0x3c, r16	; 60

0000169e <__do_copy_data>:
    169e:	13 e1       	ldi	r17, 0x13	; 19
    16a0:	a0 e0       	ldi	r26, 0x00	; 0
    16a2:	b2 e0       	ldi	r27, 0x02	; 2
    16a4:	e4 e6       	ldi	r30, 0x64	; 100
    16a6:	f6 e8       	ldi	r31, 0x86	; 134
    16a8:	00 e0       	ldi	r16, 0x00	; 0
    16aa:	0b bf       	out	0x3b, r16	; 59
    16ac:	02 c0       	rjmp	.+4      	; 0x16b2 <__do_copy_data+0x14>
    16ae:	07 90       	elpm	r0, Z+
    16b0:	0d 92       	st	X+, r0
    16b2:	ac 38       	cpi	r26, 0x8C	; 140
    16b4:	b1 07       	cpc	r27, r17
    16b6:	d9 f7       	brne	.-10     	; 0x16ae <__do_copy_data+0x10>

000016b8 <__do_clear_bss>:
    16b8:	26 e1       	ldi	r18, 0x16	; 22
    16ba:	ac e8       	ldi	r26, 0x8C	; 140
    16bc:	b3 e1       	ldi	r27, 0x13	; 19
    16be:	01 c0       	rjmp	.+2      	; 0x16c2 <.do_clear_bss_start>

000016c0 <.do_clear_bss_loop>:
    16c0:	1d 92       	st	X+, r1

000016c2 <.do_clear_bss_start>:
    16c2:	a9 37       	cpi	r26, 0x79	; 121
    16c4:	b2 07       	cpc	r27, r18
    16c6:	e1 f7       	brne	.-8      	; 0x16c0 <.do_clear_bss_loop>
    16c8:	0e 94 be 38 	call	0x717c	; 0x717c <main>
    16cc:	0c 94 30 43 	jmp	0x8660	; 0x8660 <_exit>

000016d0 <__bad_interrupt>:
    16d0:	0c 94 00 00 	jmp	0	; 0x0 <__vectors>

000016d4 <processCommand>:
	{
		majorGeneral_get_line(i, buff);
		printf("%s",buff);

	}
}
    16d4:	cf 93       	push	r28
    16d6:	df 93       	push	r29
    16d8:	cd b7       	in	r28, 0x3d	; 61
    16da:	de b7       	in	r29, 0x3e	; 62
    16dc:	2a 97       	sbiw	r28, 0x0a	; 10
    16de:	0f b6       	in	r0, 0x3f	; 63
    16e0:	f8 94       	cli
    16e2:	de bf       	out	0x3e, r29	; 62
    16e4:	0f be       	out	0x3f, r0	; 63
    16e6:	cd bf       	out	0x3d, r28	; 61
    16e8:	80 91 53 16 	lds	r24, 0x1653	; 0x801653 <buf>
    16ec:	81 34       	cpi	r24, 0x41	; 65
    16ee:	09 f0       	breq	.+2      	; 0x16f2 <processCommand+0x1e>
    16f0:	46 c0       	rjmp	.+140    	; 0x177e <processCommand+0xaa>
    16f2:	80 91 54 16 	lds	r24, 0x1654	; 0x801654 <buf+0x1>
    16f6:	83 37       	cpi	r24, 0x73	; 115
    16f8:	19 f4       	brne	.+6      	; 0x1700 <processCommand+0x2c>
    16fa:	0e 94 9e 13 	call	0x273c	; 0x273c <ADC_rdSystemStatus>
    16fe:	2a c0       	rjmp	.+84     	; 0x1754 <processCommand+0x80>
    1700:	80 91 54 16 	lds	r24, 0x1654	; 0x801654 <buf+0x1>
    1704:	8d 36       	cpi	r24, 0x6D	; 109
    1706:	19 f4       	brne	.+6      	; 0x170e <processCommand+0x3a>
    1708:	0e 94 0e 14 	call	0x281c	; 0x281c <ADC_manualMode>
    170c:	23 c0       	rjmp	.+70     	; 0x1754 <processCommand+0x80>
    170e:	80 91 54 16 	lds	r24, 0x1654	; 0x801654 <buf+0x1>
    1712:	83 36       	cpi	r24, 0x63	; 99
    1714:	31 f4       	brne	.+12     	; 0x1722 <processCommand+0x4e>
    1716:	80 91 55 16 	lds	r24, 0x1655	; 0x801655 <buf+0x2>
    171a:	80 53       	subi	r24, 0x30	; 48
    171c:	0e 94 13 14 	call	0x2826	; 0x2826 <ADC_ReadManualModeAnalogCh>
    1720:	19 c0       	rjmp	.+50     	; 0x1754 <processCommand+0x80>
    1722:	80 91 54 16 	lds	r24, 0x1654	; 0x801654 <buf+0x1>
    1726:	8f 36       	cpi	r24, 0x6F	; 111
    1728:	31 f4       	brne	.+12     	; 0x1736 <processCommand+0x62>
    172a:	80 91 55 16 	lds	r24, 0x1655	; 0x801655 <buf+0x2>
    172e:	80 53       	subi	r24, 0x30	; 48
    1730:	0e 94 de 13 	call	0x27bc	; 0x27bc <ADC_OverSample>
    1734:	0f c0       	rjmp	.+30     	; 0x1754 <processCommand+0x80>
    1736:	80 91 54 16 	lds	r24, 0x1654	; 0x801654 <buf+0x1>
    173a:	8c 36       	cpi	r24, 0x6C	; 108
    173c:	21 f4       	brne	.+8      	; 0x1746 <processCommand+0x72>
    173e:	81 e0       	ldi	r24, 0x01	; 1
    1740:	0e 94 f0 13 	call	0x27e0	; 0x27e0 <ADC_OscSpeed>
    1744:	07 c0       	rjmp	.+14     	; 0x1754 <processCommand+0x80>
    1746:	80 91 54 16 	lds	r24, 0x1654	; 0x801654 <buf+0x1>
    174a:	88 36       	cpi	r24, 0x68	; 104
    174c:	19 f4       	brne	.+6      	; 0x1754 <processCommand+0x80>
    174e:	80 e0       	ldi	r24, 0x00	; 0
    1750:	0e 94 f0 13 	call	0x27e0	; 0x27e0 <ADC_OscSpeed>
    1754:	83 e5       	ldi	r24, 0x53	; 83
    1756:	96 e1       	ldi	r25, 0x16	; 22
    1758:	89 2f       	mov	r24, r25
    175a:	8f 93       	push	r24
    175c:	83 e5       	ldi	r24, 0x53	; 83
    175e:	96 e1       	ldi	r25, 0x16	; 22
    1760:	8f 93       	push	r24
    1762:	8d e2       	ldi	r24, 0x2D	; 45
    1764:	97 e0       	ldi	r25, 0x07	; 7
    1766:	89 2f       	mov	r24, r25
    1768:	8f 93       	push	r24
    176a:	8d e2       	ldi	r24, 0x2D	; 45
    176c:	97 e0       	ldi	r25, 0x07	; 7
    176e:	8f 93       	push	r24
    1770:	0e 94 63 42 	call	0x84c6	; 0x84c6 <printf>
    1774:	0f 90       	pop	r0
    1776:	0f 90       	pop	r0
    1778:	0f 90       	pop	r0
    177a:	0f 90       	pop	r0
    177c:	54 c2       	rjmp	.+1192   	; 0x1c26 <processCommand+0x552>
    177e:	80 91 53 16 	lds	r24, 0x1653	; 0x801653 <buf>
    1782:	80 37       	cpi	r24, 0x70	; 112
    1784:	19 f4       	brne	.+6      	; 0x178c <processCommand+0xb8>
    1786:	0e 94 88 2b 	call	0x5710	; 0x5710 <readABSPress>
    178a:	4d c2       	rjmp	.+1178   	; 0x1c26 <processCommand+0x552>
    178c:	80 91 53 16 	lds	r24, 0x1653	; 0x801653 <buf>
    1790:	80 35       	cpi	r24, 0x50	; 80
    1792:	19 f4       	brne	.+6      	; 0x179a <processCommand+0xc6>
    1794:	0e 94 7a 2b 	call	0x56f4	; 0x56f4 <readDiffPress>
    1798:	46 c2       	rjmp	.+1164   	; 0x1c26 <processCommand+0x552>
    179a:	66 e3       	ldi	r22, 0x36	; 54
    179c:	77 e0       	ldi	r23, 0x07	; 7
    179e:	83 e5       	ldi	r24, 0x53	; 83
    17a0:	96 e1       	ldi	r25, 0x16	; 22
    17a2:	0e 94 02 42 	call	0x8404	; 0x8404 <strcmp>
    17a6:	89 2b       	or	r24, r25
    17a8:	19 f4       	brne	.+6      	; 0x17b0 <processCommand+0xdc>
    17aa:	0e 94 96 2b 	call	0x572c	; 0x572c <readU47>
    17ae:	3b c2       	rjmp	.+1142   	; 0x1c26 <processCommand+0x552>
    17b0:	80 91 53 16 	lds	r24, 0x1653	; 0x801653 <buf>
    17b4:	8d 34       	cpi	r24, 0x4D	; 77
    17b6:	19 f4       	brne	.+6      	; 0x17be <processCommand+0xea>
    17b8:	0e 94 54 36 	call	0x6ca8	; 0x6ca8 <getMuxConfiguration>
    17bc:	34 c2       	rjmp	.+1128   	; 0x1c26 <processCommand+0x552>
    17be:	80 91 53 16 	lds	r24, 0x1653	; 0x801653 <buf>
    17c2:	82 33       	cpi	r24, 0x32	; 50
    17c4:	39 f4       	brne	.+14     	; 0x17d4 <processCommand+0x100>
    17c6:	84 e5       	ldi	r24, 0x54	; 84
    17c8:	96 e1       	ldi	r25, 0x16	; 22
    17ca:	0e 94 eb 40 	call	0x81d6	; 0x81d6 <atoi>
    17ce:	0e 94 6b 36 	call	0x6cd6	; 0x6cd6 <setI2Cmux>
    17d2:	29 c2       	rjmp	.+1106   	; 0x1c26 <processCommand+0x552>
    17d4:	80 91 53 16 	lds	r24, 0x1653	; 0x801653 <buf>
    17d8:	82 35       	cpi	r24, 0x52	; 82
    17da:	71 f4       	brne	.+28     	; 0x17f8 <processCommand+0x124>
    17dc:	80 91 54 16 	lds	r24, 0x1654	; 0x801654 <buf+0x1>
    17e0:	83 35       	cpi	r24, 0x53	; 83
    17e2:	11 f4       	brne	.+4      	; 0x17e8 <processCommand+0x114>
    17e4:	0e 94 a4 2b 	call	0x5748	; 0x5748 <startRH_T_conversion>
    17e8:	80 91 54 16 	lds	r24, 0x1654	; 0x801654 <buf+0x1>
    17ec:	82 35       	cpi	r24, 0x52	; 82
    17ee:	09 f0       	breq	.+2      	; 0x17f2 <processCommand+0x11e>
    17f0:	1a c2       	rjmp	.+1076   	; 0x1c26 <processCommand+0x552>
    17f2:	0e 94 b9 2b 	call	0x5772	; 0x5772 <readRH_T>
    17f6:	17 c2       	rjmp	.+1070   	; 0x1c26 <processCommand+0x552>
    17f8:	80 91 53 16 	lds	r24, 0x1653	; 0x801653 <buf>
    17fc:	82 37       	cpi	r24, 0x72	; 114
    17fe:	19 f4       	brne	.+6      	; 0x1806 <processCommand+0x132>
    1800:	0e 94 d6 33 	call	0x67ac	; 0x67ac <RTC_config>
    1804:	10 c2       	rjmp	.+1056   	; 0x1c26 <processCommand+0x552>
    1806:	80 91 53 16 	lds	r24, 0x1653	; 0x801653 <buf>
    180a:	81 36       	cpi	r24, 0x61	; 97
    180c:	b1 f4       	brne	.+44     	; 0x183a <processCommand+0x166>
    180e:	80 91 54 16 	lds	r24, 0x1654	; 0x801654 <buf+0x1>
    1812:	81 36       	cpi	r24, 0x61	; 97
    1814:	19 f4       	brne	.+6      	; 0x181c <processCommand+0x148>
    1816:	0e 94 75 14 	call	0x28ea	; 0x28ea <showActiveADCs>
    181a:	05 c2       	rjmp	.+1034   	; 0x1c26 <processCommand+0x552>
    181c:	80 91 54 16 	lds	r24, 0x1654	; 0x801654 <buf+0x1>
    1820:	83 37       	cpi	r24, 0x73	; 115
    1822:	19 f4       	brne	.+6      	; 0x182a <processCommand+0x156>
    1824:	0e 94 78 15 	call	0x2af0	; 0x2af0 <startADCcycle>
    1828:	fe c1       	rjmp	.+1020   	; 0x1c26 <processCommand+0x552>
    182a:	80 91 54 16 	lds	r24, 0x1654	; 0x801654 <buf+0x1>
    182e:	84 36       	cpi	r24, 0x64	; 100
    1830:	09 f0       	breq	.+2      	; 0x1834 <processCommand+0x160>
    1832:	f9 c1       	rjmp	.+1010   	; 0x1c26 <processCommand+0x552>
    1834:	0e 94 4d 15 	call	0x2a9a	; 0x2a9a <doAdc>
    1838:	f6 c1       	rjmp	.+1004   	; 0x1c26 <processCommand+0x552>
    183a:	80 91 53 16 	lds	r24, 0x1653	; 0x801653 <buf>
    183e:	86 34       	cpi	r24, 0x46	; 70
    1840:	09 f0       	breq	.+2      	; 0x1844 <processCommand+0x170>
    1842:	49 c0       	rjmp	.+146    	; 0x18d6 <processCommand+0x202>
    1844:	0e 94 5b 2d 	call	0x5ab6	; 0x5ab6 <spi_FlashReadID>
    1848:	80 91 54 16 	lds	r24, 0x1654	; 0x801654 <buf+0x1>
    184c:	87 37       	cpi	r24, 0x77	; 119
    184e:	11 f4       	brne	.+4      	; 0x1854 <processCommand+0x180>
    1850:	f4 d1       	rcall	.+1000   	; 0x1c3a <doFlashWriteTest>
    1852:	e9 c1       	rjmp	.+978    	; 0x1c26 <processCommand+0x552>
    1854:	80 91 54 16 	lds	r24, 0x1654	; 0x801654 <buf+0x1>
    1858:	89 36       	cpi	r24, 0x69	; 105
    185a:	19 f4       	brne	.+6      	; 0x1862 <processCommand+0x18e>
    185c:	0e 94 0e 2d 	call	0x5a1c	; 0x5a1c <spi_FlashInitialize>
    1860:	e2 c1       	rjmp	.+964    	; 0x1c26 <processCommand+0x552>
    1862:	80 91 54 16 	lds	r24, 0x1654	; 0x801654 <buf+0x1>
    1866:	82 37       	cpi	r24, 0x72	; 114
    1868:	11 f4       	brne	.+4      	; 0x186e <processCommand+0x19a>
    186a:	5d d2       	rcall	.+1210   	; 0x1d26 <doFlashReadTest>
    186c:	dc c1       	rjmp	.+952    	; 0x1c26 <processCommand+0x552>
    186e:	80 91 54 16 	lds	r24, 0x1654	; 0x801654 <buf+0x1>
    1872:	81 36       	cpi	r24, 0x61	; 97
    1874:	11 f4       	brne	.+4      	; 0x187a <processCommand+0x1a6>
    1876:	dd d2       	rcall	.+1466   	; 0x1e32 <doFlashTestReadAll>
    1878:	d6 c1       	rjmp	.+940    	; 0x1c26 <processCommand+0x552>
    187a:	80 91 54 16 	lds	r24, 0x1654	; 0x801654 <buf+0x1>
    187e:	85 36       	cpi	r24, 0x65	; 101
    1880:	11 f4       	brne	.+4      	; 0x1886 <processCommand+0x1b2>
    1882:	cd d2       	rcall	.+1434   	; 0x1e1e <doFlashEraseTest>
    1884:	d0 c1       	rjmp	.+928    	; 0x1c26 <processCommand+0x552>
    1886:	80 91 54 16 	lds	r24, 0x1654	; 0x801654 <buf+0x1>
    188a:	85 37       	cpi	r24, 0x75	; 117
    188c:	19 f4       	brne	.+6      	; 0x1894 <processCommand+0x1c0>
    188e:	0e 94 64 2e 	call	0x5cc8	; 0x5cc8 <spi_FlashUnlockAllBlocks>
    1892:	c9 c1       	rjmp	.+914    	; 0x1c26 <processCommand+0x552>
    1894:	80 91 54 16 	lds	r24, 0x1654	; 0x801654 <buf+0x1>
    1898:	83 37       	cpi	r24, 0x73	; 115
    189a:	19 f4       	brne	.+6      	; 0x18a2 <processCommand+0x1ce>
    189c:	0e 94 df 2d 	call	0x5bbe	; 0x5bbe <spi_FlashDisplayFeatureRegisters>
    18a0:	c2 c1       	rjmp	.+900    	; 0x1c26 <processCommand+0x552>
    18a2:	80 91 54 16 	lds	r24, 0x1654	; 0x801654 <buf+0x1>
    18a6:	88 37       	cpi	r24, 0x78	; 120
    18a8:	19 f4       	brne	.+6      	; 0x18b0 <processCommand+0x1dc>
    18aa:	0e 94 9a 32 	call	0x6534	; 0x6534 <spi_FlashReset>
    18ae:	bb c1       	rjmp	.+886    	; 0x1c26 <processCommand+0x552>
    18b0:	80 91 54 16 	lds	r24, 0x1654	; 0x801654 <buf+0x1>
    18b4:	84 37       	cpi	r24, 0x74	; 116
    18b6:	11 f4       	brne	.+4      	; 0x18bc <processCommand+0x1e8>
    18b8:	a3 d3       	rcall	.+1862   	; 0x2000 <testRandomWR>
    18ba:	b5 c1       	rjmp	.+874    	; 0x1c26 <processCommand+0x552>
    18bc:	80 91 54 16 	lds	r24, 0x1654	; 0x801654 <buf+0x1>
    18c0:	81 33       	cpi	r24, 0x31	; 49
    18c2:	11 f4       	brne	.+4      	; 0x18c8 <processCommand+0x1f4>
    18c4:	c8 d4       	rcall	.+2448   	; 0x2256 <FlashABTest>
    18c6:	af c1       	rjmp	.+862    	; 0x1c26 <processCommand+0x552>
    18c8:	80 91 54 16 	lds	r24, 0x1654	; 0x801654 <buf+0x1>
    18cc:	82 33       	cpi	r24, 0x32	; 50
    18ce:	09 f0       	breq	.+2      	; 0x18d2 <processCommand+0x1fe>
    18d0:	aa c1       	rjmp	.+852    	; 0x1c26 <processCommand+0x552>
    18d2:	1a d6       	rcall	.+3124   	; 0x2508 <FlashReadBlocksTest>
    18d4:	a8 c1       	rjmp	.+848    	; 0x1c26 <processCommand+0x552>
    18d6:	80 91 53 16 	lds	r24, 0x1653	; 0x801653 <buf>
    18da:	86 36       	cpi	r24, 0x66	; 102
    18dc:	e9 f4       	brne	.+58     	; 0x1918 <processCommand+0x244>
    18de:	80 91 54 16 	lds	r24, 0x1654	; 0x801654 <buf+0x1>
    18e2:	83 37       	cpi	r24, 0x73	; 115
    18e4:	19 f4       	brne	.+6      	; 0x18ec <processCommand+0x218>
    18e6:	0e 94 21 35 	call	0x6a42	; 0x6a42 <FRAM_ReadStatusRegister>
    18ea:	9d c1       	rjmp	.+826    	; 0x1c26 <processCommand+0x552>
    18ec:	80 91 54 16 	lds	r24, 0x1654	; 0x801654 <buf+0x1>
    18f0:	89 36       	cpi	r24, 0x69	; 105
    18f2:	19 f4       	brne	.+6      	; 0x18fa <processCommand+0x226>
    18f4:	0e 94 8e 35 	call	0x6b1c	; 0x6b1c <read_FRAM_DeviceID>
    18f8:	96 c1       	rjmp	.+812    	; 0x1c26 <processCommand+0x552>
    18fa:	80 91 54 16 	lds	r24, 0x1654	; 0x801654 <buf+0x1>
    18fe:	8a 36       	cpi	r24, 0x6A	; 106
    1900:	19 f4       	brne	.+6      	; 0x1908 <processCommand+0x234>
    1902:	0e 94 bd 35 	call	0x6b7a	; 0x6b7a <wrFRAM>
    1906:	8f c1       	rjmp	.+798    	; 0x1c26 <processCommand+0x552>
    1908:	80 91 54 16 	lds	r24, 0x1654	; 0x801654 <buf+0x1>
    190c:	85 36       	cpi	r24, 0x65	; 101
    190e:	09 f0       	breq	.+2      	; 0x1912 <processCommand+0x23e>
    1910:	8a c1       	rjmp	.+788    	; 0x1c26 <processCommand+0x552>
    1912:	0e 94 1a 35 	call	0x6a34	; 0x6a34 <spi_FRAM_writeEnable>
    1916:	87 c1       	rjmp	.+782    	; 0x1c26 <processCommand+0x552>
    1918:	80 91 53 16 	lds	r24, 0x1653	; 0x801653 <buf>
    191c:	83 37       	cpi	r24, 0x73	; 115
    191e:	f9 f4       	brne	.+62     	; 0x195e <processCommand+0x28a>
    1920:	80 91 00 02 	lds	r24, 0x0200	; 0x800200 <__DATA_REGION_ORIGIN__>
    1924:	88 2f       	mov	r24, r24
    1926:	90 e0       	ldi	r25, 0x00	; 0
    1928:	0e 94 00 36 	call	0x6c00	; 0x6c00 <framSaveSerialNumber>
    192c:	80 91 00 02 	lds	r24, 0x0200	; 0x800200 <__DATA_REGION_ORIGIN__>
    1930:	91 e0       	ldi	r25, 0x01	; 1
    1932:	98 0f       	add	r25, r24
    1934:	90 93 00 02 	sts	0x0200, r25	; 0x800200 <__DATA_REGION_ORIGIN__>
    1938:	88 2f       	mov	r24, r24
    193a:	90 e0       	ldi	r25, 0x00	; 0
    193c:	29 2f       	mov	r18, r25
    193e:	2f 93       	push	r18
    1940:	8f 93       	push	r24
    1942:	8a e3       	ldi	r24, 0x3A	; 58
    1944:	97 e0       	ldi	r25, 0x07	; 7
    1946:	89 2f       	mov	r24, r25
    1948:	8f 93       	push	r24
    194a:	8a e3       	ldi	r24, 0x3A	; 58
    194c:	97 e0       	ldi	r25, 0x07	; 7
    194e:	8f 93       	push	r24
    1950:	0e 94 63 42 	call	0x84c6	; 0x84c6 <printf>
    1954:	0f 90       	pop	r0
    1956:	0f 90       	pop	r0
    1958:	0f 90       	pop	r0
    195a:	0f 90       	pop	r0
    195c:	64 c1       	rjmp	.+712    	; 0x1c26 <processCommand+0x552>
    195e:	80 91 53 16 	lds	r24, 0x1653	; 0x801653 <buf>
    1962:	8e 36       	cpi	r24, 0x6E	; 110
    1964:	19 f4       	brne	.+6      	; 0x196c <processCommand+0x298>
    1966:	0e 94 0c 36 	call	0x6c18	; 0x6c18 <framReadSerialNumber>
    196a:	5d c1       	rjmp	.+698    	; 0x1c26 <processCommand+0x552>
    196c:	80 91 53 16 	lds	r24, 0x1653	; 0x801653 <buf>
    1970:	83 36       	cpi	r24, 0x63	; 99
    1972:	19 f4       	brne	.+6      	; 0x197a <processCommand+0x2a6>
    1974:	0e 94 1c 34 	call	0x6838	; 0x6838 <RTC_readCLKF>
    1978:	56 c1       	rjmp	.+684    	; 0x1c26 <processCommand+0x552>
    197a:	80 91 53 16 	lds	r24, 0x1653	; 0x801653 <buf>
    197e:	85 36       	cpi	r24, 0x65	; 101
    1980:	91 f5       	brne	.+100    	; 0x19e6 <processCommand+0x312>
    1982:	80 91 54 16 	lds	r24, 0x1654	; 0x801654 <buf+0x1>
    1986:	80 33       	cpi	r24, 0x30	; 48
    1988:	41 f0       	breq	.+16     	; 0x199a <processCommand+0x2c6>
    198a:	80 91 54 16 	lds	r24, 0x1654	; 0x801654 <buf+0x1>
    198e:	81 33       	cpi	r24, 0x31	; 49
    1990:	21 f0       	breq	.+8      	; 0x199a <processCommand+0x2c6>
    1992:	80 91 54 16 	lds	r24, 0x1654	; 0x801654 <buf+0x1>
    1996:	84 33       	cpi	r24, 0x34	; 52
    1998:	31 f4       	brne	.+12     	; 0x19a6 <processCommand+0x2d2>
    199a:	0e 94 8c 2c 	call	0x5918	; 0x5918 <enableBuck014>
    199e:	81 e4       	ldi	r24, 0x41	; 65
    19a0:	97 e0       	ldi	r25, 0x07	; 7
    19a2:	0e 94 a2 42 	call	0x8544	; 0x8544 <puts>
    19a6:	80 91 54 16 	lds	r24, 0x1654	; 0x801654 <buf+0x1>
    19aa:	82 33       	cpi	r24, 0x32	; 50
    19ac:	31 f4       	brne	.+12     	; 0x19ba <processCommand+0x2e6>
    19ae:	0e 94 9a 2c 	call	0x5934	; 0x5934 <enableBuck2>
    19b2:	8e e5       	ldi	r24, 0x5E	; 94
    19b4:	97 e0       	ldi	r25, 0x07	; 7
    19b6:	0e 94 a2 42 	call	0x8544	; 0x8544 <puts>
    19ba:	80 91 54 16 	lds	r24, 0x1654	; 0x801654 <buf+0x1>
    19be:	83 33       	cpi	r24, 0x33	; 51
    19c0:	31 f4       	brne	.+12     	; 0x19ce <processCommand+0x2fa>
    19c2:	0e 94 a2 2c 	call	0x5944	; 0x5944 <enableBuck3>
    19c6:	82 e7       	ldi	r24, 0x72	; 114
    19c8:	97 e0       	ldi	r25, 0x07	; 7
    19ca:	0e 94 a2 42 	call	0x8544	; 0x8544 <puts>
    19ce:	80 91 54 16 	lds	r24, 0x1654	; 0x801654 <buf+0x1>
    19d2:	85 33       	cpi	r24, 0x35	; 53
    19d4:	09 f0       	breq	.+2      	; 0x19d8 <processCommand+0x304>
    19d6:	27 c1       	rjmp	.+590    	; 0x1c26 <processCommand+0x552>
    19d8:	0e 94 aa 2c 	call	0x5954	; 0x5954 <enableBuck5>
    19dc:	89 e8       	ldi	r24, 0x89	; 137
    19de:	97 e0       	ldi	r25, 0x07	; 7
    19e0:	0e 94 a2 42 	call	0x8544	; 0x8544 <puts>
    19e4:	20 c1       	rjmp	.+576    	; 0x1c26 <processCommand+0x552>
    19e6:	80 91 53 16 	lds	r24, 0x1653	; 0x801653 <buf>
    19ea:	84 36       	cpi	r24, 0x64	; 100
    19ec:	51 f5       	brne	.+84     	; 0x1a42 <processCommand+0x36e>
    19ee:	80 91 54 16 	lds	r24, 0x1654	; 0x801654 <buf+0x1>
    19f2:	80 33       	cpi	r24, 0x30	; 48
    19f4:	31 f4       	brne	.+12     	; 0x1a02 <processCommand+0x32e>
    19f6:	0e 94 93 2c 	call	0x5926	; 0x5926 <disableBuck014>
    19fa:	80 ea       	ldi	r24, 0xA0	; 160
    19fc:	97 e0       	ldi	r25, 0x07	; 7
    19fe:	0e 94 a2 42 	call	0x8544	; 0x8544 <puts>
    1a02:	80 91 54 16 	lds	r24, 0x1654	; 0x801654 <buf+0x1>
    1a06:	82 33       	cpi	r24, 0x32	; 50
    1a08:	31 f4       	brne	.+12     	; 0x1a16 <processCommand+0x342>
    1a0a:	0e 94 9e 2c 	call	0x593c	; 0x593c <disableBuck2>
    1a0e:	8e eb       	ldi	r24, 0xBE	; 190
    1a10:	97 e0       	ldi	r25, 0x07	; 7
    1a12:	0e 94 a2 42 	call	0x8544	; 0x8544 <puts>
    1a16:	80 91 54 16 	lds	r24, 0x1654	; 0x801654 <buf+0x1>
    1a1a:	83 33       	cpi	r24, 0x33	; 51
    1a1c:	31 f4       	brne	.+12     	; 0x1a2a <processCommand+0x356>
    1a1e:	0e 94 a6 2c 	call	0x594c	; 0x594c <disableBuck3>
    1a22:	83 ed       	ldi	r24, 0xD3	; 211
    1a24:	97 e0       	ldi	r25, 0x07	; 7
    1a26:	0e 94 a2 42 	call	0x8544	; 0x8544 <puts>
    1a2a:	80 91 54 16 	lds	r24, 0x1654	; 0x801654 <buf+0x1>
    1a2e:	85 33       	cpi	r24, 0x35	; 53
    1a30:	09 f0       	breq	.+2      	; 0x1a34 <processCommand+0x360>
    1a32:	f9 c0       	rjmp	.+498    	; 0x1c26 <processCommand+0x552>
    1a34:	0e 94 b0 2c 	call	0x5960	; 0x5960 <disableBuck5>
    1a38:	8b ee       	ldi	r24, 0xEB	; 235
    1a3a:	97 e0       	ldi	r25, 0x07	; 7
    1a3c:	0e 94 a2 42 	call	0x8544	; 0x8544 <puts>
    1a40:	f2 c0       	rjmp	.+484    	; 0x1c26 <processCommand+0x552>
    1a42:	80 91 53 16 	lds	r24, 0x1653	; 0x801653 <buf>
    1a46:	8f 36       	cpi	r24, 0x6F	; 111
    1a48:	41 f5       	brne	.+80     	; 0x1a9a <processCommand+0x3c6>
    1a4a:	80 91 54 16 	lds	r24, 0x1654	; 0x801654 <buf+0x1>
    1a4e:	88 2f       	mov	r24, r24
    1a50:	90 e0       	ldi	r25, 0x00	; 0
    1a52:	ac 01       	movw	r20, r24
    1a54:	40 53       	subi	r20, 0x30	; 48
    1a56:	51 09       	sbc	r21, r1
    1a58:	2f ef       	ldi	r18, 0xFF	; 255
    1a5a:	31 e0       	ldi	r19, 0x01	; 1
    1a5c:	42 9f       	mul	r20, r18
    1a5e:	c0 01       	movw	r24, r0
    1a60:	43 9f       	mul	r20, r19
    1a62:	90 0d       	add	r25, r0
    1a64:	52 9f       	mul	r21, r18
    1a66:	90 0d       	add	r25, r0
    1a68:	11 24       	eor	r1, r1
    1a6a:	9a 83       	std	Y+2, r25	; 0x02
    1a6c:	89 83       	std	Y+1, r24	; 0x01
    1a6e:	89 81       	ldd	r24, Y+1	; 0x01
    1a70:	9a 81       	ldd	r25, Y+2	; 0x02
    1a72:	0e 94 f2 34 	call	0x69e4	; 0x69e4 <spi_OpticsDAC_BroadCast>
    1a76:	8a 81       	ldd	r24, Y+2	; 0x02
    1a78:	8f 93       	push	r24
    1a7a:	89 81       	ldd	r24, Y+1	; 0x01
    1a7c:	8f 93       	push	r24
    1a7e:	83 e0       	ldi	r24, 0x03	; 3
    1a80:	98 e0       	ldi	r25, 0x08	; 8
    1a82:	89 2f       	mov	r24, r25
    1a84:	8f 93       	push	r24
    1a86:	83 e0       	ldi	r24, 0x03	; 3
    1a88:	98 e0       	ldi	r25, 0x08	; 8
    1a8a:	8f 93       	push	r24
    1a8c:	0e 94 63 42 	call	0x84c6	; 0x84c6 <printf>
    1a90:	0f 90       	pop	r0
    1a92:	0f 90       	pop	r0
    1a94:	0f 90       	pop	r0
    1a96:	0f 90       	pop	r0
    1a98:	c6 c0       	rjmp	.+396    	; 0x1c26 <processCommand+0x552>
    1a9a:	80 91 53 16 	lds	r24, 0x1653	; 0x801653 <buf>
    1a9e:	8f 34       	cpi	r24, 0x4F	; 79
    1aa0:	41 f5       	brne	.+80     	; 0x1af2 <processCommand+0x41e>
    1aa2:	80 91 54 16 	lds	r24, 0x1654	; 0x801654 <buf+0x1>
    1aa6:	80 53       	subi	r24, 0x30	; 48
    1aa8:	8b 83       	std	Y+3, r24	; 0x03
    1aaa:	8b 81       	ldd	r24, Y+3	; 0x03
    1aac:	88 30       	cpi	r24, 0x08	; 8
    1aae:	08 f0       	brcs	.+2      	; 0x1ab2 <processCommand+0x3de>
    1ab0:	ba c0       	rjmp	.+372    	; 0x1c26 <processCommand+0x552>
    1ab2:	80 91 55 16 	lds	r24, 0x1655	; 0x801655 <buf+0x2>
    1ab6:	88 2f       	mov	r24, r24
    1ab8:	90 e0       	ldi	r25, 0x00	; 0
    1aba:	80 5d       	subi	r24, 0xD0	; 208
    1abc:	9f 45       	sbci	r25, 0x5F	; 95
    1abe:	9d 83       	std	Y+5, r25	; 0x05
    1ac0:	8c 83       	std	Y+4, r24	; 0x04
    1ac2:	8c 81       	ldd	r24, Y+4	; 0x04
    1ac4:	9d 81       	ldd	r25, Y+5	; 0x05
    1ac6:	bc 01       	movw	r22, r24
    1ac8:	8b 81       	ldd	r24, Y+3	; 0x03
    1aca:	0e 94 b9 34 	call	0x6972	; 0x6972 <spi_OpticsDAC>
    1ace:	8d 81       	ldd	r24, Y+5	; 0x05
    1ad0:	8f 93       	push	r24
    1ad2:	8c 81       	ldd	r24, Y+4	; 0x04
    1ad4:	8f 93       	push	r24
    1ad6:	8a e0       	ldi	r24, 0x0A	; 10
    1ad8:	98 e0       	ldi	r25, 0x08	; 8
    1ada:	89 2f       	mov	r24, r25
    1adc:	8f 93       	push	r24
    1ade:	8a e0       	ldi	r24, 0x0A	; 10
    1ae0:	98 e0       	ldi	r25, 0x08	; 8
    1ae2:	8f 93       	push	r24
    1ae4:	0e 94 63 42 	call	0x84c6	; 0x84c6 <printf>
    1ae8:	0f 90       	pop	r0
    1aea:	0f 90       	pop	r0
    1aec:	0f 90       	pop	r0
    1aee:	0f 90       	pop	r0
    1af0:	9a c0       	rjmp	.+308    	; 0x1c26 <processCommand+0x552>
    1af2:	80 91 53 16 	lds	r24, 0x1653	; 0x801653 <buf>
    1af6:	82 36       	cpi	r24, 0x62	; 98
    1af8:	59 f5       	brne	.+86     	; 0x1b50 <processCommand+0x47c>
    1afa:	83 e1       	ldi	r24, 0x13	; 19
    1afc:	98 e0       	ldi	r25, 0x08	; 8
    1afe:	0e 94 a2 42 	call	0x8544	; 0x8544 <puts>
    1b02:	80 91 54 16 	lds	r24, 0x1654	; 0x801654 <buf+0x1>
    1b06:	88 2f       	mov	r24, r24
    1b08:	90 e0       	ldi	r25, 0x00	; 0
    1b0a:	c0 97       	sbiw	r24, 0x30	; 48
    1b0c:	ac 01       	movw	r20, r24
    1b0e:	2f ef       	ldi	r18, 0xFF	; 255
    1b10:	31 e0       	ldi	r19, 0x01	; 1
    1b12:	42 9f       	mul	r20, r18
    1b14:	c0 01       	movw	r24, r0
    1b16:	43 9f       	mul	r20, r19
    1b18:	90 0d       	add	r25, r0
    1b1a:	52 9f       	mul	r21, r18
    1b1c:	90 0d       	add	r25, r0
    1b1e:	11 24       	eor	r1, r1
    1b20:	9f 83       	std	Y+7, r25	; 0x07
    1b22:	8e 83       	std	Y+6, r24	; 0x06
    1b24:	8e 81       	ldd	r24, Y+6	; 0x06
    1b26:	9f 81       	ldd	r25, Y+7	; 0x07
    1b28:	0e 94 06 35 	call	0x6a0c	; 0x6a0c <spi_OpticsBuckCtl_BroadCast>
    1b2c:	8f 81       	ldd	r24, Y+7	; 0x07
    1b2e:	8f 93       	push	r24
    1b30:	8e 81       	ldd	r24, Y+6	; 0x06
    1b32:	8f 93       	push	r24
    1b34:	83 e0       	ldi	r24, 0x03	; 3
    1b36:	98 e0       	ldi	r25, 0x08	; 8
    1b38:	89 2f       	mov	r24, r25
    1b3a:	8f 93       	push	r24
    1b3c:	83 e0       	ldi	r24, 0x03	; 3
    1b3e:	98 e0       	ldi	r25, 0x08	; 8
    1b40:	8f 93       	push	r24
    1b42:	0e 94 63 42 	call	0x84c6	; 0x84c6 <printf>
    1b46:	0f 90       	pop	r0
    1b48:	0f 90       	pop	r0
    1b4a:	0f 90       	pop	r0
    1b4c:	0f 90       	pop	r0
    1b4e:	6b c0       	rjmp	.+214    	; 0x1c26 <processCommand+0x552>
    1b50:	80 91 53 16 	lds	r24, 0x1653	; 0x801653 <buf>
    1b54:	82 34       	cpi	r24, 0x42	; 66
    1b56:	89 f5       	brne	.+98     	; 0x1bba <processCommand+0x4e6>
    1b58:	80 91 54 16 	lds	r24, 0x1654	; 0x801654 <buf+0x1>
    1b5c:	80 53       	subi	r24, 0x30	; 48
    1b5e:	88 87       	std	Y+8, r24	; 0x08
    1b60:	88 85       	ldd	r24, Y+8	; 0x08
    1b62:	88 30       	cpi	r24, 0x08	; 8
    1b64:	08 f0       	brcs	.+2      	; 0x1b68 <processCommand+0x494>
    1b66:	5f c0       	rjmp	.+190    	; 0x1c26 <processCommand+0x552>
    1b68:	80 91 55 16 	lds	r24, 0x1655	; 0x801655 <buf+0x2>
    1b6c:	88 2f       	mov	r24, r24
    1b6e:	90 e0       	ldi	r25, 0x00	; 0
    1b70:	c0 97       	sbiw	r24, 0x30	; 48
    1b72:	ac 01       	movw	r20, r24
    1b74:	2f ef       	ldi	r18, 0xFF	; 255
    1b76:	31 e0       	ldi	r19, 0x01	; 1
    1b78:	42 9f       	mul	r20, r18
    1b7a:	c0 01       	movw	r24, r0
    1b7c:	43 9f       	mul	r20, r19
    1b7e:	90 0d       	add	r25, r0
    1b80:	52 9f       	mul	r21, r18
    1b82:	90 0d       	add	r25, r0
    1b84:	11 24       	eor	r1, r1
    1b86:	9a 87       	std	Y+10, r25	; 0x0a
    1b88:	89 87       	std	Y+9, r24	; 0x09
    1b8a:	89 85       	ldd	r24, Y+9	; 0x09
    1b8c:	9a 85       	ldd	r25, Y+10	; 0x0a
    1b8e:	bc 01       	movw	r22, r24
    1b90:	88 85       	ldd	r24, Y+8	; 0x08
    1b92:	0e 94 82 34 	call	0x6904	; 0x6904 <spi_buckCtrlDac>
    1b96:	8a 85       	ldd	r24, Y+10	; 0x0a
    1b98:	8f 93       	push	r24
    1b9a:	89 85       	ldd	r24, Y+9	; 0x09
    1b9c:	8f 93       	push	r24
    1b9e:	83 e0       	ldi	r24, 0x03	; 3
    1ba0:	98 e0       	ldi	r25, 0x08	; 8
    1ba2:	89 2f       	mov	r24, r25
    1ba4:	8f 93       	push	r24
    1ba6:	83 e0       	ldi	r24, 0x03	; 3
    1ba8:	98 e0       	ldi	r25, 0x08	; 8
    1baa:	8f 93       	push	r24
    1bac:	0e 94 63 42 	call	0x84c6	; 0x84c6 <printf>
    1bb0:	0f 90       	pop	r0
    1bb2:	0f 90       	pop	r0
    1bb4:	0f 90       	pop	r0
    1bb6:	0f 90       	pop	r0
    1bb8:	36 c0       	rjmp	.+108    	; 0x1c26 <processCommand+0x552>
    1bba:	80 91 53 16 	lds	r24, 0x1653	; 0x801653 <buf>
    1bbe:	87 37       	cpi	r24, 0x77	; 119
    1bc0:	69 f4       	brne	.+26     	; 0x1bdc <processCommand+0x508>
    1bc2:	80 91 54 16 	lds	r24, 0x1654	; 0x801654 <buf+0x1>
    1bc6:	81 33       	cpi	r24, 0x31	; 49
    1bc8:	11 f4       	brne	.+4      	; 0x1bce <processCommand+0x4fa>
    1bca:	0e 94 b6 2c 	call	0x596c	; 0x596c <powerUpWickSensor>
    1bce:	80 91 54 16 	lds	r24, 0x1654	; 0x801654 <buf+0x1>
    1bd2:	80 33       	cpi	r24, 0x30	; 48
    1bd4:	41 f5       	brne	.+80     	; 0x1c26 <processCommand+0x552>
    1bd6:	0e 94 ba 2c 	call	0x5974	; 0x5974 <powerDownWickSensor>
    1bda:	25 c0       	rjmp	.+74     	; 0x1c26 <processCommand+0x552>
    1bdc:	80 91 53 16 	lds	r24, 0x1653	; 0x801653 <buf>
    1be0:	8d 36       	cpi	r24, 0x6D	; 109
    1be2:	69 f4       	brne	.+26     	; 0x1bfe <processCommand+0x52a>
    1be4:	80 91 54 16 	lds	r24, 0x1654	; 0x801654 <buf+0x1>
    1be8:	81 33       	cpi	r24, 0x31	; 49
    1bea:	11 f4       	brne	.+4      	; 0x1bf0 <processCommand+0x51c>
    1bec:	0e 94 02 2d 	call	0x5a04	; 0x5a04 <selectSDcard>
    1bf0:	80 91 54 16 	lds	r24, 0x1654	; 0x801654 <buf+0x1>
    1bf4:	80 33       	cpi	r24, 0x30	; 48
    1bf6:	b9 f4       	brne	.+46     	; 0x1c26 <processCommand+0x552>
    1bf8:	0e 94 08 2d 	call	0x5a10	; 0x5a10 <deSelectSDcard>
    1bfc:	14 c0       	rjmp	.+40     	; 0x1c26 <processCommand+0x552>
    1bfe:	83 e5       	ldi	r24, 0x53	; 83
    1c00:	96 e1       	ldi	r25, 0x16	; 22
    1c02:	89 2f       	mov	r24, r25
    1c04:	8f 93       	push	r24
    1c06:	83 e5       	ldi	r24, 0x53	; 83
    1c08:	96 e1       	ldi	r25, 0x16	; 22
    1c0a:	8f 93       	push	r24
    1c0c:	87 e1       	ldi	r24, 0x17	; 23
    1c0e:	98 e0       	ldi	r25, 0x08	; 8
    1c10:	89 2f       	mov	r24, r25
    1c12:	8f 93       	push	r24
    1c14:	87 e1       	ldi	r24, 0x17	; 23
    1c16:	98 e0       	ldi	r25, 0x08	; 8
    1c18:	8f 93       	push	r24
    1c1a:	0e 94 63 42 	call	0x84c6	; 0x84c6 <printf>
    1c1e:	0f 90       	pop	r0
    1c20:	0f 90       	pop	r0
    1c22:	0f 90       	pop	r0
    1c24:	0f 90       	pop	r0
    1c26:	00 00       	nop
    1c28:	2a 96       	adiw	r28, 0x0a	; 10
    1c2a:	0f b6       	in	r0, 0x3f	; 63
    1c2c:	f8 94       	cli
    1c2e:	de bf       	out	0x3e, r29	; 62
    1c30:	0f be       	out	0x3f, r0	; 63
    1c32:	cd bf       	out	0x3d, r28	; 61
    1c34:	df 91       	pop	r29
    1c36:	cf 91       	pop	r28
    1c38:	08 95       	ret

00001c3a <doFlashWriteTest>:
    1c3a:	cf 93       	push	r28
    1c3c:	df 93       	push	r29
    1c3e:	cd b7       	in	r28, 0x3d	; 61
    1c40:	de b7       	in	r29, 0x3e	; 62
    1c42:	c2 5d       	subi	r28, 0xD2	; 210
    1c44:	d1 09       	sbc	r29, r1
    1c46:	0f b6       	in	r0, 0x3f	; 63
    1c48:	f8 94       	cli
    1c4a:	de bf       	out	0x3e, r29	; 62
    1c4c:	0f be       	out	0x3f, r0	; 63
    1c4e:	cd bf       	out	0x3d, r28	; 61
    1c50:	84 e2       	ldi	r24, 0x24	; 36
    1c52:	98 e0       	ldi	r25, 0x08	; 8
    1c54:	98 87       	std	Y+8, r25	; 0x08
    1c56:	8f 83       	std	Y+7, r24	; 0x07
    1c58:	ce 01       	movw	r24, r28
    1c5a:	0b 96       	adiw	r24, 0x0b	; 11
    1c5c:	9a 87       	std	Y+10, r25	; 0x0a
    1c5e:	89 87       	std	Y+9, r24	; 0x09
    1c60:	19 82       	std	Y+1, r1	; 0x01
    1c62:	1a 82       	std	Y+2, r1	; 0x02
    1c64:	1b 82       	std	Y+3, r1	; 0x03
    1c66:	1c 82       	std	Y+4, r1	; 0x04
    1c68:	1d 82       	std	Y+5, r1	; 0x05
    1c6a:	4e c0       	rjmp	.+156    	; 0x1d08 <doFlashWriteTest+0xce>
    1c6c:	1e 82       	std	Y+6, r1	; 0x06
    1c6e:	24 c0       	rjmp	.+72     	; 0x1cb8 <doFlashWriteTest+0x7e>
    1c70:	8e 81       	ldd	r24, Y+6	; 0x06
    1c72:	28 2f       	mov	r18, r24
    1c74:	30 e0       	ldi	r19, 0x00	; 0
    1c76:	9e 81       	ldd	r25, Y+6	; 0x06
    1c78:	8d ec       	ldi	r24, 0xCD	; 205
    1c7a:	98 9f       	mul	r25, r24
    1c7c:	81 2d       	mov	r24, r1
    1c7e:	11 24       	eor	r1, r1
    1c80:	86 95       	lsr	r24
    1c82:	86 95       	lsr	r24
    1c84:	86 95       	lsr	r24
    1c86:	88 0f       	add	r24, r24
    1c88:	48 2f       	mov	r20, r24
    1c8a:	44 0f       	add	r20, r20
    1c8c:	44 0f       	add	r20, r20
    1c8e:	84 0f       	add	r24, r20
    1c90:	49 2f       	mov	r20, r25
    1c92:	48 1b       	sub	r20, r24
    1c94:	84 2f       	mov	r24, r20
    1c96:	88 2f       	mov	r24, r24
    1c98:	90 e0       	ldi	r25, 0x00	; 0
    1c9a:	4f 81       	ldd	r20, Y+7	; 0x07
    1c9c:	58 85       	ldd	r21, Y+8	; 0x08
    1c9e:	84 0f       	add	r24, r20
    1ca0:	95 1f       	adc	r25, r21
    1ca2:	fc 01       	movw	r30, r24
    1ca4:	40 81       	ld	r20, Z
    1ca6:	ce 01       	movw	r24, r28
    1ca8:	0b 96       	adiw	r24, 0x0b	; 11
    1caa:	82 0f       	add	r24, r18
    1cac:	93 1f       	adc	r25, r19
    1cae:	fc 01       	movw	r30, r24
    1cb0:	40 83       	st	Z, r20
    1cb2:	8e 81       	ldd	r24, Y+6	; 0x06
    1cb4:	8f 5f       	subi	r24, 0xFF	; 255
    1cb6:	8e 83       	std	Y+6, r24	; 0x06
    1cb8:	8e 81       	ldd	r24, Y+6	; 0x06
    1cba:	88 3c       	cpi	r24, 0xC8	; 200
    1cbc:	c8 f2       	brcs	.-78     	; 0x1c70 <doFlashWriteTest+0x36>
    1cbe:	49 85       	ldd	r20, Y+9	; 0x09
    1cc0:	5a 85       	ldd	r21, Y+10	; 0x0a
    1cc2:	89 81       	ldd	r24, Y+1	; 0x01
    1cc4:	9a 81       	ldd	r25, Y+2	; 0x02
    1cc6:	ab 81       	ldd	r26, Y+3	; 0x03
    1cc8:	bc 81       	ldd	r27, Y+4	; 0x04
    1cca:	28 ec       	ldi	r18, 0xC8	; 200
    1ccc:	bc 01       	movw	r22, r24
    1cce:	cd 01       	movw	r24, r26
    1cd0:	0e 94 d1 2f 	call	0x5fa2	; 0x5fa2 <spi_FlashWrite>
    1cd4:	88 3c       	cpi	r24, 0xC8	; 200
    1cd6:	49 f0       	breq	.+18     	; 0x1cea <doFlashWriteTest+0xb0>
    1cd8:	86 ee       	ldi	r24, 0xE6	; 230
    1cda:	91 e0       	ldi	r25, 0x01	; 1
    1cdc:	29 2f       	mov	r18, r25
    1cde:	2f 93       	push	r18
    1ce0:	8f 93       	push	r24
    1ce2:	0e 94 76 42 	call	0x84ec	; 0x84ec <printf_P>
    1ce6:	0f 90       	pop	r0
    1ce8:	0f 90       	pop	r0
    1cea:	89 81       	ldd	r24, Y+1	; 0x01
    1cec:	9a 81       	ldd	r25, Y+2	; 0x02
    1cee:	ab 81       	ldd	r26, Y+3	; 0x03
    1cf0:	bc 81       	ldd	r27, Y+4	; 0x04
    1cf2:	88 53       	subi	r24, 0x38	; 56
    1cf4:	9f 4f       	sbci	r25, 0xFF	; 255
    1cf6:	af 4f       	sbci	r26, 0xFF	; 255
    1cf8:	bf 4f       	sbci	r27, 0xFF	; 255
    1cfa:	89 83       	std	Y+1, r24	; 0x01
    1cfc:	9a 83       	std	Y+2, r25	; 0x02
    1cfe:	ab 83       	std	Y+3, r26	; 0x03
    1d00:	bc 83       	std	Y+4, r27	; 0x04
    1d02:	8d 81       	ldd	r24, Y+5	; 0x05
    1d04:	8f 5f       	subi	r24, 0xFF	; 255
    1d06:	8d 83       	std	Y+5, r24	; 0x05
    1d08:	8d 81       	ldd	r24, Y+5	; 0x05
    1d0a:	8a 30       	cpi	r24, 0x0A	; 10
    1d0c:	08 f4       	brcc	.+2      	; 0x1d10 <doFlashWriteTest+0xd6>
    1d0e:	ae cf       	rjmp	.-164    	; 0x1c6c <doFlashWriteTest+0x32>
    1d10:	00 00       	nop
    1d12:	ce 52       	subi	r28, 0x2E	; 46
    1d14:	df 4f       	sbci	r29, 0xFF	; 255
    1d16:	0f b6       	in	r0, 0x3f	; 63
    1d18:	f8 94       	cli
    1d1a:	de bf       	out	0x3e, r29	; 62
    1d1c:	0f be       	out	0x3f, r0	; 63
    1d1e:	cd bf       	out	0x3d, r28	; 61
    1d20:	df 91       	pop	r29
    1d22:	cf 91       	pop	r28
    1d24:	08 95       	ret

00001d26 <doFlashReadTest>:
    1d26:	cf 93       	push	r28
    1d28:	df 93       	push	r29
    1d2a:	cd b7       	in	r28, 0x3d	; 61
    1d2c:	de b7       	in	r29, 0x3e	; 62
    1d2e:	c1 5d       	subi	r28, 0xD1	; 209
    1d30:	d1 09       	sbc	r29, r1
    1d32:	0f b6       	in	r0, 0x3f	; 63
    1d34:	f8 94       	cli
    1d36:	de bf       	out	0x3e, r29	; 62
    1d38:	0f be       	out	0x3f, r0	; 63
    1d3a:	cd bf       	out	0x3d, r28	; 61
    1d3c:	ce 01       	movw	r24, r28
    1d3e:	09 96       	adiw	r24, 0x09	; 9
    1d40:	98 87       	std	Y+8, r25	; 0x08
    1d42:	8f 83       	std	Y+7, r24	; 0x07
    1d44:	19 82       	std	Y+1, r1	; 0x01
    1d46:	1a 82       	std	Y+2, r1	; 0x02
    1d48:	1b 82       	std	Y+3, r1	; 0x03
    1d4a:	1c 82       	std	Y+4, r1	; 0x04
    1d4c:	8f e2       	ldi	r24, 0x2F	; 47
    1d4e:	98 e0       	ldi	r25, 0x08	; 8
    1d50:	0e 94 a2 42 	call	0x8544	; 0x8544 <puts>
    1d54:	1d 82       	std	Y+5, r1	; 0x05
    1d56:	54 c0       	rjmp	.+168    	; 0x1e00 <doFlashReadTest+0xda>
    1d58:	1e 82       	std	Y+6, r1	; 0x06
    1d5a:	0d c0       	rjmp	.+26     	; 0x1d76 <doFlashReadTest+0x50>
    1d5c:	8e 81       	ldd	r24, Y+6	; 0x06
    1d5e:	88 2f       	mov	r24, r24
    1d60:	90 e0       	ldi	r25, 0x00	; 0
    1d62:	9e 01       	movw	r18, r28
    1d64:	27 5f       	subi	r18, 0xF7	; 247
    1d66:	3f 4f       	sbci	r19, 0xFF	; 255
    1d68:	82 0f       	add	r24, r18
    1d6a:	93 1f       	adc	r25, r19
    1d6c:	fc 01       	movw	r30, r24
    1d6e:	10 82       	st	Z, r1
    1d70:	8e 81       	ldd	r24, Y+6	; 0x06
    1d72:	8f 5f       	subi	r24, 0xFF	; 255
    1d74:	8e 83       	std	Y+6, r24	; 0x06
    1d76:	8e 81       	ldd	r24, Y+6	; 0x06
    1d78:	88 3c       	cpi	r24, 0xC8	; 200
    1d7a:	80 f3       	brcs	.-32     	; 0x1d5c <doFlashReadTest+0x36>
    1d7c:	8d 81       	ldd	r24, Y+5	; 0x05
    1d7e:	88 2f       	mov	r24, r24
    1d80:	90 e0       	ldi	r25, 0x00	; 0
    1d82:	29 2f       	mov	r18, r25
    1d84:	2f 93       	push	r18
    1d86:	8f 93       	push	r24
    1d88:	83 e4       	ldi	r24, 0x43	; 67
    1d8a:	98 e0       	ldi	r25, 0x08	; 8
    1d8c:	89 2f       	mov	r24, r25
    1d8e:	8f 93       	push	r24
    1d90:	83 e4       	ldi	r24, 0x43	; 67
    1d92:	98 e0       	ldi	r25, 0x08	; 8
    1d94:	8f 93       	push	r24
    1d96:	0e 94 63 42 	call	0x84c6	; 0x84c6 <printf>
    1d9a:	0f 90       	pop	r0
    1d9c:	0f 90       	pop	r0
    1d9e:	0f 90       	pop	r0
    1da0:	0f 90       	pop	r0
    1da2:	4f 81       	ldd	r20, Y+7	; 0x07
    1da4:	58 85       	ldd	r21, Y+8	; 0x08
    1da6:	89 81       	ldd	r24, Y+1	; 0x01
    1da8:	9a 81       	ldd	r25, Y+2	; 0x02
    1daa:	ab 81       	ldd	r26, Y+3	; 0x03
    1dac:	bc 81       	ldd	r27, Y+4	; 0x04
    1dae:	28 ec       	ldi	r18, 0xC8	; 200
    1db0:	bc 01       	movw	r22, r24
    1db2:	cd 01       	movw	r24, r26
    1db4:	0e 94 28 31 	call	0x6250	; 0x6250 <spi_FlashRead>
    1db8:	88 3c       	cpi	r24, 0xC8	; 200
    1dba:	51 f0       	breq	.+20     	; 0x1dd0 <doFlashReadTest+0xaa>
    1dbc:	8a ef       	ldi	r24, 0xFA	; 250
    1dbe:	91 e0       	ldi	r25, 0x01	; 1
    1dc0:	29 2f       	mov	r18, r25
    1dc2:	2f 93       	push	r18
    1dc4:	8f 93       	push	r24
    1dc6:	0e 94 76 42 	call	0x84ec	; 0x84ec <printf_P>
    1dca:	0f 90       	pop	r0
    1dcc:	0f 90       	pop	r0
    1dce:	09 c0       	rjmp	.+18     	; 0x1de2 <doFlashReadTest+0xbc>
    1dd0:	ce 01       	movw	r24, r28
    1dd2:	8f 52       	subi	r24, 0x2F	; 47
    1dd4:	9f 4f       	sbci	r25, 0xFF	; 255
    1dd6:	fc 01       	movw	r30, r24
    1dd8:	10 82       	st	Z, r1
    1dda:	ce 01       	movw	r24, r28
    1ddc:	09 96       	adiw	r24, 0x09	; 9
    1dde:	0e 94 a2 42 	call	0x8544	; 0x8544 <puts>
    1de2:	89 81       	ldd	r24, Y+1	; 0x01
    1de4:	9a 81       	ldd	r25, Y+2	; 0x02
    1de6:	ab 81       	ldd	r26, Y+3	; 0x03
    1de8:	bc 81       	ldd	r27, Y+4	; 0x04
    1dea:	88 53       	subi	r24, 0x38	; 56
    1dec:	9f 4f       	sbci	r25, 0xFF	; 255
    1dee:	af 4f       	sbci	r26, 0xFF	; 255
    1df0:	bf 4f       	sbci	r27, 0xFF	; 255
    1df2:	89 83       	std	Y+1, r24	; 0x01
    1df4:	9a 83       	std	Y+2, r25	; 0x02
    1df6:	ab 83       	std	Y+3, r26	; 0x03
    1df8:	bc 83       	std	Y+4, r27	; 0x04
    1dfa:	8d 81       	ldd	r24, Y+5	; 0x05
    1dfc:	8f 5f       	subi	r24, 0xFF	; 255
    1dfe:	8d 83       	std	Y+5, r24	; 0x05
    1e00:	8d 81       	ldd	r24, Y+5	; 0x05
    1e02:	8a 30       	cpi	r24, 0x0A	; 10
    1e04:	08 f4       	brcc	.+2      	; 0x1e08 <doFlashReadTest+0xe2>
    1e06:	a8 cf       	rjmp	.-176    	; 0x1d58 <doFlashReadTest+0x32>
    1e08:	00 00       	nop
    1e0a:	cf 52       	subi	r28, 0x2F	; 47
    1e0c:	df 4f       	sbci	r29, 0xFF	; 255
    1e0e:	0f b6       	in	r0, 0x3f	; 63
    1e10:	f8 94       	cli
    1e12:	de bf       	out	0x3e, r29	; 62
    1e14:	0f be       	out	0x3f, r0	; 63
    1e16:	cd bf       	out	0x3d, r28	; 61
    1e18:	df 91       	pop	r29
    1e1a:	cf 91       	pop	r28
    1e1c:	08 95       	ret

00001e1e <doFlashEraseTest>:
    1e1e:	cf 93       	push	r28
    1e20:	df 93       	push	r29
    1e22:	cd b7       	in	r28, 0x3d	; 61
    1e24:	de b7       	in	r29, 0x3e	; 62
    1e26:	0e 94 3c 32 	call	0x6478	; 0x6478 <spi_FlashEraseAllBlocks>
    1e2a:	00 00       	nop
    1e2c:	df 91       	pop	r29
    1e2e:	cf 91       	pop	r28
    1e30:	08 95       	ret

00001e32 <doFlashTestReadAll>:
    1e32:	0f 93       	push	r16
    1e34:	cf 93       	push	r28
    1e36:	df 93       	push	r29
    1e38:	cd b7       	in	r28, 0x3d	; 61
    1e3a:	de b7       	in	r29, 0x3e	; 62
    1e3c:	6a 97       	sbiw	r28, 0x1a	; 26
    1e3e:	0f b6       	in	r0, 0x3f	; 63
    1e40:	f8 94       	cli
    1e42:	de bf       	out	0x3e, r29	; 62
    1e44:	0f be       	out	0x3f, r0	; 63
    1e46:	cd bf       	out	0x3d, r28	; 61
    1e48:	1a 82       	std	Y+2, r1	; 0x02
    1e4a:	19 82       	std	Y+1, r1	; 0x01
    1e4c:	c8 c0       	rjmp	.+400    	; 0x1fde <doFlashTestReadAll+0x1ac>
    1e4e:	89 81       	ldd	r24, Y+1	; 0x01
    1e50:	9a 81       	ldd	r25, Y+2	; 0x02
    1e52:	00 24       	eor	r0, r0
    1e54:	96 95       	lsr	r25
    1e56:	87 95       	ror	r24
    1e58:	07 94       	ror	r0
    1e5a:	96 95       	lsr	r25
    1e5c:	87 95       	ror	r24
    1e5e:	07 94       	ror	r0
    1e60:	98 2f       	mov	r25, r24
    1e62:	80 2d       	mov	r24, r0
    1e64:	cc 01       	movw	r24, r24
    1e66:	a0 e0       	ldi	r26, 0x00	; 0
    1e68:	b0 e0       	ldi	r27, 0x00	; 0
    1e6a:	8b 83       	std	Y+3, r24	; 0x03
    1e6c:	9c 83       	std	Y+4, r25	; 0x04
    1e6e:	ad 83       	std	Y+5, r26	; 0x05
    1e70:	be 83       	std	Y+6, r27	; 0x06
    1e72:	89 81       	ldd	r24, Y+1	; 0x01
    1e74:	9a 81       	ldd	r25, Y+2	; 0x02
    1e76:	00 24       	eor	r0, r0
    1e78:	96 95       	lsr	r25
    1e7a:	87 95       	ror	r24
    1e7c:	07 94       	ror	r0
    1e7e:	96 95       	lsr	r25
    1e80:	87 95       	ror	r24
    1e82:	07 94       	ror	r0
    1e84:	98 2f       	mov	r25, r24
    1e86:	80 2d       	mov	r24, r0
    1e88:	cc 01       	movw	r24, r24
    1e8a:	a0 e0       	ldi	r26, 0x00	; 0
    1e8c:	b0 e0       	ldi	r27, 0x00	; 0
    1e8e:	8b 83       	std	Y+3, r24	; 0x03
    1e90:	9c 83       	std	Y+4, r25	; 0x04
    1e92:	ad 83       	std	Y+5, r26	; 0x05
    1e94:	be 83       	std	Y+6, r27	; 0x06
    1e96:	85 c0       	rjmp	.+266    	; 0x1fa2 <doFlashTestReadAll+0x170>
    1e98:	8e 81       	ldd	r24, Y+6	; 0x06
    1e9a:	8f 93       	push	r24
    1e9c:	8d 81       	ldd	r24, Y+5	; 0x05
    1e9e:	8f 93       	push	r24
    1ea0:	8c 81       	ldd	r24, Y+4	; 0x04
    1ea2:	8f 93       	push	r24
    1ea4:	8b 81       	ldd	r24, Y+3	; 0x03
    1ea6:	8f 93       	push	r24
    1ea8:	8a 81       	ldd	r24, Y+2	; 0x02
    1eaa:	8f 93       	push	r24
    1eac:	89 81       	ldd	r24, Y+1	; 0x01
    1eae:	8f 93       	push	r24
    1eb0:	8f e4       	ldi	r24, 0x4F	; 79
    1eb2:	98 e0       	ldi	r25, 0x08	; 8
    1eb4:	89 2f       	mov	r24, r25
    1eb6:	8f 93       	push	r24
    1eb8:	8f e4       	ldi	r24, 0x4F	; 79
    1eba:	98 e0       	ldi	r25, 0x08	; 8
    1ebc:	8f 93       	push	r24
    1ebe:	0e 94 63 42 	call	0x84c6	; 0x84c6 <printf>
    1ec2:	8d b7       	in	r24, 0x3d	; 61
    1ec4:	9e b7       	in	r25, 0x3e	; 62
    1ec6:	08 96       	adiw	r24, 0x08	; 8
    1ec8:	0f b6       	in	r0, 0x3f	; 63
    1eca:	f8 94       	cli
    1ecc:	de bf       	out	0x3e, r29	; 62
    1ece:	0f be       	out	0x3f, r0	; 63
    1ed0:	cd bf       	out	0x3d, r28	; 61
    1ed2:	18 86       	std	Y+8, r1	; 0x08
    1ed4:	1f 82       	std	Y+7, r1	; 0x07
    1ed6:	54 c0       	rjmp	.+168    	; 0x1f80 <doFlashTestReadAll+0x14e>
    1ed8:	9e 01       	movw	r18, r28
    1eda:	25 5f       	subi	r18, 0xF5	; 245
    1edc:	3f 4f       	sbci	r19, 0xFF	; 255
    1ede:	4f 81       	ldd	r20, Y+7	; 0x07
    1ee0:	58 85       	ldd	r21, Y+8	; 0x08
    1ee2:	8b 81       	ldd	r24, Y+3	; 0x03
    1ee4:	9c 81       	ldd	r25, Y+4	; 0x04
    1ee6:	ad 81       	ldd	r26, Y+5	; 0x05
    1ee8:	be 81       	ldd	r27, Y+6	; 0x06
    1eea:	00 e1       	ldi	r16, 0x10	; 16
    1eec:	bc 01       	movw	r22, r24
    1eee:	cd 01       	movw	r24, r26
    1ef0:	0e 94 a3 30 	call	0x6146	; 0x6146 <spi_FlashReadFromPage>
    1ef4:	80 31       	cpi	r24, 0x10	; 16
    1ef6:	91 f0       	breq	.+36     	; 0x1f1c <doFlashTestReadAll+0xea>
    1ef8:	88 85       	ldd	r24, Y+8	; 0x08
    1efa:	8f 93       	push	r24
    1efc:	8f 81       	ldd	r24, Y+7	; 0x07
    1efe:	8f 93       	push	r24
    1f00:	86 e6       	ldi	r24, 0x66	; 102
    1f02:	98 e0       	ldi	r25, 0x08	; 8
    1f04:	89 2f       	mov	r24, r25
    1f06:	8f 93       	push	r24
    1f08:	86 e6       	ldi	r24, 0x66	; 102
    1f0a:	98 e0       	ldi	r25, 0x08	; 8
    1f0c:	8f 93       	push	r24
    1f0e:	0e 94 63 42 	call	0x84c6	; 0x84c6 <printf>
    1f12:	0f 90       	pop	r0
    1f14:	0f 90       	pop	r0
    1f16:	0f 90       	pop	r0
    1f18:	0f 90       	pop	r0
    1f1a:	2d c0       	rjmp	.+90     	; 0x1f76 <doFlashTestReadAll+0x144>
    1f1c:	1a 86       	std	Y+10, r1	; 0x0a
    1f1e:	19 86       	std	Y+9, r1	; 0x09
    1f20:	26 c0       	rjmp	.+76     	; 0x1f6e <doFlashTestReadAll+0x13c>
    1f22:	9e 01       	movw	r18, r28
    1f24:	25 5f       	subi	r18, 0xF5	; 245
    1f26:	3f 4f       	sbci	r19, 0xFF	; 255
    1f28:	89 85       	ldd	r24, Y+9	; 0x09
    1f2a:	9a 85       	ldd	r25, Y+10	; 0x0a
    1f2c:	82 0f       	add	r24, r18
    1f2e:	93 1f       	adc	r25, r19
    1f30:	fc 01       	movw	r30, r24
    1f32:	80 81       	ld	r24, Z
    1f34:	88 23       	and	r24, r24
    1f36:	b1 f4       	brne	.+44     	; 0x1f64 <doFlashTestReadAll+0x132>
    1f38:	29 85       	ldd	r18, Y+9	; 0x09
    1f3a:	3a 85       	ldd	r19, Y+10	; 0x0a
    1f3c:	8f 81       	ldd	r24, Y+7	; 0x07
    1f3e:	98 85       	ldd	r25, Y+8	; 0x08
    1f40:	82 0f       	add	r24, r18
    1f42:	93 1f       	adc	r25, r19
    1f44:	29 2f       	mov	r18, r25
    1f46:	2f 93       	push	r18
    1f48:	8f 93       	push	r24
    1f4a:	8a e7       	ldi	r24, 0x7A	; 122
    1f4c:	98 e0       	ldi	r25, 0x08	; 8
    1f4e:	89 2f       	mov	r24, r25
    1f50:	8f 93       	push	r24
    1f52:	8a e7       	ldi	r24, 0x7A	; 122
    1f54:	98 e0       	ldi	r25, 0x08	; 8
    1f56:	8f 93       	push	r24
    1f58:	0e 94 63 42 	call	0x84c6	; 0x84c6 <printf>
    1f5c:	0f 90       	pop	r0
    1f5e:	0f 90       	pop	r0
    1f60:	0f 90       	pop	r0
    1f62:	0f 90       	pop	r0
    1f64:	89 85       	ldd	r24, Y+9	; 0x09
    1f66:	9a 85       	ldd	r25, Y+10	; 0x0a
    1f68:	01 96       	adiw	r24, 0x01	; 1
    1f6a:	9a 87       	std	Y+10, r25	; 0x0a
    1f6c:	89 87       	std	Y+9, r24	; 0x09
    1f6e:	89 85       	ldd	r24, Y+9	; 0x09
    1f70:	9a 85       	ldd	r25, Y+10	; 0x0a
    1f72:	40 97       	sbiw	r24, 0x10	; 16
    1f74:	b4 f2       	brlt	.-84     	; 0x1f22 <doFlashTestReadAll+0xf0>
    1f76:	8f 81       	ldd	r24, Y+7	; 0x07
    1f78:	98 85       	ldd	r25, Y+8	; 0x08
    1f7a:	40 96       	adiw	r24, 0x10	; 16
    1f7c:	98 87       	std	Y+8, r25	; 0x08
    1f7e:	8f 83       	std	Y+7, r24	; 0x07
    1f80:	8f 81       	ldd	r24, Y+7	; 0x07
    1f82:	98 85       	ldd	r25, Y+8	; 0x08
    1f84:	80 38       	cpi	r24, 0x80	; 128
    1f86:	98 40       	sbci	r25, 0x08	; 8
    1f88:	08 f4       	brcc	.+2      	; 0x1f8c <doFlashTestReadAll+0x15a>
    1f8a:	a6 cf       	rjmp	.-180    	; 0x1ed8 <doFlashTestReadAll+0xa6>
    1f8c:	8b 81       	ldd	r24, Y+3	; 0x03
    1f8e:	9c 81       	ldd	r25, Y+4	; 0x04
    1f90:	ad 81       	ldd	r26, Y+5	; 0x05
    1f92:	be 81       	ldd	r27, Y+6	; 0x06
    1f94:	01 96       	adiw	r24, 0x01	; 1
    1f96:	a1 1d       	adc	r26, r1
    1f98:	b1 1d       	adc	r27, r1
    1f9a:	8b 83       	std	Y+3, r24	; 0x03
    1f9c:	9c 83       	std	Y+4, r25	; 0x04
    1f9e:	ad 83       	std	Y+5, r26	; 0x05
    1fa0:	be 83       	std	Y+6, r27	; 0x06
    1fa2:	89 81       	ldd	r24, Y+1	; 0x01
    1fa4:	9a 81       	ldd	r25, Y+2	; 0x02
    1fa6:	01 96       	adiw	r24, 0x01	; 1
    1fa8:	00 24       	eor	r0, r0
    1faa:	96 95       	lsr	r25
    1fac:	87 95       	ror	r24
    1fae:	07 94       	ror	r0
    1fb0:	96 95       	lsr	r25
    1fb2:	87 95       	ror	r24
    1fb4:	07 94       	ror	r0
    1fb6:	98 2f       	mov	r25, r24
    1fb8:	80 2d       	mov	r24, r0
    1fba:	9c 01       	movw	r18, r24
    1fbc:	40 e0       	ldi	r20, 0x00	; 0
    1fbe:	50 e0       	ldi	r21, 0x00	; 0
    1fc0:	8b 81       	ldd	r24, Y+3	; 0x03
    1fc2:	9c 81       	ldd	r25, Y+4	; 0x04
    1fc4:	ad 81       	ldd	r26, Y+5	; 0x05
    1fc6:	be 81       	ldd	r27, Y+6	; 0x06
    1fc8:	82 17       	cp	r24, r18
    1fca:	93 07       	cpc	r25, r19
    1fcc:	a4 07       	cpc	r26, r20
    1fce:	b5 07       	cpc	r27, r21
    1fd0:	08 f4       	brcc	.+2      	; 0x1fd4 <doFlashTestReadAll+0x1a2>
    1fd2:	62 cf       	rjmp	.-316    	; 0x1e98 <doFlashTestReadAll+0x66>
    1fd4:	89 81       	ldd	r24, Y+1	; 0x01
    1fd6:	9a 81       	ldd	r25, Y+2	; 0x02
    1fd8:	01 96       	adiw	r24, 0x01	; 1
    1fda:	9a 83       	std	Y+2, r25	; 0x02
    1fdc:	89 83       	std	Y+1, r24	; 0x01
    1fde:	89 81       	ldd	r24, Y+1	; 0x01
    1fe0:	9a 81       	ldd	r25, Y+2	; 0x02
    1fe2:	81 15       	cp	r24, r1
    1fe4:	98 40       	sbci	r25, 0x08	; 8
    1fe6:	08 f4       	brcc	.+2      	; 0x1fea <doFlashTestReadAll+0x1b8>
    1fe8:	32 cf       	rjmp	.-412    	; 0x1e4e <doFlashTestReadAll+0x1c>
    1fea:	00 00       	nop
    1fec:	6a 96       	adiw	r28, 0x1a	; 26
    1fee:	0f b6       	in	r0, 0x3f	; 63
    1ff0:	f8 94       	cli
    1ff2:	de bf       	out	0x3e, r29	; 62
    1ff4:	0f be       	out	0x3f, r0	; 63
    1ff6:	cd bf       	out	0x3d, r28	; 61
    1ff8:	df 91       	pop	r29
    1ffa:	cf 91       	pop	r28
    1ffc:	0f 91       	pop	r16
    1ffe:	08 95       	ret

00002000 <testRandomWR>:

void testRandomWR(void)
{
    2000:	0f 93       	push	r16
    2002:	1f 93       	push	r17
    2004:	cf 93       	push	r28
    2006:	df 93       	push	r29
    2008:	cd b7       	in	r28, 0x3d	; 61
    200a:	de b7       	in	r29, 0x3e	; 62
    200c:	c0 55       	subi	r28, 0x50	; 80
    200e:	d1 09       	sbc	r29, r1
    2010:	0f b6       	in	r0, 0x3f	; 63
    2012:	f8 94       	cli
    2014:	de bf       	out	0x3e, r29	; 62
    2016:	0f be       	out	0x3f, r0	; 63
    2018:	cd bf       	out	0x3d, r28	; 61
	// test write of records of various lengths, then readback of fixed-length records
	// checks integrity of write using different writing and reading methods
	uint8_t buff[MAJORGENERAL_LINE_MAX];
	uint16_t totalChars = 0;
    201a:	1a 82       	std	Y+2, r1	; 0x02
    201c:	19 82       	std	Y+1, r1	; 0x01
	uint16_t block = 5;
    201e:	85 e0       	ldi	r24, 0x05	; 5
    2020:	90 e0       	ldi	r25, 0x00	; 0
    2022:	9c 87       	std	Y+12, r25	; 0x0c
    2024:	8b 87       	std	Y+11, r24	; 0x0b
	uint32_t address;
	uint32_t paddress;
	uint16_t baddress;

	// write the song to the selected block line by line
	address = block * (uint32_t) FLASH_PAGES_PER_BLOCK * (uint32_t) FLASH_PAGE_MAX_BYTES;
    2026:	8b 85       	ldd	r24, Y+11	; 0x0b
    2028:	9c 85       	ldd	r25, Y+12	; 0x0c
    202a:	cc 01       	movw	r24, r24
    202c:	a0 e0       	ldi	r26, 0x00	; 0
    202e:	b0 e0       	ldi	r27, 0x00	; 0
    2030:	07 2e       	mov	r0, r23
    2032:	71 e1       	ldi	r23, 0x11	; 17
    2034:	88 0f       	add	r24, r24
    2036:	99 1f       	adc	r25, r25
    2038:	aa 1f       	adc	r26, r26
    203a:	bb 1f       	adc	r27, r27
    203c:	7a 95       	dec	r23
    203e:	d1 f7       	brne	.-12     	; 0x2034 <testRandomWR+0x34>
    2040:	70 2d       	mov	r23, r0
    2042:	8b 83       	std	Y+3, r24	; 0x03
    2044:	9c 83       	std	Y+4, r25	; 0x04
    2046:	ad 83       	std	Y+5, r26	; 0x05
    2048:	be 83       	std	Y+6, r27	; 0x06
	for (int i = 0; i < (60); i++)
    204a:	18 86       	std	Y+8, r1	; 0x08
    204c:	1f 82       	std	Y+7, r1	; 0x07
    204e:	61 c0       	rjmp	.+194    	; 0x2112 <testRandomWR+0x112>
	{
		majorGeneral_get_line(i, (char *) buff);
    2050:	2f 81       	ldd	r18, Y+7	; 0x07
    2052:	ce 01       	movw	r24, r28
    2054:	0d 96       	adiw	r24, 0x0d	; 13
    2056:	bc 01       	movw	r22, r24
    2058:	82 2f       	mov	r24, r18
    205a:	0e 94 ec 38 	call	0x71d8	; 0x71d8 <majorGeneral_get_line>
		if (spi_FlashWrite(address, buff,  strlen((char *) buff)) == strlen((char *) buff))
    205e:	ce 01       	movw	r24, r28
    2060:	0d 96       	adiw	r24, 0x0d	; 13
    2062:	0e 94 0b 42 	call	0x8416	; 0x8416 <strlen>
    2066:	28 2f       	mov	r18, r24
    2068:	ae 01       	movw	r20, r28
    206a:	43 5f       	subi	r20, 0xF3	; 243
    206c:	5f 4f       	sbci	r21, 0xFF	; 255
    206e:	8b 81       	ldd	r24, Y+3	; 0x03
    2070:	9c 81       	ldd	r25, Y+4	; 0x04
    2072:	ad 81       	ldd	r26, Y+5	; 0x05
    2074:	be 81       	ldd	r27, Y+6	; 0x06
    2076:	bc 01       	movw	r22, r24
    2078:	cd 01       	movw	r24, r26
    207a:	0e 94 d1 2f 	call	0x5fa2	; 0x5fa2 <spi_FlashWrite>
    207e:	08 2f       	mov	r16, r24
    2080:	10 e0       	ldi	r17, 0x00	; 0
    2082:	ce 01       	movw	r24, r28
    2084:	0d 96       	adiw	r24, 0x0d	; 13
    2086:	0e 94 0b 42 	call	0x8416	; 0x8416 <strlen>
    208a:	08 17       	cp	r16, r24
    208c:	19 07       	cpc	r17, r25
    208e:	f9 f4       	brne	.+62     	; 0x20ce <testRandomWR+0xce>
		{
			totalChars += strlen((char *) buff);
    2090:	ce 01       	movw	r24, r28
    2092:	0d 96       	adiw	r24, 0x0d	; 13
    2094:	0e 94 0b 42 	call	0x8416	; 0x8416 <strlen>
    2098:	9c 01       	movw	r18, r24
    209a:	89 81       	ldd	r24, Y+1	; 0x01
    209c:	9a 81       	ldd	r25, Y+2	; 0x02
    209e:	82 0f       	add	r24, r18
    20a0:	93 1f       	adc	r25, r19
    20a2:	9a 83       	std	Y+2, r25	; 0x02
    20a4:	89 83       	std	Y+1, r24	; 0x01
			address += strlen((char *) buff);
    20a6:	ce 01       	movw	r24, r28
    20a8:	0d 96       	adiw	r24, 0x0d	; 13
    20aa:	0e 94 0b 42 	call	0x8416	; 0x8416 <strlen>
    20ae:	cc 01       	movw	r24, r24
    20b0:	a0 e0       	ldi	r26, 0x00	; 0
    20b2:	b0 e0       	ldi	r27, 0x00	; 0
    20b4:	2b 81       	ldd	r18, Y+3	; 0x03
    20b6:	3c 81       	ldd	r19, Y+4	; 0x04
    20b8:	4d 81       	ldd	r20, Y+5	; 0x05
    20ba:	5e 81       	ldd	r21, Y+6	; 0x06
    20bc:	82 0f       	add	r24, r18
    20be:	93 1f       	adc	r25, r19
    20c0:	a4 1f       	adc	r26, r20
    20c2:	b5 1f       	adc	r27, r21
    20c4:	8b 83       	std	Y+3, r24	; 0x03
    20c6:	9c 83       	std	Y+4, r25	; 0x04
    20c8:	ad 83       	std	Y+5, r26	; 0x05
    20ca:	be 83       	std	Y+6, r27	; 0x06
    20cc:	1d c0       	rjmp	.+58     	; 0x2108 <testRandomWR+0x108>
		}
		else
		{
			printf("Error writing to addr 0x%08lx, line %d\n",address, i);
    20ce:	88 85       	ldd	r24, Y+8	; 0x08
    20d0:	8f 93       	push	r24
    20d2:	8f 81       	ldd	r24, Y+7	; 0x07
    20d4:	8f 93       	push	r24
    20d6:	8e 81       	ldd	r24, Y+6	; 0x06
    20d8:	8f 93       	push	r24
    20da:	8d 81       	ldd	r24, Y+5	; 0x05
    20dc:	8f 93       	push	r24
    20de:	8c 81       	ldd	r24, Y+4	; 0x04
    20e0:	8f 93       	push	r24
    20e2:	8b 81       	ldd	r24, Y+3	; 0x03
    20e4:	8f 93       	push	r24
    20e6:	81 e9       	ldi	r24, 0x91	; 145
    20e8:	98 e0       	ldi	r25, 0x08	; 8
    20ea:	89 2f       	mov	r24, r25
    20ec:	8f 93       	push	r24
    20ee:	81 e9       	ldi	r24, 0x91	; 145
    20f0:	98 e0       	ldi	r25, 0x08	; 8
    20f2:	8f 93       	push	r24
    20f4:	0e 94 63 42 	call	0x84c6	; 0x84c6 <printf>
    20f8:	8d b7       	in	r24, 0x3d	; 61
    20fa:	9e b7       	in	r25, 0x3e	; 62
    20fc:	08 96       	adiw	r24, 0x08	; 8
    20fe:	0f b6       	in	r0, 0x3f	; 63
    2100:	f8 94       	cli
    2102:	de bf       	out	0x3e, r29	; 62
    2104:	0f be       	out	0x3f, r0	; 63
    2106:	cd bf       	out	0x3d, r28	; 61
	uint32_t paddress;
	uint16_t baddress;

	// write the song to the selected block line by line
	address = block * (uint32_t) FLASH_PAGES_PER_BLOCK * (uint32_t) FLASH_PAGE_MAX_BYTES;
	for (int i = 0; i < (60); i++)
    2108:	8f 81       	ldd	r24, Y+7	; 0x07
    210a:	98 85       	ldd	r25, Y+8	; 0x08
    210c:	01 96       	adiw	r24, 0x01	; 1
    210e:	98 87       	std	Y+8, r25	; 0x08
    2110:	8f 83       	std	Y+7, r24	; 0x07
    2112:	8f 81       	ldd	r24, Y+7	; 0x07
    2114:	98 85       	ldd	r25, Y+8	; 0x08
    2116:	cc 97       	sbiw	r24, 0x3c	; 60
    2118:	0c f4       	brge	.+2      	; 0x211c <testRandomWR+0x11c>
    211a:	9a cf       	rjmp	.-204    	; 0x2050 <testRandomWR+0x50>
			printf("Error writing to addr 0x%08lx, line %d\n",address, i);
		}
	}
	
	// read back and print the song 16 bytes at a time
	address = block * (uint32_t) FLASH_PAGES_PER_BLOCK * (uint32_t) FLASH_PAGE_MAX_BYTES;
    211c:	8b 85       	ldd	r24, Y+11	; 0x0b
    211e:	9c 85       	ldd	r25, Y+12	; 0x0c
    2120:	cc 01       	movw	r24, r24
    2122:	a0 e0       	ldi	r26, 0x00	; 0
    2124:	b0 e0       	ldi	r27, 0x00	; 0
    2126:	07 2e       	mov	r0, r23
    2128:	71 e1       	ldi	r23, 0x11	; 17
    212a:	88 0f       	add	r24, r24
    212c:	99 1f       	adc	r25, r25
    212e:	aa 1f       	adc	r26, r26
    2130:	bb 1f       	adc	r27, r27
    2132:	7a 95       	dec	r23
    2134:	d1 f7       	brne	.-12     	; 0x212a <testRandomWR+0x12a>
    2136:	70 2d       	mov	r23, r0
    2138:	8b 83       	std	Y+3, r24	; 0x03
    213a:	9c 83       	std	Y+4, r25	; 0x04
    213c:	ad 83       	std	Y+5, r26	; 0x05
    213e:	be 83       	std	Y+6, r27	; 0x06
	for (int j = 0; j < totalChars; j += 16)
    2140:	1a 86       	std	Y+10, r1	; 0x0a
    2142:	19 86       	std	Y+9, r1	; 0x09
    2144:	73 c0       	rjmp	.+230    	; 0x222c <__stack+0x2d>
	{
		spi_FlashMapAddress(address, &paddress, &baddress);
    2146:	9e 01       	movw	r18, r28
    2148:	21 5b       	subi	r18, 0xB1	; 177
    214a:	3f 4f       	sbci	r19, 0xFF	; 255
    214c:	ae 01       	movw	r20, r28
    214e:	45 5b       	subi	r20, 0xB5	; 181
    2150:	5f 4f       	sbci	r21, 0xFF	; 255
    2152:	8b 81       	ldd	r24, Y+3	; 0x03
    2154:	9c 81       	ldd	r25, Y+4	; 0x04
    2156:	ad 81       	ldd	r26, Y+5	; 0x05
    2158:	be 81       	ldd	r27, Y+6	; 0x06
    215a:	bc 01       	movw	r22, r24
    215c:	cd 01       	movw	r24, r26
    215e:	0e 94 3d 2f 	call	0x5e7a	; 0x5e7a <spi_FlashMapAddress>
		if (spi_FlashReadFromPage(paddress, baddress, buff, 16) == 16)
    2162:	ce 01       	movw	r24, r28
    2164:	81 5b       	subi	r24, 0xB1	; 177
    2166:	9f 4f       	sbci	r25, 0xFF	; 255
    2168:	fc 01       	movw	r30, r24
    216a:	40 81       	ld	r20, Z
    216c:	51 81       	ldd	r21, Z+1	; 0x01
    216e:	ce 01       	movw	r24, r28
    2170:	85 5b       	subi	r24, 0xB5	; 181
    2172:	9f 4f       	sbci	r25, 0xFF	; 255
    2174:	fc 01       	movw	r30, r24
    2176:	80 81       	ld	r24, Z
    2178:	91 81       	ldd	r25, Z+1	; 0x01
    217a:	a2 81       	ldd	r26, Z+2	; 0x02
    217c:	b3 81       	ldd	r27, Z+3	; 0x03
    217e:	9e 01       	movw	r18, r28
    2180:	23 5f       	subi	r18, 0xF3	; 243
    2182:	3f 4f       	sbci	r19, 0xFF	; 255
    2184:	00 e1       	ldi	r16, 0x10	; 16
    2186:	bc 01       	movw	r22, r24
    2188:	cd 01       	movw	r24, r26
    218a:	0e 94 a3 30 	call	0x6146	; 0x6146 <spi_FlashReadFromPage>
    218e:	80 31       	cpi	r24, 0x10	; 16
    2190:	f9 f4       	brne	.+62     	; 0x21d0 <testRandomWR+0x1d0>
		{
			buff[16] = 0;
    2192:	1d 8e       	std	Y+29, r1	; 0x1d
			printf("%s",buff);
    2194:	ce 01       	movw	r24, r28
    2196:	0d 96       	adiw	r24, 0x0d	; 13
    2198:	29 2f       	mov	r18, r25
    219a:	2f 93       	push	r18
    219c:	8f 93       	push	r24
    219e:	8e e8       	ldi	r24, 0x8E	; 142
    21a0:	98 e0       	ldi	r25, 0x08	; 8
    21a2:	89 2f       	mov	r24, r25
    21a4:	8f 93       	push	r24
    21a6:	8e e8       	ldi	r24, 0x8E	; 142
    21a8:	98 e0       	ldi	r25, 0x08	; 8
    21aa:	8f 93       	push	r24
    21ac:	0e 94 63 42 	call	0x84c6	; 0x84c6 <printf>
    21b0:	0f 90       	pop	r0
    21b2:	0f 90       	pop	r0
    21b4:	0f 90       	pop	r0
    21b6:	0f 90       	pop	r0
			address += 16;
    21b8:	8b 81       	ldd	r24, Y+3	; 0x03
    21ba:	9c 81       	ldd	r25, Y+4	; 0x04
    21bc:	ad 81       	ldd	r26, Y+5	; 0x05
    21be:	be 81       	ldd	r27, Y+6	; 0x06
    21c0:	40 96       	adiw	r24, 0x10	; 16
    21c2:	a1 1d       	adc	r26, r1
    21c4:	b1 1d       	adc	r27, r1
    21c6:	8b 83       	std	Y+3, r24	; 0x03
    21c8:	9c 83       	std	Y+4, r25	; 0x04
    21ca:	ad 83       	std	Y+5, r26	; 0x05
    21cc:	be 83       	std	Y+6, r27	; 0x06
    21ce:	29 c0       	rjmp	.+82     	; 0x2222 <__stack+0x23>
		}
		else
		{
			printf("\nread failure at page 0x%08lx, baddr 0x%04x\n", paddress, baddress); 
    21d0:	ce 01       	movw	r24, r28
    21d2:	81 5b       	subi	r24, 0xB1	; 177
    21d4:	9f 4f       	sbci	r25, 0xFF	; 255
    21d6:	fc 01       	movw	r30, r24
    21d8:	20 81       	ld	r18, Z
    21da:	31 81       	ldd	r19, Z+1	; 0x01
    21dc:	ce 01       	movw	r24, r28
    21de:	85 5b       	subi	r24, 0xB5	; 181
    21e0:	9f 4f       	sbci	r25, 0xFF	; 255
    21e2:	fc 01       	movw	r30, r24
    21e4:	80 81       	ld	r24, Z
    21e6:	91 81       	ldd	r25, Z+1	; 0x01
    21e8:	a2 81       	ldd	r26, Z+2	; 0x02
    21ea:	b3 81       	ldd	r27, Z+3	; 0x03
    21ec:	43 2f       	mov	r20, r19
    21ee:	4f 93       	push	r20
    21f0:	2f 93       	push	r18
    21f2:	2b 2f       	mov	r18, r27
    21f4:	2f 93       	push	r18
    21f6:	2a 2f       	mov	r18, r26
    21f8:	2f 93       	push	r18
    21fa:	29 2f       	mov	r18, r25
    21fc:	2f 93       	push	r18
    21fe:	8f 93       	push	r24
    2200:	89 eb       	ldi	r24, 0xB9	; 185
    2202:	98 e0       	ldi	r25, 0x08	; 8
    2204:	89 2f       	mov	r24, r25
    2206:	8f 93       	push	r24
    2208:	89 eb       	ldi	r24, 0xB9	; 185
    220a:	98 e0       	ldi	r25, 0x08	; 8
    220c:	8f 93       	push	r24
    220e:	0e 94 63 42 	call	0x84c6	; 0x84c6 <printf>
    2212:	8d b7       	in	r24, 0x3d	; 61
    2214:	9e b7       	in	r25, 0x3e	; 62
    2216:	08 96       	adiw	r24, 0x08	; 8
    2218:	0f b6       	in	r0, 0x3f	; 63
    221a:	f8 94       	cli
    221c:	de bf       	out	0x3e, r29	; 62
    221e:	0f be       	out	0x3f, r0	; 63
    2220:	cd bf       	out	0x3d, r28	; 61
		}
	}
	
	// read back and print the song 16 bytes at a time
	address = block * (uint32_t) FLASH_PAGES_PER_BLOCK * (uint32_t) FLASH_PAGE_MAX_BYTES;
	for (int j = 0; j < totalChars; j += 16)
    2222:	89 85       	ldd	r24, Y+9	; 0x09
    2224:	9a 85       	ldd	r25, Y+10	; 0x0a
    2226:	40 96       	adiw	r24, 0x10	; 16
    2228:	9a 87       	std	Y+10, r25	; 0x0a
    222a:	89 87       	std	Y+9, r24	; 0x09
    222c:	29 85       	ldd	r18, Y+9	; 0x09
    222e:	3a 85       	ldd	r19, Y+10	; 0x0a
    2230:	89 81       	ldd	r24, Y+1	; 0x01
    2232:	9a 81       	ldd	r25, Y+2	; 0x02
    2234:	28 17       	cp	r18, r24
    2236:	39 07       	cpc	r19, r25
    2238:	08 f4       	brcc	.+2      	; 0x223c <__stack+0x3d>
    223a:	85 cf       	rjmp	.-246    	; 0x2146 <testRandomWR+0x146>
		else
		{
			printf("\nread failure at page 0x%08lx, baddr 0x%04x\n", paddress, baddress); 
		}
	}
}
    223c:	00 00       	nop
    223e:	c0 5b       	subi	r28, 0xB0	; 176
    2240:	df 4f       	sbci	r29, 0xFF	; 255
    2242:	0f b6       	in	r0, 0x3f	; 63
    2244:	f8 94       	cli
    2246:	de bf       	out	0x3e, r29	; 62
    2248:	0f be       	out	0x3f, r0	; 63
    224a:	cd bf       	out	0x3d, r28	; 61
    224c:	df 91       	pop	r29
    224e:	cf 91       	pop	r28
    2250:	1f 91       	pop	r17
    2252:	0f 91       	pop	r16
    2254:	08 95       	ret

00002256 <FlashABTest>:

void FlashABTest(void)
{
    2256:	0f 93       	push	r16
    2258:	cf 93       	push	r28
    225a:	df 93       	push	r29
    225c:	cd b7       	in	r28, 0x3d	; 61
    225e:	de b7       	in	r29, 0x3e	; 62
    2260:	aa 97       	sbiw	r28, 0x2a	; 42
    2262:	0f b6       	in	r0, 0x3f	; 63
    2264:	f8 94       	cli
    2266:	de bf       	out	0x3e, r29	; 62
    2268:	0f be       	out	0x3f, r0	; 63
    226a:	cd bf       	out	0x3d, r28	; 61
	// test write of A's to 0ne page, B's to next page
	uint8_t buff[32];
	uint16_t block = 5;
    226c:	85 e0       	ldi	r24, 0x05	; 5
    226e:	90 e0       	ldi	r25, 0x00	; 0
    2270:	98 87       	std	Y+8, r25	; 0x08
    2272:	8f 83       	std	Y+7, r24	; 0x07
	uint16_t bblock;
	int i;
	int j;
	int k;

	for (j=0; j<8; j++)
    2274:	1c 82       	std	Y+4, r1	; 0x04
    2276:	1b 82       	std	Y+3, r1	; 0x03
    2278:	62 c0       	rjmp	.+196    	; 0x233e <FlashABTest+0xe8>
	{
		for( i=0; i<32; i++) buff[i] = (uint8_t) 0;
    227a:	1a 82       	std	Y+2, r1	; 0x02
    227c:	19 82       	std	Y+1, r1	; 0x01
    227e:	0e c0       	rjmp	.+28     	; 0x229c <FlashABTest+0x46>
    2280:	9e 01       	movw	r18, r28
    2282:	25 5f       	subi	r18, 0xF5	; 245
    2284:	3f 4f       	sbci	r19, 0xFF	; 255
    2286:	89 81       	ldd	r24, Y+1	; 0x01
    2288:	9a 81       	ldd	r25, Y+2	; 0x02
    228a:	82 0f       	add	r24, r18
    228c:	93 1f       	adc	r25, r19
    228e:	fc 01       	movw	r30, r24
    2290:	10 82       	st	Z, r1
    2292:	89 81       	ldd	r24, Y+1	; 0x01
    2294:	9a 81       	ldd	r25, Y+2	; 0x02
    2296:	01 96       	adiw	r24, 0x01	; 1
    2298:	9a 83       	std	Y+2, r25	; 0x02
    229a:	89 83       	std	Y+1, r24	; 0x01
    229c:	89 81       	ldd	r24, Y+1	; 0x01
    229e:	9a 81       	ldd	r25, Y+2	; 0x02
    22a0:	80 97       	sbiw	r24, 0x20	; 32
    22a2:	74 f3       	brlt	.-36     	; 0x2280 <FlashABTest+0x2a>
		spi_FlashReadFromPage((block * FLASH_PAGES_PER_BLOCK)+j, 0, buff, 32);
    22a4:	8f 81       	ldd	r24, Y+7	; 0x07
    22a6:	98 85       	ldd	r25, Y+8	; 0x08
    22a8:	9c 01       	movw	r18, r24
    22aa:	00 24       	eor	r0, r0
    22ac:	36 95       	lsr	r19
    22ae:	27 95       	ror	r18
    22b0:	07 94       	ror	r0
    22b2:	36 95       	lsr	r19
    22b4:	27 95       	ror	r18
    22b6:	07 94       	ror	r0
    22b8:	32 2f       	mov	r19, r18
    22ba:	20 2d       	mov	r18, r0
    22bc:	8b 81       	ldd	r24, Y+3	; 0x03
    22be:	9c 81       	ldd	r25, Y+4	; 0x04
    22c0:	82 0f       	add	r24, r18
    22c2:	93 1f       	adc	r25, r19
    22c4:	cc 01       	movw	r24, r24
    22c6:	a0 e0       	ldi	r26, 0x00	; 0
    22c8:	b0 e0       	ldi	r27, 0x00	; 0
    22ca:	9e 01       	movw	r18, r28
    22cc:	25 5f       	subi	r18, 0xF5	; 245
    22ce:	3f 4f       	sbci	r19, 0xFF	; 255
    22d0:	00 e2       	ldi	r16, 0x20	; 32
    22d2:	40 e0       	ldi	r20, 0x00	; 0
    22d4:	50 e0       	ldi	r21, 0x00	; 0
    22d6:	bc 01       	movw	r22, r24
    22d8:	cd 01       	movw	r24, r26
    22da:	0e 94 a3 30 	call	0x6146	; 0x6146 <spi_FlashReadFromPage>
		for( i=0; i<32; i++) printf(" %02x",buff[i]);
    22de:	1a 82       	std	Y+2, r1	; 0x02
    22e0:	19 82       	std	Y+1, r1	; 0x01
    22e2:	20 c0       	rjmp	.+64     	; 0x2324 <FlashABTest+0xce>
    22e4:	9e 01       	movw	r18, r28
    22e6:	25 5f       	subi	r18, 0xF5	; 245
    22e8:	3f 4f       	sbci	r19, 0xFF	; 255
    22ea:	89 81       	ldd	r24, Y+1	; 0x01
    22ec:	9a 81       	ldd	r25, Y+2	; 0x02
    22ee:	82 0f       	add	r24, r18
    22f0:	93 1f       	adc	r25, r19
    22f2:	fc 01       	movw	r30, r24
    22f4:	80 81       	ld	r24, Z
    22f6:	88 2f       	mov	r24, r24
    22f8:	90 e0       	ldi	r25, 0x00	; 0
    22fa:	29 2f       	mov	r18, r25
    22fc:	2f 93       	push	r18
    22fe:	8f 93       	push	r24
    2300:	86 ee       	ldi	r24, 0xE6	; 230
    2302:	98 e0       	ldi	r25, 0x08	; 8
    2304:	89 2f       	mov	r24, r25
    2306:	8f 93       	push	r24
    2308:	86 ee       	ldi	r24, 0xE6	; 230
    230a:	98 e0       	ldi	r25, 0x08	; 8
    230c:	8f 93       	push	r24
    230e:	0e 94 63 42 	call	0x84c6	; 0x84c6 <printf>
    2312:	0f 90       	pop	r0
    2314:	0f 90       	pop	r0
    2316:	0f 90       	pop	r0
    2318:	0f 90       	pop	r0
    231a:	89 81       	ldd	r24, Y+1	; 0x01
    231c:	9a 81       	ldd	r25, Y+2	; 0x02
    231e:	01 96       	adiw	r24, 0x01	; 1
    2320:	9a 83       	std	Y+2, r25	; 0x02
    2322:	89 83       	std	Y+1, r24	; 0x01
    2324:	89 81       	ldd	r24, Y+1	; 0x01
    2326:	9a 81       	ldd	r25, Y+2	; 0x02
    2328:	80 97       	sbiw	r24, 0x20	; 32
    232a:	e4 f2       	brlt	.-72     	; 0x22e4 <FlashABTest+0x8e>
		printf("\n");		
    232c:	8a e0       	ldi	r24, 0x0A	; 10
    232e:	90 e0       	ldi	r25, 0x00	; 0
    2330:	0e 94 9d 42 	call	0x853a	; 0x853a <putchar>
	uint16_t bblock;
	int i;
	int j;
	int k;

	for (j=0; j<8; j++)
    2334:	8b 81       	ldd	r24, Y+3	; 0x03
    2336:	9c 81       	ldd	r25, Y+4	; 0x04
    2338:	01 96       	adiw	r24, 0x01	; 1
    233a:	9c 83       	std	Y+4, r25	; 0x04
    233c:	8b 83       	std	Y+3, r24	; 0x03
    233e:	8b 81       	ldd	r24, Y+3	; 0x03
    2340:	9c 81       	ldd	r25, Y+4	; 0x04
    2342:	08 97       	sbiw	r24, 0x08	; 8
    2344:	0c f4       	brge	.+2      	; 0x2348 <FlashABTest+0xf2>
    2346:	99 cf       	rjmp	.-206    	; 0x227a <FlashABTest+0x24>
		for( i=0; i<32; i++) printf(" %02x",buff[i]);
		printf("\n");		
	}

	
	for( i=0; i<16; i++) buff[i] = (uint8_t) '1';
    2348:	1a 82       	std	Y+2, r1	; 0x02
    234a:	19 82       	std	Y+1, r1	; 0x01
    234c:	0f c0       	rjmp	.+30     	; 0x236c <FlashABTest+0x116>
    234e:	9e 01       	movw	r18, r28
    2350:	25 5f       	subi	r18, 0xF5	; 245
    2352:	3f 4f       	sbci	r19, 0xFF	; 255
    2354:	89 81       	ldd	r24, Y+1	; 0x01
    2356:	9a 81       	ldd	r25, Y+2	; 0x02
    2358:	82 0f       	add	r24, r18
    235a:	93 1f       	adc	r25, r19
    235c:	21 e3       	ldi	r18, 0x31	; 49
    235e:	fc 01       	movw	r30, r24
    2360:	20 83       	st	Z, r18
    2362:	89 81       	ldd	r24, Y+1	; 0x01
    2364:	9a 81       	ldd	r25, Y+2	; 0x02
    2366:	01 96       	adiw	r24, 0x01	; 1
    2368:	9a 83       	std	Y+2, r25	; 0x02
    236a:	89 83       	std	Y+1, r24	; 0x01
    236c:	89 81       	ldd	r24, Y+1	; 0x01
    236e:	9a 81       	ldd	r25, Y+2	; 0x02
    2370:	40 97       	sbiw	r24, 0x10	; 16
    2372:	6c f3       	brlt	.-38     	; 0x234e <FlashABTest+0xf8>
	// write to 5 consecutive pages
	for (i=0; i<5; i++)
    2374:	1a 82       	std	Y+2, r1	; 0x02
    2376:	19 82       	std	Y+1, r1	; 0x01
    2378:	22 c0       	rjmp	.+68     	; 0x23be <FlashABTest+0x168>
		spi_FlashWriteToPage((block * FLASH_PAGES_PER_BLOCK) + i, 0, buff, 16);
    237a:	8f 81       	ldd	r24, Y+7	; 0x07
    237c:	98 85       	ldd	r25, Y+8	; 0x08
    237e:	9c 01       	movw	r18, r24
    2380:	00 24       	eor	r0, r0
    2382:	36 95       	lsr	r19
    2384:	27 95       	ror	r18
    2386:	07 94       	ror	r0
    2388:	36 95       	lsr	r19
    238a:	27 95       	ror	r18
    238c:	07 94       	ror	r0
    238e:	32 2f       	mov	r19, r18
    2390:	20 2d       	mov	r18, r0
    2392:	89 81       	ldd	r24, Y+1	; 0x01
    2394:	9a 81       	ldd	r25, Y+2	; 0x02
    2396:	82 0f       	add	r24, r18
    2398:	93 1f       	adc	r25, r19
    239a:	cc 01       	movw	r24, r24
    239c:	a0 e0       	ldi	r26, 0x00	; 0
    239e:	b0 e0       	ldi	r27, 0x00	; 0
    23a0:	9e 01       	movw	r18, r28
    23a2:	25 5f       	subi	r18, 0xF5	; 245
    23a4:	3f 4f       	sbci	r19, 0xFF	; 255
    23a6:	00 e1       	ldi	r16, 0x10	; 16
    23a8:	40 e0       	ldi	r20, 0x00	; 0
    23aa:	50 e0       	ldi	r21, 0x00	; 0
    23ac:	bc 01       	movw	r22, r24
    23ae:	cd 01       	movw	r24, r26
    23b0:	0e 94 b9 2e 	call	0x5d72	; 0x5d72 <spi_FlashWriteToPage>
	}

	
	for( i=0; i<16; i++) buff[i] = (uint8_t) '1';
	// write to 5 consecutive pages
	for (i=0; i<5; i++)
    23b4:	89 81       	ldd	r24, Y+1	; 0x01
    23b6:	9a 81       	ldd	r25, Y+2	; 0x02
    23b8:	01 96       	adiw	r24, 0x01	; 1
    23ba:	9a 83       	std	Y+2, r25	; 0x02
    23bc:	89 83       	std	Y+1, r24	; 0x01
    23be:	89 81       	ldd	r24, Y+1	; 0x01
    23c0:	9a 81       	ldd	r25, Y+2	; 0x02
    23c2:	05 97       	sbiw	r24, 0x05	; 5
    23c4:	d4 f2       	brlt	.-76     	; 0x237a <FlashABTest+0x124>
		spi_FlashWriteToPage((block * FLASH_PAGES_PER_BLOCK) + i, 0, buff, 16);
	//for( i=0; i<16; i++) buff[i] = (uint8_t) 0;
	//spi_FlashWriteToPage((block * FLASH_PAGES_PER_BLOCK)+1, 0, buff, 16);
	
	for (k = -1; k < 2; k++)
    23c6:	8f ef       	ldi	r24, 0xFF	; 255
    23c8:	9f ef       	ldi	r25, 0xFF	; 255
    23ca:	9e 83       	std	Y+6, r25	; 0x06
    23cc:	8d 83       	std	Y+5, r24	; 0x05
    23ce:	88 c0       	rjmp	.+272    	; 0x24e0 <FlashABTest+0x28a>
	{
		bblock = block + k;
    23d0:	8d 81       	ldd	r24, Y+5	; 0x05
    23d2:	9e 81       	ldd	r25, Y+6	; 0x06
    23d4:	2f 81       	ldd	r18, Y+7	; 0x07
    23d6:	38 85       	ldd	r19, Y+8	; 0x08
    23d8:	82 0f       	add	r24, r18
    23da:	93 1f       	adc	r25, r19
    23dc:	9a 87       	std	Y+10, r25	; 0x0a
    23de:	89 87       	std	Y+9, r24	; 0x09
		printf("block %d\n",bblock);
    23e0:	8a 85       	ldd	r24, Y+10	; 0x0a
    23e2:	8f 93       	push	r24
    23e4:	89 85       	ldd	r24, Y+9	; 0x09
    23e6:	8f 93       	push	r24
    23e8:	8c ee       	ldi	r24, 0xEC	; 236
    23ea:	98 e0       	ldi	r25, 0x08	; 8
    23ec:	89 2f       	mov	r24, r25
    23ee:	8f 93       	push	r24
    23f0:	8c ee       	ldi	r24, 0xEC	; 236
    23f2:	98 e0       	ldi	r25, 0x08	; 8
    23f4:	8f 93       	push	r24
    23f6:	0e 94 63 42 	call	0x84c6	; 0x84c6 <printf>
    23fa:	0f 90       	pop	r0
    23fc:	0f 90       	pop	r0
    23fe:	0f 90       	pop	r0
    2400:	0f 90       	pop	r0
		for (j=0; j<8; j++)
    2402:	1c 82       	std	Y+4, r1	; 0x04
    2404:	1b 82       	std	Y+3, r1	; 0x03
    2406:	62 c0       	rjmp	.+196    	; 0x24cc <FlashABTest+0x276>
		{
			for( i=0; i<32; i++) buff[i] = (uint8_t) 0;
    2408:	1a 82       	std	Y+2, r1	; 0x02
    240a:	19 82       	std	Y+1, r1	; 0x01
    240c:	0e c0       	rjmp	.+28     	; 0x242a <FlashABTest+0x1d4>
    240e:	9e 01       	movw	r18, r28
    2410:	25 5f       	subi	r18, 0xF5	; 245
    2412:	3f 4f       	sbci	r19, 0xFF	; 255
    2414:	89 81       	ldd	r24, Y+1	; 0x01
    2416:	9a 81       	ldd	r25, Y+2	; 0x02
    2418:	82 0f       	add	r24, r18
    241a:	93 1f       	adc	r25, r19
    241c:	fc 01       	movw	r30, r24
    241e:	10 82       	st	Z, r1
    2420:	89 81       	ldd	r24, Y+1	; 0x01
    2422:	9a 81       	ldd	r25, Y+2	; 0x02
    2424:	01 96       	adiw	r24, 0x01	; 1
    2426:	9a 83       	std	Y+2, r25	; 0x02
    2428:	89 83       	std	Y+1, r24	; 0x01
    242a:	89 81       	ldd	r24, Y+1	; 0x01
    242c:	9a 81       	ldd	r25, Y+2	; 0x02
    242e:	80 97       	sbiw	r24, 0x20	; 32
    2430:	74 f3       	brlt	.-36     	; 0x240e <FlashABTest+0x1b8>
			spi_FlashReadFromPage((block * FLASH_PAGES_PER_BLOCK)+j, 0, buff, 32);
    2432:	8f 81       	ldd	r24, Y+7	; 0x07
    2434:	98 85       	ldd	r25, Y+8	; 0x08
    2436:	9c 01       	movw	r18, r24
    2438:	00 24       	eor	r0, r0
    243a:	36 95       	lsr	r19
    243c:	27 95       	ror	r18
    243e:	07 94       	ror	r0
    2440:	36 95       	lsr	r19
    2442:	27 95       	ror	r18
    2444:	07 94       	ror	r0
    2446:	32 2f       	mov	r19, r18
    2448:	20 2d       	mov	r18, r0
    244a:	8b 81       	ldd	r24, Y+3	; 0x03
    244c:	9c 81       	ldd	r25, Y+4	; 0x04
    244e:	82 0f       	add	r24, r18
    2450:	93 1f       	adc	r25, r19
    2452:	cc 01       	movw	r24, r24
    2454:	a0 e0       	ldi	r26, 0x00	; 0
    2456:	b0 e0       	ldi	r27, 0x00	; 0
    2458:	9e 01       	movw	r18, r28
    245a:	25 5f       	subi	r18, 0xF5	; 245
    245c:	3f 4f       	sbci	r19, 0xFF	; 255
    245e:	00 e2       	ldi	r16, 0x20	; 32
    2460:	40 e0       	ldi	r20, 0x00	; 0
    2462:	50 e0       	ldi	r21, 0x00	; 0
    2464:	bc 01       	movw	r22, r24
    2466:	cd 01       	movw	r24, r26
    2468:	0e 94 a3 30 	call	0x6146	; 0x6146 <spi_FlashReadFromPage>
			for( i=0; i<32; i++) printf(" %02x",buff[i]);
    246c:	1a 82       	std	Y+2, r1	; 0x02
    246e:	19 82       	std	Y+1, r1	; 0x01
    2470:	20 c0       	rjmp	.+64     	; 0x24b2 <FlashABTest+0x25c>
    2472:	9e 01       	movw	r18, r28
    2474:	25 5f       	subi	r18, 0xF5	; 245
    2476:	3f 4f       	sbci	r19, 0xFF	; 255
    2478:	89 81       	ldd	r24, Y+1	; 0x01
    247a:	9a 81       	ldd	r25, Y+2	; 0x02
    247c:	82 0f       	add	r24, r18
    247e:	93 1f       	adc	r25, r19
    2480:	fc 01       	movw	r30, r24
    2482:	80 81       	ld	r24, Z
    2484:	88 2f       	mov	r24, r24
    2486:	90 e0       	ldi	r25, 0x00	; 0
    2488:	29 2f       	mov	r18, r25
    248a:	2f 93       	push	r18
    248c:	8f 93       	push	r24
    248e:	86 ee       	ldi	r24, 0xE6	; 230
    2490:	98 e0       	ldi	r25, 0x08	; 8
    2492:	89 2f       	mov	r24, r25
    2494:	8f 93       	push	r24
    2496:	86 ee       	ldi	r24, 0xE6	; 230
    2498:	98 e0       	ldi	r25, 0x08	; 8
    249a:	8f 93       	push	r24
    249c:	0e 94 63 42 	call	0x84c6	; 0x84c6 <printf>
    24a0:	0f 90       	pop	r0
    24a2:	0f 90       	pop	r0
    24a4:	0f 90       	pop	r0
    24a6:	0f 90       	pop	r0
    24a8:	89 81       	ldd	r24, Y+1	; 0x01
    24aa:	9a 81       	ldd	r25, Y+2	; 0x02
    24ac:	01 96       	adiw	r24, 0x01	; 1
    24ae:	9a 83       	std	Y+2, r25	; 0x02
    24b0:	89 83       	std	Y+1, r24	; 0x01
    24b2:	89 81       	ldd	r24, Y+1	; 0x01
    24b4:	9a 81       	ldd	r25, Y+2	; 0x02
    24b6:	80 97       	sbiw	r24, 0x20	; 32
    24b8:	e4 f2       	brlt	.-72     	; 0x2472 <FlashABTest+0x21c>
			printf("\n");		
    24ba:	8a e0       	ldi	r24, 0x0A	; 10
    24bc:	90 e0       	ldi	r25, 0x00	; 0
    24be:	0e 94 9d 42 	call	0x853a	; 0x853a <putchar>
	
	for (k = -1; k < 2; k++)
	{
		bblock = block + k;
		printf("block %d\n",bblock);
		for (j=0; j<8; j++)
    24c2:	8b 81       	ldd	r24, Y+3	; 0x03
    24c4:	9c 81       	ldd	r25, Y+4	; 0x04
    24c6:	01 96       	adiw	r24, 0x01	; 1
    24c8:	9c 83       	std	Y+4, r25	; 0x04
    24ca:	8b 83       	std	Y+3, r24	; 0x03
    24cc:	8b 81       	ldd	r24, Y+3	; 0x03
    24ce:	9c 81       	ldd	r25, Y+4	; 0x04
    24d0:	08 97       	sbiw	r24, 0x08	; 8
    24d2:	0c f4       	brge	.+2      	; 0x24d6 <FlashABTest+0x280>
    24d4:	99 cf       	rjmp	.-206    	; 0x2408 <FlashABTest+0x1b2>
	for (i=0; i<5; i++)
		spi_FlashWriteToPage((block * FLASH_PAGES_PER_BLOCK) + i, 0, buff, 16);
	//for( i=0; i<16; i++) buff[i] = (uint8_t) 0;
	//spi_FlashWriteToPage((block * FLASH_PAGES_PER_BLOCK)+1, 0, buff, 16);
	
	for (k = -1; k < 2; k++)
    24d6:	8d 81       	ldd	r24, Y+5	; 0x05
    24d8:	9e 81       	ldd	r25, Y+6	; 0x06
    24da:	01 96       	adiw	r24, 0x01	; 1
    24dc:	9e 83       	std	Y+6, r25	; 0x06
    24de:	8d 83       	std	Y+5, r24	; 0x05
    24e0:	8d 81       	ldd	r24, Y+5	; 0x05
    24e2:	9e 81       	ldd	r25, Y+6	; 0x06
    24e4:	02 97       	sbiw	r24, 0x02	; 2
    24e6:	0c f4       	brge	.+2      	; 0x24ea <FlashABTest+0x294>
    24e8:	73 cf       	rjmp	.-282    	; 0x23d0 <FlashABTest+0x17a>
			for( i=0; i<32; i++) printf(" %02x",buff[i]);
			printf("\n");		
		}
	}
	
	printf("\n\n");
    24ea:	86 ef       	ldi	r24, 0xF6	; 246
    24ec:	98 e0       	ldi	r25, 0x08	; 8
    24ee:	0e 94 a2 42 	call	0x8544	; 0x8544 <puts>
}
    24f2:	00 00       	nop
    24f4:	aa 96       	adiw	r28, 0x2a	; 42
    24f6:	0f b6       	in	r0, 0x3f	; 63
    24f8:	f8 94       	cli
    24fa:	de bf       	out	0x3e, r29	; 62
    24fc:	0f be       	out	0x3f, r0	; 63
    24fe:	cd bf       	out	0x3d, r28	; 61
    2500:	df 91       	pop	r29
    2502:	cf 91       	pop	r28
    2504:	0f 91       	pop	r16
    2506:	08 95       	ret

00002508 <FlashReadBlocksTest>:

void FlashReadBlocksTest(void)
{
    2508:	0f 93       	push	r16
    250a:	cf 93       	push	r28
    250c:	df 93       	push	r29
    250e:	cd b7       	in	r28, 0x3d	; 61
    2510:	de b7       	in	r29, 0x3e	; 62
    2512:	a6 97       	sbiw	r28, 0x26	; 38
    2514:	0f b6       	in	r0, 0x3f	; 63
    2516:	f8 94       	cli
    2518:	de bf       	out	0x3e, r29	; 62
    251a:	0f be       	out	0x3f, r0	; 63
    251c:	cd bf       	out	0x3d, r28	; 61
	// test write of A's to 0ne page, B's to next page
	uint8_t buff[32];
	uint16_t block = 5;
    251e:	85 e0       	ldi	r24, 0x05	; 5
    2520:	90 e0       	ldi	r25, 0x00	; 0
    2522:	9e 83       	std	Y+6, r25	; 0x06
    2524:	8d 83       	std	Y+5, r24	; 0x05
	uint16_t bblock;
	int i;
	int j;
	int k;

	for (j=5; j<70; j++)
    2526:	85 e0       	ldi	r24, 0x05	; 5
    2528:	90 e0       	ldi	r25, 0x00	; 0
    252a:	9c 83       	std	Y+4, r25	; 0x04
    252c:	8b 83       	std	Y+3, r24	; 0x03
    252e:	82 c0       	rjmp	.+260    	; 0x2634 <FlashReadBlocksTest+0x12c>
	{
		for( i=0; i<32; i++) buff[i] = (uint8_t) 0;
    2530:	1a 82       	std	Y+2, r1	; 0x02
    2532:	19 82       	std	Y+1, r1	; 0x01
    2534:	0e c0       	rjmp	.+28     	; 0x2552 <FlashReadBlocksTest+0x4a>
    2536:	9e 01       	movw	r18, r28
    2538:	29 5f       	subi	r18, 0xF9	; 249
    253a:	3f 4f       	sbci	r19, 0xFF	; 255
    253c:	89 81       	ldd	r24, Y+1	; 0x01
    253e:	9a 81       	ldd	r25, Y+2	; 0x02
    2540:	82 0f       	add	r24, r18
    2542:	93 1f       	adc	r25, r19
    2544:	fc 01       	movw	r30, r24
    2546:	10 82       	st	Z, r1
    2548:	89 81       	ldd	r24, Y+1	; 0x01
    254a:	9a 81       	ldd	r25, Y+2	; 0x02
    254c:	01 96       	adiw	r24, 0x01	; 1
    254e:	9a 83       	std	Y+2, r25	; 0x02
    2550:	89 83       	std	Y+1, r24	; 0x01
    2552:	89 81       	ldd	r24, Y+1	; 0x01
    2554:	9a 81       	ldd	r25, Y+2	; 0x02
    2556:	80 97       	sbiw	r24, 0x20	; 32
    2558:	74 f3       	brlt	.-36     	; 0x2536 <FlashReadBlocksTest+0x2e>
		spi_FlashReadFromPage(((block) * FLASH_PAGES_PER_BLOCK)+j, 0, buff, 32);
    255a:	8d 81       	ldd	r24, Y+5	; 0x05
    255c:	9e 81       	ldd	r25, Y+6	; 0x06
    255e:	9c 01       	movw	r18, r24
    2560:	00 24       	eor	r0, r0
    2562:	36 95       	lsr	r19
    2564:	27 95       	ror	r18
    2566:	07 94       	ror	r0
    2568:	36 95       	lsr	r19
    256a:	27 95       	ror	r18
    256c:	07 94       	ror	r0
    256e:	32 2f       	mov	r19, r18
    2570:	20 2d       	mov	r18, r0
    2572:	8b 81       	ldd	r24, Y+3	; 0x03
    2574:	9c 81       	ldd	r25, Y+4	; 0x04
    2576:	82 0f       	add	r24, r18
    2578:	93 1f       	adc	r25, r19
    257a:	cc 01       	movw	r24, r24
    257c:	a0 e0       	ldi	r26, 0x00	; 0
    257e:	b0 e0       	ldi	r27, 0x00	; 0
    2580:	9e 01       	movw	r18, r28
    2582:	29 5f       	subi	r18, 0xF9	; 249
    2584:	3f 4f       	sbci	r19, 0xFF	; 255
    2586:	00 e2       	ldi	r16, 0x20	; 32
    2588:	40 e0       	ldi	r20, 0x00	; 0
    258a:	50 e0       	ldi	r21, 0x00	; 0
    258c:	bc 01       	movw	r22, r24
    258e:	cd 01       	movw	r24, r26
    2590:	0e 94 a3 30 	call	0x6146	; 0x6146 <spi_FlashReadFromPage>
		printf("page 0x%08lx: ",((block) * FLASH_PAGES_PER_BLOCK)+j);
    2594:	8d 81       	ldd	r24, Y+5	; 0x05
    2596:	9e 81       	ldd	r25, Y+6	; 0x06
    2598:	9c 01       	movw	r18, r24
    259a:	00 24       	eor	r0, r0
    259c:	36 95       	lsr	r19
    259e:	27 95       	ror	r18
    25a0:	07 94       	ror	r0
    25a2:	36 95       	lsr	r19
    25a4:	27 95       	ror	r18
    25a6:	07 94       	ror	r0
    25a8:	32 2f       	mov	r19, r18
    25aa:	20 2d       	mov	r18, r0
    25ac:	8b 81       	ldd	r24, Y+3	; 0x03
    25ae:	9c 81       	ldd	r25, Y+4	; 0x04
    25b0:	82 0f       	add	r24, r18
    25b2:	93 1f       	adc	r25, r19
    25b4:	29 2f       	mov	r18, r25
    25b6:	2f 93       	push	r18
    25b8:	8f 93       	push	r24
    25ba:	88 ef       	ldi	r24, 0xF8	; 248
    25bc:	98 e0       	ldi	r25, 0x08	; 8
    25be:	89 2f       	mov	r24, r25
    25c0:	8f 93       	push	r24
    25c2:	88 ef       	ldi	r24, 0xF8	; 248
    25c4:	98 e0       	ldi	r25, 0x08	; 8
    25c6:	8f 93       	push	r24
    25c8:	0e 94 63 42 	call	0x84c6	; 0x84c6 <printf>
    25cc:	0f 90       	pop	r0
    25ce:	0f 90       	pop	r0
    25d0:	0f 90       	pop	r0
    25d2:	0f 90       	pop	r0
		for( i=0; i<32; i++) printf(" %02x",buff[i]);
    25d4:	1a 82       	std	Y+2, r1	; 0x02
    25d6:	19 82       	std	Y+1, r1	; 0x01
    25d8:	20 c0       	rjmp	.+64     	; 0x261a <FlashReadBlocksTest+0x112>
    25da:	9e 01       	movw	r18, r28
    25dc:	29 5f       	subi	r18, 0xF9	; 249
    25de:	3f 4f       	sbci	r19, 0xFF	; 255
    25e0:	89 81       	ldd	r24, Y+1	; 0x01
    25e2:	9a 81       	ldd	r25, Y+2	; 0x02
    25e4:	82 0f       	add	r24, r18
    25e6:	93 1f       	adc	r25, r19
    25e8:	fc 01       	movw	r30, r24
    25ea:	80 81       	ld	r24, Z
    25ec:	88 2f       	mov	r24, r24
    25ee:	90 e0       	ldi	r25, 0x00	; 0
    25f0:	29 2f       	mov	r18, r25
    25f2:	2f 93       	push	r18
    25f4:	8f 93       	push	r24
    25f6:	86 ee       	ldi	r24, 0xE6	; 230
    25f8:	98 e0       	ldi	r25, 0x08	; 8
    25fa:	89 2f       	mov	r24, r25
    25fc:	8f 93       	push	r24
    25fe:	86 ee       	ldi	r24, 0xE6	; 230
    2600:	98 e0       	ldi	r25, 0x08	; 8
    2602:	8f 93       	push	r24
    2604:	0e 94 63 42 	call	0x84c6	; 0x84c6 <printf>
    2608:	0f 90       	pop	r0
    260a:	0f 90       	pop	r0
    260c:	0f 90       	pop	r0
    260e:	0f 90       	pop	r0
    2610:	89 81       	ldd	r24, Y+1	; 0x01
    2612:	9a 81       	ldd	r25, Y+2	; 0x02
    2614:	01 96       	adiw	r24, 0x01	; 1
    2616:	9a 83       	std	Y+2, r25	; 0x02
    2618:	89 83       	std	Y+1, r24	; 0x01
    261a:	89 81       	ldd	r24, Y+1	; 0x01
    261c:	9a 81       	ldd	r25, Y+2	; 0x02
    261e:	80 97       	sbiw	r24, 0x20	; 32
    2620:	e4 f2       	brlt	.-72     	; 0x25da <FlashReadBlocksTest+0xd2>
		printf("\n");		
    2622:	8a e0       	ldi	r24, 0x0A	; 10
    2624:	90 e0       	ldi	r25, 0x00	; 0
    2626:	0e 94 9d 42 	call	0x853a	; 0x853a <putchar>
	uint16_t bblock;
	int i;
	int j;
	int k;

	for (j=5; j<70; j++)
    262a:	8b 81       	ldd	r24, Y+3	; 0x03
    262c:	9c 81       	ldd	r25, Y+4	; 0x04
    262e:	01 96       	adiw	r24, 0x01	; 1
    2630:	9c 83       	std	Y+4, r25	; 0x04
    2632:	8b 83       	std	Y+3, r24	; 0x03
    2634:	8b 81       	ldd	r24, Y+3	; 0x03
    2636:	9c 81       	ldd	r25, Y+4	; 0x04
    2638:	86 34       	cpi	r24, 0x46	; 70
    263a:	91 05       	cpc	r25, r1
    263c:	0c f4       	brge	.+2      	; 0x2640 <FlashReadBlocksTest+0x138>
    263e:	78 cf       	rjmp	.-272    	; 0x2530 <FlashReadBlocksTest+0x28>
		spi_FlashReadFromPage(((block) * FLASH_PAGES_PER_BLOCK)+j, 0, buff, 32);
		printf("page 0x%08lx: ",((block) * FLASH_PAGES_PER_BLOCK)+j);
		for( i=0; i<32; i++) printf(" %02x",buff[i]);
		printf("\n");		
	}
}
    2640:	00 00       	nop
    2642:	a6 96       	adiw	r28, 0x26	; 38
    2644:	0f b6       	in	r0, 0x3f	; 63
    2646:	f8 94       	cli
    2648:	de bf       	out	0x3e, r29	; 62
    264a:	0f be       	out	0x3f, r0	; 63
    264c:	cd bf       	out	0x3d, r28	; 61
    264e:	df 91       	pop	r29
    2650:	cf 91       	pop	r28
    2652:	0f 91       	pop	r16
    2654:	08 95       	ret

00002656 <__vector_8>:
	
}


SIGNAL(INT7_vect)
{
    2656:	1f 92       	push	r1
    2658:	0f 92       	push	r0
    265a:	0f b6       	in	r0, 0x3f	; 63
    265c:	0f 92       	push	r0
    265e:	11 24       	eor	r1, r1
		ms_twiCount++;
	}

	ENABLE_INTERRUPTS;
	*/
}
    2660:	0f 90       	pop	r0
    2662:	0f be       	out	0x3f, r0	; 63
    2664:	0f 90       	pop	r0
    2666:	1f 90       	pop	r1
    2668:	18 95       	reti

0000266a <__vector_13>:

SIGNAL(TIMER2_COMPA_vect)
{
    266a:	1f 92       	push	r1
    266c:	0f 92       	push	r0
    266e:	0f b6       	in	r0, 0x3f	; 63
    2670:	0f 92       	push	r0
    2672:	11 24       	eor	r1, r1
    2674:	2f 93       	push	r18
    2676:	8f 93       	push	r24
    2678:	9f 93       	push	r25
	// dead time count
		DISABLE_INTERRUPTS;
    267a:	8f b7       	in	r24, 0x3f	; 63
    267c:	8f 77       	andi	r24, 0x7F	; 127
    267e:	8f bf       	out	0x3f, r24	; 63
		PORTC ^= _BV(PC7);
    2680:	88 b1       	in	r24, 0x08	; 8
    2682:	80 58       	subi	r24, 0x80	; 128
    2684:	88 b9       	out	0x08, r24	; 8

		counter1024Hz++;
    2686:	80 91 90 13 	lds	r24, 0x1390	; 0x801390 <counter1024Hz>
    268a:	90 91 91 13 	lds	r25, 0x1391	; 0x801391 <counter1024Hz+0x1>
    268e:	01 96       	adiw	r24, 0x01	; 1
    2690:	90 93 91 13 	sts	0x1391, r25	; 0x801391 <counter1024Hz+0x1>
    2694:	80 93 90 13 	sts	0x1390, r24	; 0x801390 <counter1024Hz>

		if (counter1024Hz == 512) {
    2698:	80 91 90 13 	lds	r24, 0x1390	; 0x801390 <counter1024Hz>
    269c:	90 91 91 13 	lds	r25, 0x1391	; 0x801391 <counter1024Hz+0x1>
    26a0:	81 15       	cp	r24, r1
    26a2:	92 40       	sbci	r25, 0x02	; 2
    26a4:	19 f4       	brne	.+6      	; 0x26ac <__vector_13+0x42>
			halfSecFlag = 1;
    26a6:	81 e0       	ldi	r24, 0x01	; 1
    26a8:	80 93 8e 13 	sts	0x138E, r24	; 0x80138e <halfSecFlag>
		}

		if (counter1024Hz > 1023) {
    26ac:	80 91 90 13 	lds	r24, 0x1390	; 0x801390 <counter1024Hz>
    26b0:	90 91 91 13 	lds	r25, 0x1391	; 0x801391 <counter1024Hz+0x1>
    26b4:	81 15       	cp	r24, r1
    26b6:	94 40       	sbci	r25, 0x04	; 4
    26b8:	a8 f0       	brcs	.+42     	; 0x26e4 <__vector_13+0x7a>
			counter1024Hz -=1024;
    26ba:	80 91 90 13 	lds	r24, 0x1390	; 0x801390 <counter1024Hz>
    26be:	90 91 91 13 	lds	r25, 0x1391	; 0x801391 <counter1024Hz+0x1>
    26c2:	94 50       	subi	r25, 0x04	; 4
    26c4:	90 93 91 13 	sts	0x1391, r25	; 0x801391 <counter1024Hz+0x1>
    26c8:	80 93 90 13 	sts	0x1390, r24	; 0x801390 <counter1024Hz>
			oneSecFlag = 1;
    26cc:	81 e0       	ldi	r24, 0x01	; 1
    26ce:	80 93 8f 13 	sts	0x138F, r24	; 0x80138f <oneSecFlag>
			ms_twiCount++;
    26d2:	80 91 8c 13 	lds	r24, 0x138C	; 0x80138c <__data_end>
    26d6:	90 91 8d 13 	lds	r25, 0x138D	; 0x80138d <__data_end+0x1>
    26da:	01 96       	adiw	r24, 0x01	; 1
    26dc:	90 93 8d 13 	sts	0x138D, r25	; 0x80138d <__data_end+0x1>
    26e0:	80 93 8c 13 	sts	0x138C, r24	; 0x80138c <__data_end>
		}

		ENABLE_INTERRUPTS;
    26e4:	78 94       	sei


	
}
    26e6:	9f 91       	pop	r25
    26e8:	8f 91       	pop	r24
    26ea:	2f 91       	pop	r18
    26ec:	0f 90       	pop	r0
    26ee:	0f be       	out	0x3f, r0	; 63
    26f0:	0f 90       	pop	r0
    26f2:	1f 90       	pop	r1
    26f4:	18 95       	reti

000026f6 <init_timer2>:


// Set up  deadtime sample frequency to generate an inturrupt.
void init_timer2(void)
{
	printf("initializing timer2\n");
    26f6:	8b e4       	ldi	r24, 0x4B	; 75
    26f8:	9a e0       	ldi	r25, 0x0A	; 10
    26fa:	0e 94 a2 42 	call	0x8544	; 0x8544 <puts>
	CLKPR = 0x80;  //Make sure we don't have the fuse bits lowering the clock frequency
    26fe:	80 e8       	ldi	r24, 0x80	; 128
    2700:	80 93 61 00 	sts	0x0061, r24	; 0x800061 <__TEXT_REGION_LENGTH__+0x7c0061>
	TCCR2A  =  (_BV(WGM21));   //CTC mode
    2704:	82 e0       	ldi	r24, 0x02	; 2
    2706:	80 93 b0 00 	sts	0x00B0, r24	; 0x8000b0 <__TEXT_REGION_LENGTH__+0x7c00b0>
	TCCR2B  =  (_BV(CS22) );   // divide by 64
    270a:	84 e0       	ldi	r24, 0x04	; 4
    270c:	80 93 b1 00 	sts	0x00B1, r24	; 0x8000b1 <__TEXT_REGION_LENGTH__+0x7c00b1>
	OCR2A   = 224;   // with prescale = 1  Freq = 14745600/ (2 * 64 * (224 + 1)) = 512 Hz, but inturrept generated every compare match so Freq = 1024 Hz
    2710:	80 ee       	ldi	r24, 0xE0	; 224
    2712:	80 93 b3 00 	sts	0x00B3, r24	; 0x8000b3 <__TEXT_REGION_LENGTH__+0x7c00b3>
	
//	TCCR2B  =  (_BV(CS20) );  // divide by 1
//	OCR2A   = 127;   // with prescale = 1  Freq = 14745600/ (2 * (127 + 1)) = 57600 KHz, but inturrept generated every compare match so Freq = 115,200 Hz?

	
	TCNT2  = 0;
    2716:	10 92 b2 00 	sts	0x00B2, r1	; 0x8000b2 <__TEXT_REGION_LENGTH__+0x7c00b2>
	TIMSK2 |= 2; // Set mode OCIE2A    enable Timer 2 output compare interrupt
    271a:	e0 e7       	ldi	r30, 0x70	; 112
    271c:	f0 e0       	ldi	r31, 0x00	; 0
    271e:	80 81       	ld	r24, Z
    2720:	82 60       	ori	r24, 0x02	; 2
    2722:	80 83       	st	Z, r24
    2724:	08 95       	ret

00002726 <init_CountersIimers>:



void init_CountersIimers(void)
{
	init_timer2();
    2726:	e7 df       	rcall	.-50     	; 0x26f6 <init_timer2>
	EICRB = _BV(ISC71) | _BV(ISC70);  //  INT7 --interupt on rising edge. ()   RTC input
    2728:	80 ec       	ldi	r24, 0xC0	; 192
    272a:	80 93 6a 00 	sts	0x006A, r24	; 0x80006a <__TEXT_REGION_LENGTH__+0x7c006a>
	EIMSK = _BV(INT7);                //  Enable int7                          RTC input
    272e:	80 e8       	ldi	r24, 0x80	; 128
    2730:	8d bb       	out	0x1d, r24	; 29
	printf("in init counters and timers\n");
    2732:	8f e5       	ldi	r24, 0x5F	; 95
    2734:	9a e0       	ldi	r25, 0x0A	; 10
    2736:	0c 94 a2 42 	jmp	0x8544	; 0x8544 <puts>
    273a:	08 95       	ret

0000273c <ADC_rdSystemStatus>:
	ADC_RegisterWrite(OSR_CFG, log2Samples);
}

void ADC_CalibrateOffset(uint8_t log2Samples)   
{
	ADC_RegisterWrite(GENERAL_CFG, 0x020);
    273c:	60 e0       	ldi	r22, 0x00	; 0
    273e:	80 e0       	ldi	r24, 0x00	; 0
    2740:	0e 94 4a 2c 	call	0x5894	; 0x5894 <ADC_RegisterRead>
    2744:	1f 92       	push	r1
    2746:	8f 93       	push	r24
    2748:	8b e7       	ldi	r24, 0x7B	; 123
    274a:	9a e0       	ldi	r25, 0x0A	; 10
    274c:	9f 93       	push	r25
    274e:	8f 93       	push	r24
    2750:	0e 94 63 42 	call	0x84c6	; 0x84c6 <printf>
    2754:	0f 90       	pop	r0
    2756:	0f 90       	pop	r0
    2758:	0f 90       	pop	r0
    275a:	0f 90       	pop	r0
    275c:	08 95       	ret

0000275e <ADC_wrGPO>:
    275e:	cf 93       	push	r28
    2760:	df 93       	push	r29
    2762:	d8 2f       	mov	r29, r24
    2764:	c6 2f       	mov	r28, r22
    2766:	88 30       	cpi	r24, 0x08	; 8
    2768:	10 f4       	brcc	.+4      	; 0x276e <ADC_wrGPO+0x10>
    276a:	62 30       	cpi	r22, 0x02	; 2
    276c:	40 f0       	brcs	.+16     	; 0x277e <ADC_wrGPO+0x20>
    276e:	8d e8       	ldi	r24, 0x8D	; 141
    2770:	9a e0       	ldi	r25, 0x0A	; 10
    2772:	9f 93       	push	r25
    2774:	8f 93       	push	r24
    2776:	0e 94 63 42 	call	0x84c6	; 0x84c6 <printf>
    277a:	0f 90       	pop	r0
    277c:	0f 90       	pop	r0
    277e:	cc 23       	and	r28, r28
    2780:	31 f0       	breq	.+12     	; 0x278e <ADC_wrGPO+0x30>
    2782:	61 e0       	ldi	r22, 0x01	; 1
    2784:	01 c0       	rjmp	.+2      	; 0x2788 <ADC_wrGPO+0x2a>
    2786:	66 0f       	add	r22, r22
    2788:	da 95       	dec	r29
    278a:	ea f7       	brpl	.-6      	; 0x2786 <ADC_wrGPO+0x28>
    278c:	01 c0       	rjmp	.+2      	; 0x2790 <ADC_wrGPO+0x32>
    278e:	60 e0       	ldi	r22, 0x00	; 0
    2790:	8b e0       	ldi	r24, 0x0B	; 11
    2792:	0e 94 3a 2c 	call	0x5874	; 0x5874 <ADC_RegisterWrite>
    2796:	df 91       	pop	r29
    2798:	cf 91       	pop	r28
    279a:	08 95       	ret

0000279c <initADC2518>:
    279c:	60 e4       	ldi	r22, 0x40	; 64
    279e:	85 e0       	ldi	r24, 0x05	; 5
    27a0:	0e 94 3a 2c 	call	0x5874	; 0x5874 <ADC_RegisterWrite>
    27a4:	60 e4       	ldi	r22, 0x40	; 64
    27a6:	87 e0       	ldi	r24, 0x07	; 7
    27a8:	0e 94 3a 2c 	call	0x5874	; 0x5874 <ADC_RegisterWrite>
    27ac:	60 e4       	ldi	r22, 0x40	; 64
    27ae:	89 e0       	ldi	r24, 0x09	; 9
    27b0:	0e 94 3a 2c 	call	0x5874	; 0x5874 <ADC_RegisterWrite>
    27b4:	60 e0       	ldi	r22, 0x00	; 0
    27b6:	86 e0       	ldi	r24, 0x06	; 6
    27b8:	d2 cf       	rjmp	.-92     	; 0x275e <ADC_wrGPO>
    27ba:	08 95       	ret

000027bc <ADC_OverSample>:
    27bc:	cf 93       	push	r28
    27be:	c8 2f       	mov	r28, r24
    27c0:	88 30       	cpi	r24, 0x08	; 8
    27c2:	40 f0       	brcs	.+16     	; 0x27d4 <ADC_OverSample+0x18>
    27c4:	8d e2       	ldi	r24, 0x2D	; 45
    27c6:	92 e0       	ldi	r25, 0x02	; 2
    27c8:	9f 93       	push	r25
    27ca:	8f 93       	push	r24
    27cc:	0e 94 76 42 	call	0x84ec	; 0x84ec <printf_P>
    27d0:	0f 90       	pop	r0
    27d2:	0f 90       	pop	r0
    27d4:	6c 2f       	mov	r22, r28
    27d6:	83 e0       	ldi	r24, 0x03	; 3
    27d8:	0e 94 3a 2c 	call	0x5874	; 0x5874 <ADC_RegisterWrite>
    27dc:	cf 91       	pop	r28
    27de:	08 95       	ret

000027e0 <ADC_OscSpeed>:
}



void ADC_OscSpeed(uint8_t speed)   
{
    27e0:	cf 93       	push	r28
    27e2:	c8 2f       	mov	r28, r24
	
	uint8_t opmode_cfg = ADC_RegisterRead(OPMODE_CFG, DUMMY_DATA);
    27e4:	60 e0       	ldi	r22, 0x00	; 0
    27e6:	84 e0       	ldi	r24, 0x04	; 4
    27e8:	0e 94 4a 2c 	call	0x5894	; 0x5894 <ADC_RegisterRead>
	
	if (speed == ADC2518_HiSpeedOSC)  opmode_cfg  &= ~_BV(OSC_SEL);
    27ec:	c1 11       	cpse	r28, r1
    27ee:	03 c0       	rjmp	.+6      	; 0x27f6 <ADC_OscSpeed+0x16>
    27f0:	68 2f       	mov	r22, r24
    27f2:	6f 7e       	andi	r22, 0xEF	; 239
    27f4:	0e c0       	rjmp	.+28     	; 0x2812 <ADC_OscSpeed+0x32>
	else if (speed == ADC2518_LowSpeedOSC)  opmode_cfg  |= _BV(OSC_SEL);
    27f6:	c1 30       	cpi	r28, 0x01	; 1
    27f8:	19 f4       	brne	.+6      	; 0x2800 <ADC_OscSpeed+0x20>
    27fa:	68 2f       	mov	r22, r24
    27fc:	60 61       	ori	r22, 0x10	; 16
    27fe:	09 c0       	rjmp	.+18     	; 0x2812 <ADC_OscSpeed+0x32>
	else {
		printf_P(PSTR("unknown ADC2518 oscilatorSpeed\n"));
    2800:	8d e0       	ldi	r24, 0x0D	; 13
    2802:	92 e0       	ldi	r25, 0x02	; 2
    2804:	9f 93       	push	r25
    2806:	8f 93       	push	r24
    2808:	0e 94 76 42 	call	0x84ec	; 0x84ec <printf_P>
		return;
    280c:	0f 90       	pop	r0
    280e:	0f 90       	pop	r0
    2810:	03 c0       	rjmp	.+6      	; 0x2818 <ADC_OscSpeed+0x38>
	}
	ADC_RegisterWrite(OPMODE_CFG, opmode_cfg );
    2812:	84 e0       	ldi	r24, 0x04	; 4
    2814:	0e 94 3a 2c 	call	0x5874	; 0x5874 <ADC_RegisterWrite>
}
    2818:	cf 91       	pop	r28
    281a:	08 95       	ret

0000281c <ADC_manualMode>:

//sets manual mode  and converts channel 0, which is available on next read (use ADC_ReadManualModeAnalogCh()). 
void ADC_manualMode(void)
{
	ADC_RegisterWrite(SEQUENCE_CFG, 0); // manual mode	
    281c:	60 e0       	ldi	r22, 0x00	; 0
    281e:	80 e1       	ldi	r24, 0x10	; 16
    2820:	0c 94 3a 2c 	jmp	0x5874	; 0x5874 <ADC_RegisterWrite>
    2824:	08 95       	ret

00002826 <ADC_ReadManualModeAnalogCh>:
void ADC_manualMode(void);


//  Channel reads ~40mA with no current.
uint16_t ADC_ReadManualModeAnalogCh(uint8_t NextChannel)
{
    2826:	1f 93       	push	r17
    2828:	cf 93       	push	r28
    282a:	df 93       	push	r29
    282c:	18 2f       	mov	r17, r24
	//	Manual mode should be selected first
	uint16_t adcRead = ADC_RegisterReadWrite(CHANNEL_SEL,  NextChannel);
    282e:	68 2f       	mov	r22, r24
    2830:	81 e1       	ldi	r24, 0x11	; 17
    2832:	0e 94 62 2c 	call	0x58c4	; 0x58c4 <ADC_RegisterReadWrite>
    2836:	d8 2f       	mov	r29, r24
    2838:	c9 2f       	mov	r28, r25
	printf ("channel = %u, adc = %X,  %u mA \n", NextChannel, adcRead, (uint16_t) (adcRead * 50000 / 4096.0) );
    283a:	28 2f       	mov	r18, r24
    283c:	39 2f       	mov	r19, r25
    283e:	a0 e5       	ldi	r26, 0x50	; 80
    2840:	b3 ec       	ldi	r27, 0xC3	; 195
    2842:	0e 94 20 40 	call	0x8040	; 0x8040 <__umulhisi3>
    2846:	0e 94 7d 3b 	call	0x76fa	; 0x76fa <__floatsisf>
    284a:	20 e0       	ldi	r18, 0x00	; 0
    284c:	30 e0       	ldi	r19, 0x00	; 0
    284e:	40 e8       	ldi	r20, 0x80	; 128
    2850:	59 e3       	ldi	r21, 0x39	; 57
    2852:	0e 94 e1 3b 	call	0x77c2	; 0x77c2 <__mulsf3>
    2856:	0e 94 4f 3b 	call	0x769e	; 0x769e <__fixunssfsi>
    285a:	7f 93       	push	r23
    285c:	6f 93       	push	r22
    285e:	cf 93       	push	r28
    2860:	df 93       	push	r29
    2862:	1f 92       	push	r1
    2864:	1f 93       	push	r17
    2866:	84 ea       	ldi	r24, 0xA4	; 164
    2868:	9a e0       	ldi	r25, 0x0A	; 10
    286a:	9f 93       	push	r25
    286c:	8f 93       	push	r24
    286e:	0e 94 63 42 	call	0x84c6	; 0x84c6 <printf>
	return adcRead;
    2872:	8d b7       	in	r24, 0x3d	; 61
    2874:	9e b7       	in	r25, 0x3e	; 62
    2876:	08 96       	adiw	r24, 0x08	; 8
    2878:	0f b6       	in	r0, 0x3f	; 63
    287a:	f8 94       	cli
    287c:	9e bf       	out	0x3e, r25	; 62
    287e:	0f be       	out	0x3f, r0	; 63
    2880:	8d bf       	out	0x3d, r24	; 61
}
    2882:	8d 2f       	mov	r24, r29
    2884:	9c 2f       	mov	r25, r28
    2886:	df 91       	pop	r29
    2888:	cf 91       	pop	r28
    288a:	1f 91       	pop	r17
    288c:	08 95       	ret

0000288e <nextADC>:
 ****************************/

// nextADC -- returns the next active channel--IT DOES NOT CHANGE THE ADC MUX

int8_t nextADC(int8_t current)
{
    288e:	cf 93       	push	r28
    2890:	df 93       	push	r29
    2892:	c8 2f       	mov	r28, r24
	uint8_t next = current;
	uint8_t i=0;  // used to check maximum of 16 channels
    2894:	20 e0       	ldi	r18, 0x00	; 0
	while (i++<17) {
    2896:	13 c0       	rjmp	.+38     	; 0x28be <nextADC+0x30>
		 ++next;
    2898:	cf 5f       	subi	r28, 0xFF	; 255
		 next %= 16;  // roll over;
    289a:	cf 70       	andi	r28, 0x0F	; 15
		 if (hdwConfig.activeADCs & (1<<next)){
    289c:	20 91 c1 15 	lds	r18, 0x15C1	; 0x8015c1 <hdwConfig>
    28a0:	30 91 c2 15 	lds	r19, 0x15C2	; 0x8015c2 <hdwConfig+0x1>
    28a4:	81 e0       	ldi	r24, 0x01	; 1
    28a6:	90 e0       	ldi	r25, 0x00	; 0
    28a8:	0c 2e       	mov	r0, r28
    28aa:	02 c0       	rjmp	.+4      	; 0x28b0 <nextADC+0x22>
    28ac:	88 0f       	add	r24, r24
    28ae:	99 1f       	adc	r25, r25
    28b0:	0a 94       	dec	r0
    28b2:	e2 f7       	brpl	.-8      	; 0x28ac <nextADC+0x1e>
    28b4:	82 23       	and	r24, r18
    28b6:	93 23       	and	r25, r19

int8_t nextADC(int8_t current)
{
	uint8_t next = current;
	uint8_t i=0;  // used to check maximum of 16 channels
	while (i++<17) {
    28b8:	2d 2f       	mov	r18, r29
		 ++next;
		 next %= 16;  // roll over;
		 if (hdwConfig.activeADCs & (1<<next)){
    28ba:	89 2b       	or	r24, r25
    28bc:	21 f4       	brne	.+8      	; 0x28c6 <nextADC+0x38>

int8_t nextADC(int8_t current)
{
	uint8_t next = current;
	uint8_t i=0;  // used to check maximum of 16 channels
	while (i++<17) {
    28be:	d1 e0       	ldi	r29, 0x01	; 1
    28c0:	d2 0f       	add	r29, r18
    28c2:	21 31       	cpi	r18, 0x11	; 17
    28c4:	48 f3       	brcs	.-46     	; 0x2898 <nextADC+0xa>
		 next %= 16;  // roll over;
		 if (hdwConfig.activeADCs & (1<<next)){
			 break;
		 }
	}
	if (i==17) {
    28c6:	d1 31       	cpi	r29, 0x11	; 17
    28c8:	41 f4       	brne	.+16     	; 0x28da <nextADC+0x4c>
	  printf_P(PSTR("ERROR: No ADC Channels active\n")); 		
    28ca:	88 e4       	ldi	r24, 0x48	; 72
    28cc:	92 e0       	ldi	r25, 0x02	; 2
    28ce:	9f 93       	push	r25
    28d0:	8f 93       	push	r24
    28d2:	0e 94 76 42 	call	0x84ec	; 0x84ec <printf_P>
    28d6:	0f 90       	pop	r0
    28d8:	0f 90       	pop	r0
	}
	return (i==17 ?  -1 : next);
    28da:	d1 31       	cpi	r29, 0x11	; 17
    28dc:	11 f0       	breq	.+4      	; 0x28e2 <nextADC+0x54>
    28de:	8c 2f       	mov	r24, r28
    28e0:	01 c0       	rjmp	.+2      	; 0x28e4 <nextADC+0x56>
    28e2:	8f ef       	ldi	r24, 0xFF	; 255
}
    28e4:	df 91       	pop	r29
    28e6:	cf 91       	pop	r28
    28e8:	08 95       	ret

000028ea <showActiveADCs>:

// prints the active ADC channels.  Bits 0-15 correspond to ADC 0-15.


void showActiveADCs(void)
{
    28ea:	cf 93       	push	r28
	for (uint8_t i=0; i<16;i++){
    28ec:	c0 e0       	ldi	r28, 0x00	; 0
    28ee:	1d c0       	rjmp	.+58     	; 0x292a <showActiveADCs+0x40>
		if (hdwConfig.activeADCs & (1<<i)){
    28f0:	20 91 c1 15 	lds	r18, 0x15C1	; 0x8015c1 <hdwConfig>
    28f4:	30 91 c2 15 	lds	r19, 0x15C2	; 0x8015c2 <hdwConfig+0x1>
    28f8:	81 e0       	ldi	r24, 0x01	; 1
    28fa:	90 e0       	ldi	r25, 0x00	; 0
    28fc:	0c 2e       	mov	r0, r28
    28fe:	02 c0       	rjmp	.+4      	; 0x2904 <showActiveADCs+0x1a>
    2900:	88 0f       	add	r24, r24
    2902:	99 1f       	adc	r25, r25
    2904:	0a 94       	dec	r0
    2906:	e2 f7       	brpl	.-8      	; 0x2900 <showActiveADCs+0x16>
    2908:	82 23       	and	r24, r18
    290a:	93 23       	and	r25, r19
    290c:	89 2b       	or	r24, r25
    290e:	61 f0       	breq	.+24     	; 0x2928 <showActiveADCs+0x3e>
			 printf_P(PSTR("%d "), i);
    2910:	1f 92       	push	r1
    2912:	cf 93       	push	r28
    2914:	84 e4       	ldi	r24, 0x44	; 68
    2916:	92 e0       	ldi	r25, 0x02	; 2
    2918:	9f 93       	push	r25
    291a:	8f 93       	push	r24
    291c:	0e 94 76 42 	call	0x84ec	; 0x84ec <printf_P>
    2920:	0f 90       	pop	r0
    2922:	0f 90       	pop	r0
    2924:	0f 90       	pop	r0
    2926:	0f 90       	pop	r0
// prints the active ADC channels.  Bits 0-15 correspond to ADC 0-15.


void showActiveADCs(void)
{
	for (uint8_t i=0; i<16;i++){
    2928:	cf 5f       	subi	r28, 0xFF	; 255
    292a:	c0 31       	cpi	r28, 0x10	; 16
    292c:	08 f3       	brcs	.-62     	; 0x28f0 <showActiveADCs+0x6>
		if (hdwConfig.activeADCs & (1<<i)){
			 printf_P(PSTR("%d "), i);
		}
	}
	printf_P(PSTR("\n"));
    292e:	82 e4       	ldi	r24, 0x42	; 66
    2930:	92 e0       	ldi	r25, 0x02	; 2
    2932:	9f 93       	push	r25
    2934:	8f 93       	push	r24
    2936:	0e 94 76 42 	call	0x84ec	; 0x84ec <printf_P>
	printf("active ADCs: 0x%02x\n", hdwConfig.activeADCs);
    293a:	e1 ec       	ldi	r30, 0xC1	; 193
    293c:	f5 e1       	ldi	r31, 0x15	; 21
    293e:	81 81       	ldd	r24, Z+1	; 0x01
    2940:	8f 93       	push	r24
    2942:	80 81       	ld	r24, Z
    2944:	8f 93       	push	r24
    2946:	85 ec       	ldi	r24, 0xC5	; 197
    2948:	9a e0       	ldi	r25, 0x0A	; 10
    294a:	9f 93       	push	r25
    294c:	8f 93       	push	r24
    294e:	0e 94 63 42 	call	0x84c6	; 0x84c6 <printf>
}
    2952:	0f 90       	pop	r0
    2954:	0f 90       	pop	r0
    2956:	0f 90       	pop	r0
    2958:	0f 90       	pop	r0
    295a:	0f 90       	pop	r0
    295c:	0f 90       	pop	r0
    295e:	cf 91       	pop	r28
    2960:	08 95       	ret

00002962 <incADC_MUX>:
int8_t incADC_MUX(int8_t channel)
{
  // channel is initially the last channel converted;
  // except first time through is set to 15 so it starts at channel 0;
  uint8_t next; 
  if ((next = nextADC(channel)) != -1) {  
    2962:	95 df       	rcall	.-214    	; 0x288e <nextADC>
	  ADMUX &= ~( _BV( MUX0) | _BV(MUX1) | _BV( MUX2) | _BV( MUX3) | _BV( MUX4) );  // clear lines MUX0 to MUX4.
    2964:	ec e7       	ldi	r30, 0x7C	; 124
    2966:	f0 e0       	ldi	r31, 0x00	; 0
    2968:	90 81       	ld	r25, Z
    296a:	90 7e       	andi	r25, 0xE0	; 224
    296c:	90 83       	st	Z, r25
	  ADMUX |=   next & (_BV( MUX0) | _BV(MUX1) | _BV( MUX2));
    296e:	90 81       	ld	r25, Z
    2970:	28 2f       	mov	r18, r24
    2972:	27 70       	andi	r18, 0x07	; 7
    2974:	92 2b       	or	r25, r18
    2976:	90 83       	st	Z, r25
	  if (next & 0x08)   // if  (16 > i >= 8)  set MUX5 bit;
    2978:	83 ff       	sbrs	r24, 3
    297a:	06 c0       	rjmp	.+12     	; 0x2988 <incADC_MUX+0x26>
		  ADCSRB |= _BV(MUX5);
    297c:	eb e7       	ldi	r30, 0x7B	; 123
    297e:	f0 e0       	ldi	r31, 0x00	; 0
    2980:	90 81       	ld	r25, Z
    2982:	98 60       	ori	r25, 0x08	; 8
    2984:	90 83       	st	Z, r25
    2986:	08 95       	ret
	  else
		  ADCSRB &= ~_BV(MUX5);
    2988:	eb e7       	ldi	r30, 0x7B	; 123
    298a:	f0 e0       	ldi	r31, 0x00	; 0
    298c:	90 81       	ld	r25, Z
    298e:	97 7f       	andi	r25, 0xF7	; 247
    2990:	90 83       	st	Z, r25
	
  }  

  return next;
}
    2992:	08 95       	ret

00002994 <__vector_29>:
/////////////////////////////////////////////////////////////////////////////



SIGNAL(ADC_vect) 
{ 
    2994:	1f 92       	push	r1
    2996:	0f 92       	push	r0
    2998:	0f b6       	in	r0, 0x3f	; 63
    299a:	0f 92       	push	r0
    299c:	11 24       	eor	r1, r1
    299e:	0b b6       	in	r0, 0x3b	; 59
    29a0:	0f 92       	push	r0
    29a2:	2f 93       	push	r18
    29a4:	3f 93       	push	r19
    29a6:	4f 93       	push	r20
    29a8:	5f 93       	push	r21
    29aa:	6f 93       	push	r22
    29ac:	7f 93       	push	r23
    29ae:	8f 93       	push	r24
    29b0:	9f 93       	push	r25
    29b2:	af 93       	push	r26
    29b4:	bf 93       	push	r27
    29b6:	ef 93       	push	r30
    29b8:	ff 93       	push	r31
  //static uint8_t k=0;	
//  PORTJ ^=0x04;	
  static uint16_t numReadings=0;  
    
  adcReadings[currentADCchannel] +=  ADCL;  // lower byte of adc value;
    29ba:	20 91 78 00 	lds	r18, 0x0078	; 0x800078 <__TEXT_REGION_LENGTH__+0x7c0078>
    29be:	40 91 94 13 	lds	r20, 0x1394	; 0x801394 <currentADCchannel>
    29c2:	64 2f       	mov	r22, r20
    29c4:	04 2e       	mov	r0, r20
    29c6:	00 0c       	add	r0, r0
    29c8:	77 0b       	sbc	r23, r23
    29ca:	fb 01       	movw	r30, r22
    29cc:	ee 0f       	add	r30, r30
    29ce:	ff 1f       	adc	r31, r31
    29d0:	e9 56       	subi	r30, 0x69	; 105
    29d2:	fc 4e       	sbci	r31, 0xEC	; 236
    29d4:	80 81       	ld	r24, Z
    29d6:	91 81       	ldd	r25, Z+1	; 0x01
    29d8:	dc 01       	movw	r26, r24
    29da:	a2 0f       	add	r26, r18
    29dc:	b1 1d       	adc	r27, r1
    29de:	9d 01       	movw	r18, r26
    29e0:	b1 83       	std	Z+1, r27	; 0x01
    29e2:	a0 83       	st	Z, r26
  adcReadings[currentADCchannel] += ( (uint16_t) ADCH) << 8   ;   // upper byte of adc value;
    29e4:	a9 e7       	ldi	r26, 0x79	; 121
    29e6:	b0 e0       	ldi	r27, 0x00	; 0
    29e8:	9c 91       	ld	r25, X
    29ea:	89 2f       	mov	r24, r25
    29ec:	90 e0       	ldi	r25, 0x00	; 0
    29ee:	98 2f       	mov	r25, r24
    29f0:	88 27       	eor	r24, r24
    29f2:	82 0f       	add	r24, r18
    29f4:	93 1f       	adc	r25, r19
    29f6:	91 83       	std	Z+1, r25	; 0x01
    29f8:	80 83       	st	Z, r24
  printf("%d %02x%02x %d:    ", currentADCchannel, ADCH, ADCH, adcReadings[currentADCchannel]);
    29fa:	3c 91       	ld	r19, X
    29fc:	2c 91       	ld	r18, X
    29fe:	9f 93       	push	r25
    2a00:	8f 93       	push	r24
    2a02:	1f 92       	push	r1
    2a04:	3f 93       	push	r19
    2a06:	1f 92       	push	r1
    2a08:	2f 93       	push	r18
    2a0a:	7f 93       	push	r23
    2a0c:	4f 93       	push	r20
    2a0e:	8a ed       	ldi	r24, 0xDA	; 218
    2a10:	9a e0       	ldi	r25, 0x0A	; 10
    2a12:	9f 93       	push	r25
    2a14:	8f 93       	push	r24
    2a16:	0e 94 63 42 	call	0x84c6	; 0x84c6 <printf>
 
  // set whichADC to next active channel
  currentADCchannel = incADC_MUX(currentADCchannel);
    2a1a:	80 91 94 13 	lds	r24, 0x1394	; 0x801394 <currentADCchannel>
    2a1e:	a1 df       	rcall	.-190    	; 0x2962 <incADC_MUX>
    2a20:	80 93 94 13 	sts	0x1394, r24	; 0x801394 <currentADCchannel>

  // After completing one cycle, don't start next conversion until we can get a local copy of readings  
  if (currentADCchannel == firstADCchannel)   {
    2a24:	90 91 95 13 	lds	r25, 0x1395	; 0x801395 <firstADCchannel>
    2a28:	2d b7       	in	r18, 0x3d	; 61
    2a2a:	3e b7       	in	r19, 0x3e	; 62
    2a2c:	26 5f       	subi	r18, 0xF6	; 246
    2a2e:	3f 4f       	sbci	r19, 0xFF	; 255
    2a30:	0f b6       	in	r0, 0x3f	; 63
    2a32:	f8 94       	cli
    2a34:	3e bf       	out	0x3e, r19	; 62
    2a36:	0f be       	out	0x3f, r0	; 63
    2a38:	2d bf       	out	0x3d, r18	; 61
    2a3a:	89 13       	cpse	r24, r25
    2a3c:	12 c0       	rjmp	.+36     	; 0x2a62 <__vector_29+0xce>
	 if (++numReadings == NUM_ADC_SUMS) {
    2a3e:	80 91 92 13 	lds	r24, 0x1392	; 0x801392 <numReadings.2095>
    2a42:	90 91 93 13 	lds	r25, 0x1393	; 0x801393 <numReadings.2095+0x1>
    2a46:	01 96       	adiw	r24, 0x01	; 1
    2a48:	90 93 93 13 	sts	0x1393, r25	; 0x801393 <numReadings.2095+0x1>
    2a4c:	80 93 92 13 	sts	0x1392, r24	; 0x801392 <numReadings.2095>
    2a50:	01 97       	sbiw	r24, 0x01	; 1
    2a52:	39 f4       	brne	.+14     	; 0x2a62 <__vector_29+0xce>
		 adcCompleteFlag = 1;  
    2a54:	81 e0       	ldi	r24, 0x01	; 1
    2a56:	80 93 96 13 	sts	0x1396, r24	; 0x801396 <adcCompleteFlag>
		 numReadings = 0;
    2a5a:	10 92 93 13 	sts	0x1393, r1	; 0x801393 <numReadings.2095+0x1>
    2a5e:	10 92 92 13 	sts	0x1392, r1	; 0x801392 <numReadings.2095>
	 }
  }
  if (!adcCompleteFlag)  {
    2a62:	80 91 96 13 	lds	r24, 0x1396	; 0x801396 <adcCompleteFlag>
    2a66:	81 11       	cpse	r24, r1
    2a68:	05 c0       	rjmp	.+10     	; 0x2a74 <__vector_29+0xe0>
	START_CONVERSION;
    2a6a:	ea e7       	ldi	r30, 0x7A	; 122
    2a6c:	f0 e0       	ldi	r31, 0x00	; 0
    2a6e:	80 81       	ld	r24, Z
    2a70:	80 64       	ori	r24, 0x40	; 64
    2a72:	80 83       	st	Z, r24
  }
}
    2a74:	ff 91       	pop	r31
    2a76:	ef 91       	pop	r30
    2a78:	bf 91       	pop	r27
    2a7a:	af 91       	pop	r26
    2a7c:	9f 91       	pop	r25
    2a7e:	8f 91       	pop	r24
    2a80:	7f 91       	pop	r23
    2a82:	6f 91       	pop	r22
    2a84:	5f 91       	pop	r21
    2a86:	4f 91       	pop	r20
    2a88:	3f 91       	pop	r19
    2a8a:	2f 91       	pop	r18
    2a8c:	0f 90       	pop	r0
    2a8e:	0b be       	out	0x3b, r0	; 59
    2a90:	0f 90       	pop	r0
    2a92:	0f be       	out	0x3f, r0	; 63
    2a94:	0f 90       	pop	r0
    2a96:	1f 90       	pop	r1
    2a98:	18 95       	reti

00002a9a <doAdc>:

/**********************************
 **********************************/

void doAdc(void)
{
    2a9a:	cf 93       	push	r28
	int8_t adcChannel = firstADCchannel;
    2a9c:	c0 91 95 13 	lds	r28, 0x1395	; 0x801395 <firstADCchannel>
	
	uint8_t i=0;
	do {
		if (i%4 == 0) printf("\n");
    2aa0:	8a e0       	ldi	r24, 0x0A	; 10
    2aa2:	90 e0       	ldi	r25, 0x00	; 0
    2aa4:	0e 94 9d 42 	call	0x853a	; 0x853a <putchar>
		printf("%d  %u;   ", adcChannel, adcReadings[adcChannel]);
    2aa8:	8c 2f       	mov	r24, r28
    2aaa:	0c 2e       	mov	r0, r28
    2aac:	00 0c       	add	r0, r0
    2aae:	99 0b       	sbc	r25, r25
    2ab0:	fc 01       	movw	r30, r24
    2ab2:	ee 0f       	add	r30, r30
    2ab4:	ff 1f       	adc	r31, r31
    2ab6:	e9 56       	subi	r30, 0x69	; 105
    2ab8:	fc 4e       	sbci	r31, 0xEC	; 236
    2aba:	81 81       	ldd	r24, Z+1	; 0x01
    2abc:	8f 93       	push	r24
    2abe:	80 81       	ld	r24, Z
    2ac0:	8f 93       	push	r24
    2ac2:	9f 93       	push	r25
    2ac4:	cf 93       	push	r28
    2ac6:	8e ee       	ldi	r24, 0xEE	; 238
    2ac8:	9a e0       	ldi	r25, 0x0A	; 10
    2aca:	9f 93       	push	r25
    2acc:	8f 93       	push	r24
    2ace:	0e 94 63 42 	call	0x84c6	; 0x84c6 <printf>
		adcChannel = nextADC(adcChannel);
    2ad2:	8c 2f       	mov	r24, r28
    2ad4:	dc de       	rcall	.-584    	; 0x288e <nextADC>
    2ad6:	c8 2f       	mov	r28, r24
	} while (adcChannel != firstADCchannel);
    2ad8:	80 91 95 13 	lds	r24, 0x1395	; 0x801395 <firstADCchannel>
    2adc:	0f 90       	pop	r0
    2ade:	0f 90       	pop	r0
    2ae0:	0f 90       	pop	r0
    2ae2:	0f 90       	pop	r0
    2ae4:	0f 90       	pop	r0
    2ae6:	0f 90       	pop	r0
    2ae8:	c8 13       	cpse	r28, r24
    2aea:	da cf       	rjmp	.-76     	; 0x2aa0 <doAdc+0x6>
}
    2aec:	cf 91       	pop	r28
    2aee:	08 95       	ret

00002af0 <startADCcycle>:


void startADCcycle(void) 
{
	adcCompleteFlag =0;
    2af0:	10 92 96 13 	sts	0x1396, r1	; 0x801396 <adcCompleteFlag>
	
	int8_t adcChannel = firstADCchannel;
    2af4:	80 91 95 13 	lds	r24, 0x1395	; 0x801395 <firstADCchannel>
	
	do {
		adcReadings[adcChannel] = 0;
    2af8:	e8 2f       	mov	r30, r24
    2afa:	ee 0f       	add	r30, r30
    2afc:	ff 0b       	sbc	r31, r31
    2afe:	e9 56       	subi	r30, 0x69	; 105
    2b00:	fc 4e       	sbci	r31, 0xEC	; 236
    2b02:	11 82       	std	Z+1, r1	; 0x01
    2b04:	10 82       	st	Z, r1
		adcChannel = nextADC(adcChannel);		
    2b06:	c3 de       	rcall	.-634    	; 0x288e <nextADC>
	} while (adcChannel != firstADCchannel);
    2b08:	90 91 95 13 	lds	r25, 0x1395	; 0x801395 <firstADCchannel>
    2b0c:	89 13       	cpse	r24, r25
    2b0e:	f4 cf       	rjmp	.-24     	; 0x2af8 <startADCcycle+0x8>
	START_CONVERSION;
    2b10:	ea e7       	ldi	r30, 0x7A	; 122
    2b12:	f0 e0       	ldi	r31, 0x00	; 0
    2b14:	80 81       	ld	r24, Z
    2b16:	80 64       	ori	r24, 0x40	; 64
    2b18:	80 83       	st	Z, r24
    2b1a:	08 95       	ret

00002b1c <init_adc>:
	//4: ADATE -- ADC auto Trigger enable; not using. if one triggers selected by ADTS bits in ADCSRB 
	//3: ADIF -- ADC interrupt flag. 1 on completion of conversion
	//2:0  ADPS2:0: ADC Prescaler Select Bits. These bits determine the division factor between the XTAL frequency and the input clock to the ADC.
	//   divisor is 2^n for ADPS2:0 = n if n 1 to 7; but divisior is 2 for ADPS2:0 = 0.  ADC clock must be between 50kHz and 200 kHz for 10 bit accuracy
	
	firstADCchannel = currentADCchannel =  incADC_MUX(15);  // next after channel 15 is ADC0 
    2b1c:	8f e0       	ldi	r24, 0x0F	; 15
    2b1e:	21 df       	rcall	.-446    	; 0x2962 <incADC_MUX>
    2b20:	80 93 94 13 	sts	0x1394, r24	; 0x801394 <currentADCchannel>
    2b24:	80 93 95 13 	sts	0x1395, r24	; 0x801395 <firstADCchannel>

	if (currentADCchannel != -1)  {		
    2b28:	8f 3f       	cpi	r24, 0xFF	; 255
    2b2a:	71 f0       	breq	.+28     	; 0x2b48 <init_adc+0x2c>
		START_CONVERSION;
    2b2c:	ea e7       	ldi	r30, 0x7A	; 122
    2b2e:	f0 e0       	ldi	r31, 0x00	; 0
    2b30:	80 81       	ld	r24, Z
    2b32:	80 64       	ori	r24, 0x40	; 64
    2b34:	80 83       	st	Z, r24
		ADCSRA = _BV(ADEN) | _BV(ADIE) | _BV(ADPS2) | _BV(ADPS1)| _BV(ADPS0);  //  enable interrupt, enable ADC, ADC freq is F_CPU / 128 = 115.2 KHz.
    2b36:	8f e8       	ldi	r24, 0x8F	; 143
    2b38:	80 83       	st	Z, r24
		DIDR0 = 0xFF;   // disable digital buffer on pins F0 to F7 to save power.
    2b3a:	8f ef       	ldi	r24, 0xFF	; 255
    2b3c:	80 93 7e 00 	sts	0x007E, r24	; 0x80007e <__TEXT_REGION_LENGTH__+0x7c007e>
		DIDR1 = 0xFF;   // disable digital buffer on pins K0 to K7 to save power	
    2b40:	80 93 7f 00 	sts	0x007F, r24	; 0x80007f <__TEXT_REGION_LENGTH__+0x7c007f>
		startADCcycle();		
    2b44:	d5 cf       	rjmp	.-86     	; 0x2af0 <startADCcycle>
    2b46:	08 95       	ret
	} 
	else { 
		printf_P("ERROR: No ADCs Active\n");
    2b48:	89 ef       	ldi	r24, 0xF9	; 249
    2b4a:	9a e0       	ldi	r25, 0x0A	; 10
    2b4c:	9f 93       	push	r25
    2b4e:	8f 93       	push	r24
    2b50:	0e 94 76 42 	call	0x84ec	; 0x84ec <printf_P>
    2b54:	0f 90       	pop	r0
    2b56:	0f 90       	pop	r0
    2b58:	08 95       	ret

00002b5a <spi_nand_ecc_status>:
		spi_nand_error("program page 0x%x failed\n", page_dst);
		return -EIO;
	}

	return 0;
}
    2b5a:	80 77       	andi	r24, 0x70	; 112
    2b5c:	99 27       	eor	r25, r25
    2b5e:	21 e0       	ldi	r18, 0x01	; 1
    2b60:	30 e0       	ldi	r19, 0x00	; 0
    2b62:	80 32       	cpi	r24, 0x20	; 32
    2b64:	91 05       	cpc	r25, r1
    2b66:	11 f0       	breq	.+4      	; 0x2b6c <spi_nand_ecc_status+0x12>
    2b68:	20 e0       	ldi	r18, 0x00	; 0
    2b6a:	30 e0       	ldi	r19, 0x00	; 0
    2b6c:	fa 01       	movw	r30, r20
    2b6e:	31 83       	std	Z+1, r19	; 0x01
    2b70:	20 83       	st	Z, r18
    2b72:	80 31       	cpi	r24, 0x10	; 16
    2b74:	91 05       	cpc	r25, r1
    2b76:	79 f0       	breq	.+30     	; 0x2b96 <spi_nand_ecc_status+0x3c>
    2b78:	18 f4       	brcc	.+6      	; 0x2b80 <spi_nand_ecc_status+0x26>
    2b7a:	89 2b       	or	r24, r25
    2b7c:	41 f0       	breq	.+16     	; 0x2b8e <spi_nand_ecc_status+0x34>
    2b7e:	08 95       	ret
    2b80:	80 33       	cpi	r24, 0x30	; 48
    2b82:	91 05       	cpc	r25, r1
    2b84:	71 f0       	breq	.+28     	; 0x2ba2 <spi_nand_ecc_status+0x48>
    2b86:	80 35       	cpi	r24, 0x50	; 80
    2b88:	91 05       	cpc	r25, r1
    2b8a:	89 f0       	breq	.+34     	; 0x2bae <spi_nand_ecc_status+0x54>
    2b8c:	08 95       	ret
    2b8e:	fb 01       	movw	r30, r22
    2b90:	11 82       	std	Z+1, r1	; 0x01
    2b92:	10 82       	st	Z, r1
    2b94:	08 95       	ret
    2b96:	83 e0       	ldi	r24, 0x03	; 3
    2b98:	90 e0       	ldi	r25, 0x00	; 0
    2b9a:	fb 01       	movw	r30, r22
    2b9c:	91 83       	std	Z+1, r25	; 0x01
    2b9e:	80 83       	st	Z, r24
    2ba0:	08 95       	ret
    2ba2:	86 e0       	ldi	r24, 0x06	; 6
    2ba4:	90 e0       	ldi	r25, 0x00	; 0
    2ba6:	fb 01       	movw	r30, r22
    2ba8:	91 83       	std	Z+1, r25	; 0x01
    2baa:	80 83       	st	Z, r24
    2bac:	08 95       	ret
    2bae:	88 e0       	ldi	r24, 0x08	; 8
    2bb0:	90 e0       	ldi	r25, 0x00	; 0
    2bb2:	fb 01       	movw	r30, r22
    2bb4:	91 83       	std	Z+1, r25	; 0x01
    2bb6:	80 83       	st	Z, r24
    2bb8:	08 95       	ret

00002bba <ilog2>:
    2bba:	0f 93       	push	r16
    2bbc:	1f 93       	push	r17
    2bbe:	8b 01       	movw	r16, r22
    2bc0:	9c 01       	movw	r18, r24
    2bc2:	80 e0       	ldi	r24, 0x00	; 0
    2bc4:	01 c0       	rjmp	.+2      	; 0x2bc8 <ilog2+0xe>
    2bc6:	8f 5f       	subi	r24, 0xFF	; 255
    2bc8:	41 e0       	ldi	r20, 0x01	; 1
    2bca:	50 e0       	ldi	r21, 0x00	; 0
    2bcc:	60 e0       	ldi	r22, 0x00	; 0
    2bce:	70 e0       	ldi	r23, 0x00	; 0
    2bd0:	08 2e       	mov	r0, r24
    2bd2:	04 c0       	rjmp	.+8      	; 0x2bdc <ilog2+0x22>
    2bd4:	44 0f       	add	r20, r20
    2bd6:	55 1f       	adc	r21, r21
    2bd8:	66 1f       	adc	r22, r22
    2bda:	77 1f       	adc	r23, r23
    2bdc:	0a 94       	dec	r0
    2bde:	d2 f7       	brpl	.-12     	; 0x2bd4 <ilog2+0x1a>
    2be0:	40 17       	cp	r20, r16
    2be2:	51 07       	cpc	r21, r17
    2be4:	62 07       	cpc	r22, r18
    2be6:	73 07       	cpc	r23, r19
    2be8:	70 f3       	brcs	.-36     	; 0x2bc6 <ilog2+0xc>
    2bea:	1f 91       	pop	r17
    2bec:	0f 91       	pop	r16
    2bee:	08 95       	ret

00002bf0 <spi_nand_scan_id_table>:
    2bf0:	2f 92       	push	r2
    2bf2:	3f 92       	push	r3
    2bf4:	4f 92       	push	r4
    2bf6:	5f 92       	push	r5
    2bf8:	6f 92       	push	r6
    2bfa:	7f 92       	push	r7
    2bfc:	8f 92       	push	r8
    2bfe:	9f 92       	push	r9
    2c00:	af 92       	push	r10
    2c02:	bf 92       	push	r11
    2c04:	cf 92       	push	r12
    2c06:	df 92       	push	r13
    2c08:	ef 92       	push	r14
    2c0a:	ff 92       	push	r15
    2c0c:	0f 93       	push	r16
    2c0e:	1f 93       	push	r17
    2c10:	cf 93       	push	r28
    2c12:	df 93       	push	r29
    2c14:	cd b7       	in	r28, 0x3d	; 61
    2c16:	de b7       	in	r29, 0x3e	; 62
    2c18:	2a 97       	sbiw	r28, 0x0a	; 10
    2c1a:	0f b6       	in	r0, 0x3f	; 63
    2c1c:	f8 94       	cli
    2c1e:	de bf       	out	0x3e, r29	; 62
    2c20:	0f be       	out	0x3f, r0	; 63
    2c22:	cd bf       	out	0x3d, r28	; 61
    2c24:	4c 01       	movw	r8, r24
    2c26:	fb 01       	movw	r30, r22
    2c28:	0f 2e       	mov	r0, r31
    2c2a:	f1 e1       	ldi	r31, 0x11	; 17
    2c2c:	6f 2e       	mov	r6, r31
    2c2e:	f6 e0       	ldi	r31, 0x06	; 6
    2c30:	7f 2e       	mov	r7, r31
    2c32:	f0 2d       	mov	r31, r0
    2c34:	cf c0       	rjmp	.+414    	; 0x2dd4 <spi_nand_scan_id_table+0x1e4>
    2c36:	40 81       	ld	r20, Z
    2c38:	d3 01       	movw	r26, r6
    2c3a:	12 96       	adiw	r26, 0x02	; 2
    2c3c:	9c 91       	ld	r25, X
    2c3e:	12 97       	sbiw	r26, 0x02	; 2
    2c40:	49 13       	cpse	r20, r25
    2c42:	c5 c0       	rjmp	.+394    	; 0x2dce <spi_nand_scan_id_table+0x1de>
    2c44:	41 81       	ldd	r20, Z+1	; 0x01
    2c46:	13 96       	adiw	r26, 0x03	; 3
    2c48:	9c 91       	ld	r25, X
    2c4a:	13 97       	sbiw	r26, 0x03	; 3
    2c4c:	49 13       	cpse	r20, r25
    2c4e:	bf c0       	rjmp	.+382    	; 0x2dce <spi_nand_scan_id_table+0x1de>
    2c50:	f4 01       	movw	r30, r8
    2c52:	31 83       	std	Z+1, r19	; 0x01
    2c54:	20 83       	st	Z, r18
    2c56:	14 96       	adiw	r26, 0x04	; 4
    2c58:	8d 91       	ld	r24, X+
    2c5a:	9d 91       	ld	r25, X+
    2c5c:	0d 90       	ld	r0, X+
    2c5e:	bc 91       	ld	r27, X
    2c60:	a0 2d       	mov	r26, r0
    2c62:	5c 01       	movw	r10, r24
    2c64:	6d 01       	movw	r12, r26
    2c66:	e1 2c       	mov	r14, r1
    2c68:	f1 2c       	mov	r15, r1
    2c6a:	87 01       	movw	r16, r14
    2c6c:	89 83       	std	Y+1, r24	; 0x01
    2c6e:	ba 82       	std	Y+2, r11	; 0x02
    2c70:	cb 82       	std	Y+3, r12	; 0x03
    2c72:	dc 82       	std	Y+4, r13	; 0x04
    2c74:	ed 82       	std	Y+5, r14	; 0x05
    2c76:	fe 82       	std	Y+6, r15	; 0x06
    2c78:	0f 83       	std	Y+7, r16	; 0x07
    2c7a:	18 87       	std	Y+8, r17	; 0x08
    2c7c:	d3 01       	movw	r26, r6
    2c7e:	1c 96       	adiw	r26, 0x0c	; 12
    2c80:	0d 91       	ld	r16, X+
    2c82:	1d 91       	ld	r17, X+
    2c84:	2d 91       	ld	r18, X+
    2c86:	3c 91       	ld	r19, X
    2c88:	1f 97       	sbiw	r26, 0x0f	; 15
    2c8a:	a0 2e       	mov	r10, r16
    2c8c:	b1 2e       	mov	r11, r17
    2c8e:	c2 2e       	mov	r12, r18
    2c90:	d3 2e       	mov	r13, r19
    2c92:	e1 2c       	mov	r14, r1
    2c94:	f1 2c       	mov	r15, r1
    2c96:	00 e0       	ldi	r16, 0x00	; 0
    2c98:	10 e0       	ldi	r17, 0x00	; 0
    2c9a:	29 81       	ldd	r18, Y+1	; 0x01
    2c9c:	3a 81       	ldd	r19, Y+2	; 0x02
    2c9e:	4b 81       	ldd	r20, Y+3	; 0x03
    2ca0:	5c 81       	ldd	r21, Y+4	; 0x04
    2ca2:	60 e0       	ldi	r22, 0x00	; 0
    2ca4:	70 e0       	ldi	r23, 0x00	; 0
    2ca6:	80 e0       	ldi	r24, 0x00	; 0
    2ca8:	90 e0       	ldi	r25, 0x00	; 0
    2caa:	0e 94 3f 40 	call	0x807e	; 0x807e <__muldi3>
    2cae:	f3 01       	movw	r30, r6
    2cb0:	20 88       	ldd	r2, Z+16	; 0x10
    2cb2:	31 88       	ldd	r3, Z+17	; 0x11
    2cb4:	42 88       	ldd	r4, Z+18	; 0x12
    2cb6:	53 88       	ldd	r5, Z+19	; 0x13
    2cb8:	62 01       	movw	r12, r4
    2cba:	51 01       	movw	r10, r2
    2cbc:	e1 2c       	mov	r14, r1
    2cbe:	f1 2c       	mov	r15, r1
    2cc0:	87 01       	movw	r16, r14
    2cc2:	29 82       	std	Y+1, r2	; 0x01
    2cc4:	ba 82       	std	Y+2, r11	; 0x02
    2cc6:	cb 82       	std	Y+3, r12	; 0x03
    2cc8:	dc 82       	std	Y+4, r13	; 0x04
    2cca:	ed 82       	std	Y+5, r14	; 0x05
    2ccc:	fe 82       	std	Y+6, r15	; 0x06
    2cce:	0f 83       	std	Y+7, r16	; 0x07
    2cd0:	18 87       	std	Y+8, r17	; 0x08
    2cd2:	e1 2c       	mov	r14, r1
    2cd4:	f1 2c       	mov	r15, r1
    2cd6:	00 e0       	ldi	r16, 0x00	; 0
    2cd8:	10 e0       	ldi	r17, 0x00	; 0
    2cda:	0e 94 3f 40 	call	0x807e	; 0x807e <__muldi3>
    2cde:	d3 01       	movw	r26, r6
    2ce0:	54 96       	adiw	r26, 0x14	; 20
    2ce2:	2d 90       	ld	r2, X+
    2ce4:	3d 90       	ld	r3, X+
    2ce6:	4d 90       	ld	r4, X+
    2ce8:	5c 90       	ld	r5, X
    2cea:	57 97       	sbiw	r26, 0x17	; 23
    2cec:	62 01       	movw	r12, r4
    2cee:	51 01       	movw	r10, r2
    2cf0:	e1 2c       	mov	r14, r1
    2cf2:	f1 2c       	mov	r15, r1
    2cf4:	87 01       	movw	r16, r14
    2cf6:	29 82       	std	Y+1, r2	; 0x01
    2cf8:	ba 82       	std	Y+2, r11	; 0x02
    2cfa:	cb 82       	std	Y+3, r12	; 0x03
    2cfc:	dc 82       	std	Y+4, r13	; 0x04
    2cfe:	ed 82       	std	Y+5, r14	; 0x05
    2d00:	fe 82       	std	Y+6, r15	; 0x06
    2d02:	0f 83       	std	Y+7, r16	; 0x07
    2d04:	18 87       	std	Y+8, r17	; 0x08
    2d06:	e1 2c       	mov	r14, r1
    2d08:	f1 2c       	mov	r15, r1
    2d0a:	00 e0       	ldi	r16, 0x00	; 0
    2d0c:	10 e0       	ldi	r17, 0x00	; 0
    2d0e:	0e 94 3f 40 	call	0x807e	; 0x807e <__muldi3>
    2d12:	d4 01       	movw	r26, r8
    2d14:	1b 96       	adiw	r26, 0x0b	; 11
    2d16:	2c 93       	st	X, r18
    2d18:	1b 97       	sbiw	r26, 0x0b	; 11
    2d1a:	1c 96       	adiw	r26, 0x0c	; 12
    2d1c:	3c 93       	st	X, r19
    2d1e:	1c 97       	sbiw	r26, 0x0c	; 12
    2d20:	1d 96       	adiw	r26, 0x0d	; 13
    2d22:	4c 93       	st	X, r20
    2d24:	1d 97       	sbiw	r26, 0x0d	; 13
    2d26:	1e 96       	adiw	r26, 0x0e	; 14
    2d28:	5c 93       	st	X, r21
    2d2a:	1e 97       	sbiw	r26, 0x0e	; 14
    2d2c:	1f 96       	adiw	r26, 0x0f	; 15
    2d2e:	6c 93       	st	X, r22
    2d30:	1f 97       	sbiw	r26, 0x0f	; 15
    2d32:	50 96       	adiw	r26, 0x10	; 16
    2d34:	7c 93       	st	X, r23
    2d36:	50 97       	sbiw	r26, 0x10	; 16
    2d38:	51 96       	adiw	r26, 0x11	; 17
    2d3a:	8c 93       	st	X, r24
    2d3c:	51 97       	sbiw	r26, 0x11	; 17
    2d3e:	52 96       	adiw	r26, 0x12	; 18
    2d40:	9c 93       	st	X, r25
    2d42:	f3 01       	movw	r30, r6
    2d44:	24 81       	ldd	r18, Z+4	; 0x04
    2d46:	35 81       	ldd	r19, Z+5	; 0x05
    2d48:	46 81       	ldd	r20, Z+6	; 0x06
    2d4a:	57 81       	ldd	r21, Z+7	; 0x07
    2d4c:	64 85       	ldd	r22, Z+12	; 0x0c
    2d4e:	75 85       	ldd	r23, Z+13	; 0x0d
    2d50:	86 85       	ldd	r24, Z+14	; 0x0e
    2d52:	97 85       	ldd	r25, Z+15	; 0x0f
    2d54:	0e 94 f5 3f 	call	0x7fea	; 0x7fea <__mulsi3>
    2d58:	9b 01       	movw	r18, r22
    2d5a:	ac 01       	movw	r20, r24
    2d5c:	d4 01       	movw	r26, r8
    2d5e:	53 96       	adiw	r26, 0x13	; 19
    2d60:	6d 93       	st	X+, r22
    2d62:	7d 93       	st	X+, r23
    2d64:	8d 93       	st	X+, r24
    2d66:	9c 93       	st	X, r25
    2d68:	56 97       	sbiw	r26, 0x16	; 22
    2d6a:	84 81       	ldd	r24, Z+4	; 0x04
    2d6c:	95 81       	ldd	r25, Z+5	; 0x05
    2d6e:	a6 81       	ldd	r26, Z+6	; 0x06
    2d70:	b7 81       	ldd	r27, Z+7	; 0x07
    2d72:	f4 01       	movw	r30, r8
    2d74:	90 8f       	std	Z+24, r25	; 0x18
    2d76:	87 8b       	std	Z+23, r24	; 0x17
    2d78:	f3 01       	movw	r30, r6
    2d7a:	80 85       	ldd	r24, Z+8	; 0x08
    2d7c:	91 85       	ldd	r25, Z+9	; 0x09
    2d7e:	a2 85       	ldd	r26, Z+10	; 0x0a
    2d80:	b3 85       	ldd	r27, Z+11	; 0x0b
    2d82:	f4 01       	movw	r30, r8
    2d84:	92 8f       	std	Z+26, r25	; 0x1a
    2d86:	81 8f       	std	Z+25, r24	; 0x19
    2d88:	d3 01       	movw	r26, r6
    2d8a:	50 96       	adiw	r26, 0x10	; 16
    2d8c:	6d 91       	ld	r22, X+
    2d8e:	7d 91       	ld	r23, X+
    2d90:	8d 91       	ld	r24, X+
    2d92:	9c 91       	ld	r25, X
    2d94:	53 97       	sbiw	r26, 0x13	; 19
    2d96:	0e 94 f5 3f 	call	0x7fea	; 0x7fea <__mulsi3>
    2d9a:	0f df       	rcall	.-482    	; 0x2bba <ilog2>
    2d9c:	f4 01       	movw	r30, r8
    2d9e:	83 8f       	std	Z+27, r24	; 0x1b
    2da0:	f3 01       	movw	r30, r6
    2da2:	80 8d       	ldd	r24, Z+24	; 0x18
    2da4:	91 8d       	ldd	r25, Z+25	; 0x19
    2da6:	a2 8d       	ldd	r26, Z+26	; 0x1a
    2da8:	b3 8d       	ldd	r27, Z+27	; 0x1b
    2daa:	f4 01       	movw	r30, r8
    2dac:	84 a3       	std	Z+36, r24	; 0x24
    2dae:	95 a3       	std	Z+37, r25	; 0x25
    2db0:	a6 a3       	std	Z+38, r26	; 0x26
    2db2:	b7 a3       	std	Z+39, r27	; 0x27
    2db4:	f3 01       	movw	r30, r6
    2db6:	84 8d       	ldd	r24, Z+28	; 0x1c
    2db8:	95 8d       	ldd	r25, Z+29	; 0x1d
    2dba:	a6 8d       	ldd	r26, Z+30	; 0x1e
    2dbc:	b7 8d       	ldd	r27, Z+31	; 0x1f
    2dbe:	f4 01       	movw	r30, r8
    2dc0:	80 a3       	std	Z+32, r24	; 0x20
    2dc2:	91 a3       	std	Z+33, r25	; 0x21
    2dc4:	a2 a3       	std	Z+34, r26	; 0x22
    2dc6:	b3 a3       	std	Z+35, r27	; 0x23
    2dc8:	81 e0       	ldi	r24, 0x01	; 1
    2dca:	90 e0       	ldi	r25, 0x00	; 0
    2dcc:	0c c0       	rjmp	.+24     	; 0x2de6 <spi_nand_scan_id_table+0x1f6>
    2dce:	00 e2       	ldi	r16, 0x20	; 32
    2dd0:	60 0e       	add	r6, r16
    2dd2:	71 1c       	adc	r7, r1
    2dd4:	d3 01       	movw	r26, r6
    2dd6:	2d 91       	ld	r18, X+
    2dd8:	3c 91       	ld	r19, X
    2dda:	21 15       	cp	r18, r1
    2ddc:	31 05       	cpc	r19, r1
    2dde:	09 f0       	breq	.+2      	; 0x2de2 <spi_nand_scan_id_table+0x1f2>
    2de0:	2a cf       	rjmp	.-428    	; 0x2c36 <spi_nand_scan_id_table+0x46>
    2de2:	80 e0       	ldi	r24, 0x00	; 0
    2de4:	90 e0       	ldi	r25, 0x00	; 0
    2de6:	2a 96       	adiw	r28, 0x0a	; 10
    2de8:	0f b6       	in	r0, 0x3f	; 63
    2dea:	f8 94       	cli
    2dec:	de bf       	out	0x3e, r29	; 62
    2dee:	0f be       	out	0x3f, r0	; 63
    2df0:	cd bf       	out	0x3d, r28	; 61
    2df2:	df 91       	pop	r29
    2df4:	cf 91       	pop	r28
    2df6:	1f 91       	pop	r17
    2df8:	0f 91       	pop	r16
    2dfa:	ff 90       	pop	r15
    2dfc:	ef 90       	pop	r14
    2dfe:	df 90       	pop	r13
    2e00:	cf 90       	pop	r12
    2e02:	bf 90       	pop	r11
    2e04:	af 90       	pop	r10
    2e06:	9f 90       	pop	r9
    2e08:	8f 90       	pop	r8
    2e0a:	7f 90       	pop	r7
    2e0c:	6f 90       	pop	r6
    2e0e:	5f 90       	pop	r5
    2e10:	4f 90       	pop	r4
    2e12:	3f 90       	pop	r3
    2e14:	2f 90       	pop	r2
    2e16:	08 95       	ret

00002e18 <onfi_crc16>:
    2e18:	cf 93       	push	r28
    2e1a:	df 93       	push	r29
    2e1c:	eb 01       	movw	r28, r22
    2e1e:	1e c0       	rjmp	.+60     	; 0x2e5c <onfi_crc16+0x44>
    2e20:	de 01       	movw	r26, r28
    2e22:	11 96       	adiw	r26, 0x01	; 1
    2e24:	28 81       	ld	r18, Y
    2e26:	30 e0       	ldi	r19, 0x00	; 0
    2e28:	32 2f       	mov	r19, r18
    2e2a:	22 27       	eor	r18, r18
    2e2c:	82 27       	eor	r24, r18
    2e2e:	93 27       	eor	r25, r19
    2e30:	20 e0       	ldi	r18, 0x00	; 0
    2e32:	30 e0       	ldi	r19, 0x00	; 0
    2e34:	0e c0       	rjmp	.+28     	; 0x2e52 <onfi_crc16+0x3a>
    2e36:	ac 01       	movw	r20, r24
    2e38:	44 0f       	add	r20, r20
    2e3a:	55 1f       	adc	r21, r21
    2e3c:	99 23       	and	r25, r25
    2e3e:	1c f4       	brge	.+6      	; 0x2e46 <onfi_crc16+0x2e>
    2e40:	85 e0       	ldi	r24, 0x05	; 5
    2e42:	90 e8       	ldi	r25, 0x80	; 128
    2e44:	02 c0       	rjmp	.+4      	; 0x2e4a <onfi_crc16+0x32>
    2e46:	80 e0       	ldi	r24, 0x00	; 0
    2e48:	90 e0       	ldi	r25, 0x00	; 0
    2e4a:	84 27       	eor	r24, r20
    2e4c:	95 27       	eor	r25, r21
    2e4e:	2f 5f       	subi	r18, 0xFF	; 255
    2e50:	3f 4f       	sbci	r19, 0xFF	; 255
    2e52:	28 30       	cpi	r18, 0x08	; 8
    2e54:	31 05       	cpc	r19, r1
    2e56:	7c f3       	brlt	.-34     	; 0x2e36 <onfi_crc16+0x1e>
    2e58:	af 01       	movw	r20, r30
    2e5a:	ed 01       	movw	r28, r26
    2e5c:	fa 01       	movw	r30, r20
    2e5e:	31 97       	sbiw	r30, 0x01	; 1
    2e60:	45 2b       	or	r20, r21
    2e62:	f1 f6       	brne	.-68     	; 0x2e20 <onfi_crc16+0x8>
    2e64:	df 91       	pop	r29
    2e66:	cf 91       	pop	r28
    2e68:	08 95       	ret

00002e6a <sanitize_string>:
    2e6a:	dc 01       	movw	r26, r24
    2e6c:	61 50       	subi	r22, 0x01	; 1
    2e6e:	71 09       	sbc	r23, r1
    2e70:	9b 01       	movw	r18, r22
    2e72:	21 50       	subi	r18, 0x01	; 1
    2e74:	31 09       	sbc	r19, r1
    2e76:	fc 01       	movw	r30, r24
    2e78:	e6 0f       	add	r30, r22
    2e7a:	f7 1f       	adc	r31, r23
    2e7c:	10 82       	st	Z, r1
    2e7e:	03 c0       	rjmp	.+6      	; 0x2e86 <sanitize_string+0x1c>
    2e80:	21 50       	subi	r18, 0x01	; 1
    2e82:	31 09       	sbc	r19, r1
    2e84:	10 82       	st	Z, r1
    2e86:	33 23       	and	r19, r19
    2e88:	b4 f0       	brlt	.+44     	; 0x2eb6 <sanitize_string+0x4c>
    2e8a:	fd 01       	movw	r30, r26
    2e8c:	e2 0f       	add	r30, r18
    2e8e:	f3 1f       	adc	r31, r19
    2e90:	90 81       	ld	r25, Z
    2e92:	91 52       	subi	r25, 0x21	; 33
    2e94:	9f 35       	cpi	r25, 0x5F	; 95
    2e96:	a0 f7       	brcc	.-24     	; 0x2e80 <sanitize_string+0x16>
    2e98:	40 e0       	ldi	r20, 0x00	; 0
    2e9a:	50 e0       	ldi	r21, 0x00	; 0
    2e9c:	0e c0       	rjmp	.+28     	; 0x2eba <sanitize_string+0x50>
    2e9e:	fd 01       	movw	r30, r26
    2ea0:	e4 0f       	add	r30, r20
    2ea2:	f5 1f       	adc	r31, r21
    2ea4:	90 81       	ld	r25, Z
    2ea6:	90 52       	subi	r25, 0x20	; 32
    2ea8:	90 36       	cpi	r25, 0x60	; 96
    2eaa:	10 f0       	brcs	.+4      	; 0x2eb0 <sanitize_string+0x46>
    2eac:	8f e3       	ldi	r24, 0x3F	; 63
    2eae:	80 83       	st	Z, r24
    2eb0:	4f 5f       	subi	r20, 0xFF	; 255
    2eb2:	5f 4f       	sbci	r21, 0xFF	; 255
    2eb4:	02 c0       	rjmp	.+4      	; 0x2eba <sanitize_string+0x50>
    2eb6:	40 e0       	ldi	r20, 0x00	; 0
    2eb8:	50 e0       	ldi	r21, 0x00	; 0
    2eba:	24 17       	cp	r18, r20
    2ebc:	35 07       	cpc	r19, r21
    2ebe:	7c f7       	brge	.-34     	; 0x2e9e <sanitize_string+0x34>
    2ec0:	08 95       	ret

00002ec2 <spi_nand_set_rd_wr_op>:
    2ec2:	fc 01       	movw	r30, r24
    2ec4:	a2 81       	ldd	r26, Z+2	; 0x02
    2ec6:	b3 81       	ldd	r27, Z+3	; 0x03
    2ec8:	8c 91       	ld	r24, X
    2eca:	83 ff       	sbrs	r24, 3
    2ecc:	03 c0       	rjmp	.+6      	; 0x2ed4 <spi_nand_set_rd_wr_op+0x12>
    2ece:	8b ee       	ldi	r24, 0xEB	; 235
    2ed0:	86 83       	std	Z+6, r24	; 0x06
    2ed2:	07 c0       	rjmp	.+14     	; 0x2ee2 <spi_nand_set_rd_wr_op+0x20>
    2ed4:	81 ff       	sbrs	r24, 1
    2ed6:	03 c0       	rjmp	.+6      	; 0x2ede <spi_nand_set_rd_wr_op+0x1c>
    2ed8:	8b eb       	ldi	r24, 0xBB	; 187
    2eda:	86 83       	std	Z+6, r24	; 0x06
    2edc:	02 c0       	rjmp	.+4      	; 0x2ee2 <spi_nand_set_rd_wr_op+0x20>
    2ede:	8b e0       	ldi	r24, 0x0B	; 11
    2ee0:	86 83       	std	Z+6, r24	; 0x06
    2ee2:	11 96       	adiw	r26, 0x01	; 1
    2ee4:	8c 91       	ld	r24, X
    2ee6:	80 ff       	sbrs	r24, 0
    2ee8:	05 c0       	rjmp	.+10     	; 0x2ef4 <spi_nand_set_rd_wr_op+0x32>
    2eea:	82 e3       	ldi	r24, 0x32	; 50
    2eec:	87 83       	std	Z+7, r24	; 0x07
    2eee:	84 e3       	ldi	r24, 0x34	; 52
    2ef0:	80 87       	std	Z+8, r24	; 0x08
    2ef2:	08 95       	ret
    2ef4:	82 e0       	ldi	r24, 0x02	; 2
    2ef6:	87 83       	std	Z+7, r24	; 0x07
    2ef8:	84 e8       	ldi	r24, 0x84	; 132
    2efa:	80 87       	std	Z+8, r24	; 0x08
    2efc:	08 95       	ret

00002efe <spi_nand_read_page_to_cache>:
    2efe:	cf 93       	push	r28
    2f00:	df 93       	push	r29
    2f02:	cd b7       	in	r28, 0x3d	; 61
    2f04:	de b7       	in	r29, 0x3e	; 62
    2f06:	62 97       	sbiw	r28, 0x12	; 18
    2f08:	0f b6       	in	r0, 0x3f	; 63
    2f0a:	f8 94       	cli
    2f0c:	de bf       	out	0x3e, r29	; 62
    2f0e:	0f be       	out	0x3f, r0	; 63
    2f10:	cd bf       	out	0x3d, r28	; 61
    2f12:	fe 01       	movw	r30, r28
    2f14:	31 96       	adiw	r30, 0x01	; 1
    2f16:	22 e1       	ldi	r18, 0x12	; 18
    2f18:	df 01       	movw	r26, r30
    2f1a:	1d 92       	st	X+, r1
    2f1c:	2a 95       	dec	r18
    2f1e:	e9 f7       	brne	.-6      	; 0x2f1a <spi_nand_read_page_to_cache+0x1c>
    2f20:	23 e1       	ldi	r18, 0x13	; 19
    2f22:	29 83       	std	Y+1, r18	; 0x01
    2f24:	23 e0       	ldi	r18, 0x03	; 3
    2f26:	2a 83       	std	Y+2, r18	; 0x02
    2f28:	6b 83       	std	Y+3, r22	; 0x03
    2f2a:	5c 83       	std	Y+4, r21	; 0x04
    2f2c:	4d 83       	std	Y+5, r20	; 0x05
    2f2e:	bf 01       	movw	r22, r30
    2f30:	0e 94 76 29 	call	0x52ec	; 0x52ec <spi_nand_issue_cmd>
    2f34:	62 96       	adiw	r28, 0x12	; 18
    2f36:	0f b6       	in	r0, 0x3f	; 63
    2f38:	f8 94       	cli
    2f3a:	de bf       	out	0x3e, r29	; 62
    2f3c:	0f be       	out	0x3f, r0	; 63
    2f3e:	cd bf       	out	0x3d, r28	; 61
    2f40:	df 91       	pop	r29
    2f42:	cf 91       	pop	r28
    2f44:	08 95       	ret

00002f46 <spi_nand_read_page_cache_random>:
    2f46:	cf 93       	push	r28
    2f48:	df 93       	push	r29
    2f4a:	cd b7       	in	r28, 0x3d	; 61
    2f4c:	de b7       	in	r29, 0x3e	; 62
    2f4e:	62 97       	sbiw	r28, 0x12	; 18
    2f50:	0f b6       	in	r0, 0x3f	; 63
    2f52:	f8 94       	cli
    2f54:	de bf       	out	0x3e, r29	; 62
    2f56:	0f be       	out	0x3f, r0	; 63
    2f58:	cd bf       	out	0x3d, r28	; 61
    2f5a:	fe 01       	movw	r30, r28
    2f5c:	31 96       	adiw	r30, 0x01	; 1
    2f5e:	22 e1       	ldi	r18, 0x12	; 18
    2f60:	df 01       	movw	r26, r30
    2f62:	1d 92       	st	X+, r1
    2f64:	2a 95       	dec	r18
    2f66:	e9 f7       	brne	.-6      	; 0x2f62 <spi_nand_read_page_cache_random+0x1c>
    2f68:	20 e3       	ldi	r18, 0x30	; 48
    2f6a:	29 83       	std	Y+1, r18	; 0x01
    2f6c:	6b 83       	std	Y+3, r22	; 0x03
    2f6e:	5c 83       	std	Y+4, r21	; 0x04
    2f70:	4d 83       	std	Y+5, r20	; 0x05
    2f72:	23 e0       	ldi	r18, 0x03	; 3
    2f74:	2a 83       	std	Y+2, r18	; 0x02
    2f76:	bf 01       	movw	r22, r30
    2f78:	0e 94 76 29 	call	0x52ec	; 0x52ec <spi_nand_issue_cmd>
    2f7c:	62 96       	adiw	r28, 0x12	; 18
    2f7e:	0f b6       	in	r0, 0x3f	; 63
    2f80:	f8 94       	cli
    2f82:	de bf       	out	0x3e, r29	; 62
    2f84:	0f be       	out	0x3f, r0	; 63
    2f86:	cd bf       	out	0x3d, r28	; 61
    2f88:	df 91       	pop	r29
    2f8a:	cf 91       	pop	r28
    2f8c:	08 95       	ret

00002f8e <spi_nand_read_page_cache_last>:
    2f8e:	cf 93       	push	r28
    2f90:	df 93       	push	r29
    2f92:	cd b7       	in	r28, 0x3d	; 61
    2f94:	de b7       	in	r29, 0x3e	; 62
    2f96:	62 97       	sbiw	r28, 0x12	; 18
    2f98:	0f b6       	in	r0, 0x3f	; 63
    2f9a:	f8 94       	cli
    2f9c:	de bf       	out	0x3e, r29	; 62
    2f9e:	0f be       	out	0x3f, r0	; 63
    2fa0:	cd bf       	out	0x3d, r28	; 61
    2fa2:	be 01       	movw	r22, r28
    2fa4:	6f 5f       	subi	r22, 0xFF	; 255
    2fa6:	7f 4f       	sbci	r23, 0xFF	; 255
    2fa8:	22 e1       	ldi	r18, 0x12	; 18
    2faa:	fb 01       	movw	r30, r22
    2fac:	11 92       	st	Z+, r1
    2fae:	2a 95       	dec	r18
    2fb0:	e9 f7       	brne	.-6      	; 0x2fac <spi_nand_read_page_cache_last+0x1e>
    2fb2:	2f e3       	ldi	r18, 0x3F	; 63
    2fb4:	29 83       	std	Y+1, r18	; 0x01
    2fb6:	0e 94 76 29 	call	0x52ec	; 0x52ec <spi_nand_issue_cmd>
    2fba:	62 96       	adiw	r28, 0x12	; 18
    2fbc:	0f b6       	in	r0, 0x3f	; 63
    2fbe:	f8 94       	cli
    2fc0:	de bf       	out	0x3e, r29	; 62
    2fc2:	0f be       	out	0x3f, r0	; 63
    2fc4:	cd bf       	out	0x3d, r28	; 61
    2fc6:	df 91       	pop	r29
    2fc8:	cf 91       	pop	r28
    2fca:	08 95       	ret

00002fcc <spi_nand_read_from_cache>:
    2fcc:	7f 92       	push	r7
    2fce:	8f 92       	push	r8
    2fd0:	9f 92       	push	r9
    2fd2:	af 92       	push	r10
    2fd4:	bf 92       	push	r11
    2fd6:	cf 92       	push	r12
    2fd8:	df 92       	push	r13
    2fda:	ef 92       	push	r14
    2fdc:	ff 92       	push	r15
    2fde:	0f 93       	push	r16
    2fe0:	1f 93       	push	r17
    2fe2:	cf 93       	push	r28
    2fe4:	df 93       	push	r29
    2fe6:	cd b7       	in	r28, 0x3d	; 61
    2fe8:	de b7       	in	r29, 0x3e	; 62
    2fea:	62 97       	sbiw	r28, 0x12	; 18
    2fec:	0f b6       	in	r0, 0x3f	; 63
    2fee:	f8 94       	cli
    2ff0:	de bf       	out	0x3e, r29	; 62
    2ff2:	0f be       	out	0x3f, r0	; 63
    2ff4:	cd bf       	out	0x3d, r28	; 61
    2ff6:	de 01       	movw	r26, r28
    2ff8:	11 96       	adiw	r26, 0x01	; 1
    2ffa:	5d 01       	movw	r10, r26
    2ffc:	a2 e1       	ldi	r26, 0x12	; 18
    2ffe:	f5 01       	movw	r30, r10
    3000:	11 92       	st	Z+, r1
    3002:	aa 95       	dec	r26
    3004:	e9 f7       	brne	.-6      	; 0x3000 <spi_nand_read_from_cache+0x34>
    3006:	dc 01       	movw	r26, r24
    3008:	16 96       	adiw	r26, 0x06	; 6
    300a:	ec 91       	ld	r30, X
    300c:	16 97       	sbiw	r26, 0x06	; 6
    300e:	e9 83       	std	Y+1, r30	; 0x01
    3010:	e2 e0       	ldi	r30, 0x02	; 2
    3012:	ea 83       	std	Y+2, r30	; 0x02
    3014:	81 2e       	mov	r8, r17
    3016:	92 2e       	mov	r9, r18
    3018:	a3 2e       	mov	r10, r19
    301a:	bb 24       	eor	r11, r11
    301c:	8b 82       	std	Y+3, r8	; 0x03
    301e:	90 96       	adiw	r26, 0x20	; 32
    3020:	ec 91       	ld	r30, X
    3022:	90 97       	sbiw	r26, 0x20	; 32
    3024:	e0 ff       	sbrs	r30, 0
    3026:	15 c0       	rjmp	.+42     	; 0x3052 <spi_nand_read_from_cache+0x86>
    3028:	5c 96       	adiw	r26, 0x1c	; 28
    302a:	7c 90       	ld	r7, X
    302c:	5c 97       	sbiw	r26, 0x1c	; 28
    302e:	5d 96       	adiw	r26, 0x1d	; 29
    3030:	ac 91       	ld	r26, X
    3032:	e7 2d       	mov	r30, r7
    3034:	f0 e0       	ldi	r31, 0x00	; 0
    3036:	ea 1b       	sub	r30, r26
    3038:	f1 09       	sbc	r31, r1
    303a:	04 c0       	rjmp	.+8      	; 0x3044 <spi_nand_read_from_cache+0x78>
    303c:	76 95       	lsr	r23
    303e:	67 95       	ror	r22
    3040:	57 95       	ror	r21
    3042:	47 95       	ror	r20
    3044:	ea 95       	dec	r30
    3046:	d2 f7       	brpl	.-12     	; 0x303c <spi_nand_read_from_cache+0x70>
    3048:	41 70       	andi	r20, 0x01	; 1
    304a:	42 95       	swap	r20
    304c:	40 7f       	andi	r20, 0xF0	; 240
    304e:	84 2a       	or	r8, r20
    3050:	8b 82       	std	Y+3, r8	; 0x03
    3052:	0c 83       	std	Y+4, r16	; 0x04
    3054:	a7 01       	movw	r20, r14
    3056:	60 e0       	ldi	r22, 0x00	; 0
    3058:	70 e0       	ldi	r23, 0x00	; 0
    305a:	4d 87       	std	Y+13, r20	; 0x0d
    305c:	5e 87       	std	Y+14, r21	; 0x0e
    305e:	6f 87       	std	Y+15, r22	; 0x0f
    3060:	78 8b       	std	Y+16, r23	; 0x10
    3062:	da 8a       	std	Y+18, r13	; 0x12
    3064:	c9 8a       	std	Y+17, r12	; 0x11
    3066:	be 01       	movw	r22, r28
    3068:	6f 5f       	subi	r22, 0xFF	; 255
    306a:	7f 4f       	sbci	r23, 0xFF	; 255
    306c:	0e 94 76 29 	call	0x52ec	; 0x52ec <spi_nand_issue_cmd>
    3070:	62 96       	adiw	r28, 0x12	; 18
    3072:	0f b6       	in	r0, 0x3f	; 63
    3074:	f8 94       	cli
    3076:	de bf       	out	0x3e, r29	; 62
    3078:	0f be       	out	0x3f, r0	; 63
    307a:	cd bf       	out	0x3d, r28	; 61
    307c:	df 91       	pop	r29
    307e:	cf 91       	pop	r28
    3080:	1f 91       	pop	r17
    3082:	0f 91       	pop	r16
    3084:	ff 90       	pop	r15
    3086:	ef 90       	pop	r14
    3088:	df 90       	pop	r13
    308a:	cf 90       	pop	r12
    308c:	bf 90       	pop	r11
    308e:	af 90       	pop	r10
    3090:	9f 90       	pop	r9
    3092:	8f 90       	pop	r8
    3094:	7f 90       	pop	r7
    3096:	08 95       	ret

00003098 <spi_nand_program_data_to_cache>:
    3098:	7f 92       	push	r7
    309a:	8f 92       	push	r8
    309c:	9f 92       	push	r9
    309e:	af 92       	push	r10
    30a0:	bf 92       	push	r11
    30a2:	cf 92       	push	r12
    30a4:	df 92       	push	r13
    30a6:	ef 92       	push	r14
    30a8:	ff 92       	push	r15
    30aa:	0f 93       	push	r16
    30ac:	1f 93       	push	r17
    30ae:	cf 93       	push	r28
    30b0:	df 93       	push	r29
    30b2:	cd b7       	in	r28, 0x3d	; 61
    30b4:	de b7       	in	r29, 0x3e	; 62
    30b6:	62 97       	sbiw	r28, 0x12	; 18
    30b8:	0f b6       	in	r0, 0x3f	; 63
    30ba:	f8 94       	cli
    30bc:	de bf       	out	0x3e, r29	; 62
    30be:	0f be       	out	0x3f, r0	; 63
    30c0:	cd bf       	out	0x3d, r28	; 61
    30c2:	de 01       	movw	r26, r28
    30c4:	11 96       	adiw	r26, 0x01	; 1
    30c6:	4d 01       	movw	r8, r26
    30c8:	a2 e1       	ldi	r26, 0x12	; 18
    30ca:	f4 01       	movw	r30, r8
    30cc:	11 92       	st	Z+, r1
    30ce:	aa 95       	dec	r26
    30d0:	e9 f7       	brne	.-6      	; 0x30cc <spi_nand_program_data_to_cache+0x34>
    30d2:	ab 28       	or	r10, r11
    30d4:	29 f0       	breq	.+10     	; 0x30e0 <spi_nand_program_data_to_cache+0x48>
    30d6:	dc 01       	movw	r26, r24
    30d8:	17 96       	adiw	r26, 0x07	; 7
    30da:	ec 91       	ld	r30, X
    30dc:	e9 83       	std	Y+1, r30	; 0x01
    30de:	04 c0       	rjmp	.+8      	; 0x30e8 <spi_nand_program_data_to_cache+0x50>
    30e0:	dc 01       	movw	r26, r24
    30e2:	18 96       	adiw	r26, 0x08	; 8
    30e4:	ec 91       	ld	r30, X
    30e6:	e9 83       	std	Y+1, r30	; 0x01
    30e8:	e2 e0       	ldi	r30, 0x02	; 2
    30ea:	ea 83       	std	Y+2, r30	; 0x02
    30ec:	81 2e       	mov	r8, r17
    30ee:	92 2e       	mov	r9, r18
    30f0:	a3 2e       	mov	r10, r19
    30f2:	bb 24       	eor	r11, r11
    30f4:	8b 82       	std	Y+3, r8	; 0x03
    30f6:	dc 01       	movw	r26, r24
    30f8:	90 96       	adiw	r26, 0x20	; 32
    30fa:	ec 91       	ld	r30, X
    30fc:	90 97       	sbiw	r26, 0x20	; 32
    30fe:	e0 ff       	sbrs	r30, 0
    3100:	15 c0       	rjmp	.+42     	; 0x312c <spi_nand_program_data_to_cache+0x94>
    3102:	5c 96       	adiw	r26, 0x1c	; 28
    3104:	7c 90       	ld	r7, X
    3106:	5c 97       	sbiw	r26, 0x1c	; 28
    3108:	5d 96       	adiw	r26, 0x1d	; 29
    310a:	ac 91       	ld	r26, X
    310c:	e7 2d       	mov	r30, r7
    310e:	f0 e0       	ldi	r31, 0x00	; 0
    3110:	ea 1b       	sub	r30, r26
    3112:	f1 09       	sbc	r31, r1
    3114:	04 c0       	rjmp	.+8      	; 0x311e <spi_nand_program_data_to_cache+0x86>
    3116:	76 95       	lsr	r23
    3118:	67 95       	ror	r22
    311a:	57 95       	ror	r21
    311c:	47 95       	ror	r20
    311e:	ea 95       	dec	r30
    3120:	d2 f7       	brpl	.-12     	; 0x3116 <spi_nand_program_data_to_cache+0x7e>
    3122:	41 70       	andi	r20, 0x01	; 1
    3124:	42 95       	swap	r20
    3126:	40 7f       	andi	r20, 0xF0	; 240
    3128:	84 2a       	or	r8, r20
    312a:	8b 82       	std	Y+3, r8	; 0x03
    312c:	0c 83       	std	Y+4, r16	; 0x04
    312e:	a7 01       	movw	r20, r14
    3130:	60 e0       	ldi	r22, 0x00	; 0
    3132:	70 e0       	ldi	r23, 0x00	; 0
    3134:	4f 83       	std	Y+7, r20	; 0x07
    3136:	58 87       	std	Y+8, r21	; 0x08
    3138:	69 87       	std	Y+9, r22	; 0x09
    313a:	7a 87       	std	Y+10, r23	; 0x0a
    313c:	dc 86       	std	Y+12, r13	; 0x0c
    313e:	cb 86       	std	Y+11, r12	; 0x0b
    3140:	be 01       	movw	r22, r28
    3142:	6f 5f       	subi	r22, 0xFF	; 255
    3144:	7f 4f       	sbci	r23, 0xFF	; 255
    3146:	0e 94 76 29 	call	0x52ec	; 0x52ec <spi_nand_issue_cmd>
    314a:	62 96       	adiw	r28, 0x12	; 18
    314c:	0f b6       	in	r0, 0x3f	; 63
    314e:	f8 94       	cli
    3150:	de bf       	out	0x3e, r29	; 62
    3152:	0f be       	out	0x3f, r0	; 63
    3154:	cd bf       	out	0x3d, r28	; 61
    3156:	df 91       	pop	r29
    3158:	cf 91       	pop	r28
    315a:	1f 91       	pop	r17
    315c:	0f 91       	pop	r16
    315e:	ff 90       	pop	r15
    3160:	ef 90       	pop	r14
    3162:	df 90       	pop	r13
    3164:	cf 90       	pop	r12
    3166:	bf 90       	pop	r11
    3168:	af 90       	pop	r10
    316a:	9f 90       	pop	r9
    316c:	8f 90       	pop	r8
    316e:	7f 90       	pop	r7
    3170:	08 95       	ret

00003172 <spi_nand_write_enable>:
    3172:	cf 93       	push	r28
    3174:	df 93       	push	r29
    3176:	cd b7       	in	r28, 0x3d	; 61
    3178:	de b7       	in	r29, 0x3e	; 62
    317a:	62 97       	sbiw	r28, 0x12	; 18
    317c:	0f b6       	in	r0, 0x3f	; 63
    317e:	f8 94       	cli
    3180:	de bf       	out	0x3e, r29	; 62
    3182:	0f be       	out	0x3f, r0	; 63
    3184:	cd bf       	out	0x3d, r28	; 61
    3186:	be 01       	movw	r22, r28
    3188:	6f 5f       	subi	r22, 0xFF	; 255
    318a:	7f 4f       	sbci	r23, 0xFF	; 255
    318c:	22 e1       	ldi	r18, 0x12	; 18
    318e:	fb 01       	movw	r30, r22
    3190:	11 92       	st	Z+, r1
    3192:	2a 95       	dec	r18
    3194:	e9 f7       	brne	.-6      	; 0x3190 <spi_nand_write_enable+0x1e>
    3196:	26 e0       	ldi	r18, 0x06	; 6
    3198:	29 83       	std	Y+1, r18	; 0x01
    319a:	0e 94 76 29 	call	0x52ec	; 0x52ec <spi_nand_issue_cmd>
    319e:	62 96       	adiw	r28, 0x12	; 18
    31a0:	0f b6       	in	r0, 0x3f	; 63
    31a2:	f8 94       	cli
    31a4:	de bf       	out	0x3e, r29	; 62
    31a6:	0f be       	out	0x3f, r0	; 63
    31a8:	cd bf       	out	0x3d, r28	; 61
    31aa:	df 91       	pop	r29
    31ac:	cf 91       	pop	r28
    31ae:	08 95       	ret

000031b0 <spi_nand_program_execute>:
    31b0:	cf 93       	push	r28
    31b2:	df 93       	push	r29
    31b4:	cd b7       	in	r28, 0x3d	; 61
    31b6:	de b7       	in	r29, 0x3e	; 62
    31b8:	62 97       	sbiw	r28, 0x12	; 18
    31ba:	0f b6       	in	r0, 0x3f	; 63
    31bc:	f8 94       	cli
    31be:	de bf       	out	0x3e, r29	; 62
    31c0:	0f be       	out	0x3f, r0	; 63
    31c2:	cd bf       	out	0x3d, r28	; 61
    31c4:	fe 01       	movw	r30, r28
    31c6:	31 96       	adiw	r30, 0x01	; 1
    31c8:	22 e1       	ldi	r18, 0x12	; 18
    31ca:	df 01       	movw	r26, r30
    31cc:	1d 92       	st	X+, r1
    31ce:	2a 95       	dec	r18
    31d0:	e9 f7       	brne	.-6      	; 0x31cc <spi_nand_program_execute+0x1c>
    31d2:	20 e1       	ldi	r18, 0x10	; 16
    31d4:	29 83       	std	Y+1, r18	; 0x01
    31d6:	23 e0       	ldi	r18, 0x03	; 3
    31d8:	2a 83       	std	Y+2, r18	; 0x02
    31da:	6b 83       	std	Y+3, r22	; 0x03
    31dc:	5c 83       	std	Y+4, r21	; 0x04
    31de:	4d 83       	std	Y+5, r20	; 0x05
    31e0:	bf 01       	movw	r22, r30
    31e2:	0e 94 76 29 	call	0x52ec	; 0x52ec <spi_nand_issue_cmd>
    31e6:	62 96       	adiw	r28, 0x12	; 18
    31e8:	0f b6       	in	r0, 0x3f	; 63
    31ea:	f8 94       	cli
    31ec:	de bf       	out	0x3e, r29	; 62
    31ee:	0f be       	out	0x3f, r0	; 63
    31f0:	cd bf       	out	0x3d, r28	; 61
    31f2:	df 91       	pop	r29
    31f4:	cf 91       	pop	r28
    31f6:	08 95       	ret

000031f8 <spi_nand_read_id>:
    31f8:	0f 93       	push	r16
    31fa:	1f 93       	push	r17
    31fc:	cf 93       	push	r28
    31fe:	df 93       	push	r29
    3200:	cd b7       	in	r28, 0x3d	; 61
    3202:	de b7       	in	r29, 0x3e	; 62
    3204:	62 97       	sbiw	r28, 0x12	; 18
    3206:	0f b6       	in	r0, 0x3f	; 63
    3208:	f8 94       	cli
    320a:	de bf       	out	0x3e, r29	; 62
    320c:	0f be       	out	0x3f, r0	; 63
    320e:	cd bf       	out	0x3d, r28	; 61
    3210:	fe 01       	movw	r30, r28
    3212:	31 96       	adiw	r30, 0x01	; 1
    3214:	22 e1       	ldi	r18, 0x12	; 18
    3216:	df 01       	movw	r26, r30
    3218:	1d 92       	st	X+, r1
    321a:	2a 95       	dec	r18
    321c:	e9 f7       	brne	.-6      	; 0x3218 <spi_nand_read_id+0x20>
    321e:	2f e9       	ldi	r18, 0x9F	; 159
    3220:	29 83       	std	Y+1, r18	; 0x01
    3222:	02 e0       	ldi	r16, 0x02	; 2
    3224:	10 e0       	ldi	r17, 0x00	; 0
    3226:	20 e0       	ldi	r18, 0x00	; 0
    3228:	30 e0       	ldi	r19, 0x00	; 0
    322a:	0d 87       	std	Y+13, r16	; 0x0d
    322c:	1e 87       	std	Y+14, r17	; 0x0e
    322e:	2f 87       	std	Y+15, r18	; 0x0f
    3230:	38 8b       	std	Y+16, r19	; 0x10
    3232:	7a 8b       	std	Y+18, r23	; 0x12
    3234:	69 8b       	std	Y+17, r22	; 0x11
    3236:	bf 01       	movw	r22, r30
    3238:	0e 94 76 29 	call	0x52ec	; 0x52ec <spi_nand_issue_cmd>
    323c:	62 96       	adiw	r28, 0x12	; 18
    323e:	0f b6       	in	r0, 0x3f	; 63
    3240:	f8 94       	cli
    3242:	de bf       	out	0x3e, r29	; 62
    3244:	0f be       	out	0x3f, r0	; 63
    3246:	cd bf       	out	0x3d, r28	; 61
    3248:	df 91       	pop	r29
    324a:	cf 91       	pop	r28
    324c:	1f 91       	pop	r17
    324e:	0f 91       	pop	r16
    3250:	08 95       	ret

00003252 <spi_nand_write_reg>:
    3252:	ff 92       	push	r15
    3254:	0f 93       	push	r16
    3256:	1f 93       	push	r17
    3258:	cf 93       	push	r28
    325a:	df 93       	push	r29
    325c:	cd b7       	in	r28, 0x3d	; 61
    325e:	de b7       	in	r29, 0x3e	; 62
    3260:	62 97       	sbiw	r28, 0x12	; 18
    3262:	0f b6       	in	r0, 0x3f	; 63
    3264:	f8 94       	cli
    3266:	de bf       	out	0x3e, r29	; 62
    3268:	0f be       	out	0x3f, r0	; 63
    326a:	cd bf       	out	0x3d, r28	; 61
    326c:	f6 2e       	mov	r15, r22
    326e:	be 01       	movw	r22, r28
    3270:	6f 5f       	subi	r22, 0xFF	; 255
    3272:	7f 4f       	sbci	r23, 0xFF	; 255
    3274:	22 e1       	ldi	r18, 0x12	; 18
    3276:	fb 01       	movw	r30, r22
    3278:	11 92       	st	Z+, r1
    327a:	2a 95       	dec	r18
    327c:	e9 f7       	brne	.-6      	; 0x3278 <spi_nand_write_reg+0x26>
    327e:	2f e1       	ldi	r18, 0x1F	; 31
    3280:	29 83       	std	Y+1, r18	; 0x01
    3282:	21 e0       	ldi	r18, 0x01	; 1
    3284:	2a 83       	std	Y+2, r18	; 0x02
    3286:	fb 82       	std	Y+3, r15	; 0x03
    3288:	01 e0       	ldi	r16, 0x01	; 1
    328a:	10 e0       	ldi	r17, 0x00	; 0
    328c:	20 e0       	ldi	r18, 0x00	; 0
    328e:	30 e0       	ldi	r19, 0x00	; 0
    3290:	0f 83       	std	Y+7, r16	; 0x07
    3292:	18 87       	std	Y+8, r17	; 0x08
    3294:	29 87       	std	Y+9, r18	; 0x09
    3296:	3a 87       	std	Y+10, r19	; 0x0a
    3298:	5c 87       	std	Y+12, r21	; 0x0c
    329a:	4b 87       	std	Y+11, r20	; 0x0b
    329c:	0e 94 76 29 	call	0x52ec	; 0x52ec <spi_nand_issue_cmd>
    32a0:	8c 01       	movw	r16, r24
    32a2:	99 23       	and	r25, r25
    32a4:	84 f4       	brge	.+32     	; 0x32c6 <spi_nand_write_reg+0x74>
    32a6:	1f 92       	push	r1
    32a8:	ff 92       	push	r15
    32aa:	1f 93       	push	r17
    32ac:	8f 93       	push	r24
    32ae:	80 e1       	ldi	r24, 0x10	; 16
    32b0:	9b e0       	ldi	r25, 0x0B	; 11
    32b2:	9f 93       	push	r25
    32b4:	8f 93       	push	r24
    32b6:	0e 94 63 42 	call	0x84c6	; 0x84c6 <printf>
    32ba:	0f 90       	pop	r0
    32bc:	0f 90       	pop	r0
    32be:	0f 90       	pop	r0
    32c0:	0f 90       	pop	r0
    32c2:	0f 90       	pop	r0
    32c4:	0f 90       	pop	r0
    32c6:	c8 01       	movw	r24, r16
    32c8:	62 96       	adiw	r28, 0x12	; 18
    32ca:	0f b6       	in	r0, 0x3f	; 63
    32cc:	f8 94       	cli
    32ce:	de bf       	out	0x3e, r29	; 62
    32d0:	0f be       	out	0x3f, r0	; 63
    32d2:	cd bf       	out	0x3d, r28	; 61
    32d4:	df 91       	pop	r29
    32d6:	cf 91       	pop	r28
    32d8:	1f 91       	pop	r17
    32da:	0f 91       	pop	r16
    32dc:	ff 90       	pop	r15
    32de:	08 95       	ret

000032e0 <spi_nand_set_cfg>:
    32e0:	ab 01       	movw	r20, r22
    32e2:	60 eb       	ldi	r22, 0xB0	; 176
    32e4:	b6 cf       	rjmp	.-148    	; 0x3252 <spi_nand_write_reg>
    32e6:	08 95       	ret

000032e8 <spi_nand_set_ds>:
    32e8:	ab 01       	movw	r20, r22
    32ea:	60 ed       	ldi	r22, 0xD0	; 208
    32ec:	b2 cf       	rjmp	.-156    	; 0x3252 <spi_nand_write_reg>
    32ee:	08 95       	ret

000032f0 <spi_nand_lun_select>:
    32f0:	ff 92       	push	r15
    32f2:	0f 93       	push	r16
    32f4:	1f 93       	push	r17
    32f6:	cf 93       	push	r28
    32f8:	df 93       	push	r29
    32fa:	1f 92       	push	r1
    32fc:	cd b7       	in	r28, 0x3d	; 61
    32fe:	de b7       	in	r29, 0x3e	; 62
    3300:	fc 01       	movw	r30, r24
    3302:	21 a5       	ldd	r18, Z+41	; 0x29
    3304:	26 17       	cp	r18, r22
    3306:	79 f0       	breq	.+30     	; 0x3326 <spi_nand_lun_select+0x36>
    3308:	61 30       	cpi	r22, 0x01	; 1
    330a:	11 f4       	brne	.+4      	; 0x3310 <spi_nand_lun_select+0x20>
    330c:	20 e4       	ldi	r18, 0x40	; 64
    330e:	01 c0       	rjmp	.+2      	; 0x3312 <spi_nand_lun_select+0x22>
    3310:	20 e0       	ldi	r18, 0x00	; 0
    3312:	f6 2e       	mov	r15, r22
    3314:	8c 01       	movw	r16, r24
    3316:	29 83       	std	Y+1, r18	; 0x01
    3318:	be 01       	movw	r22, r28
    331a:	6f 5f       	subi	r22, 0xFF	; 255
    331c:	7f 4f       	sbci	r23, 0xFF	; 255
    331e:	e4 df       	rcall	.-56     	; 0x32e8 <spi_nand_set_ds>
    3320:	f8 01       	movw	r30, r16
    3322:	f1 a6       	std	Z+41, r15	; 0x29
    3324:	02 c0       	rjmp	.+4      	; 0x332a <spi_nand_lun_select+0x3a>
    3326:	80 e0       	ldi	r24, 0x00	; 0
    3328:	90 e0       	ldi	r25, 0x00	; 0
    332a:	0f 90       	pop	r0
    332c:	df 91       	pop	r29
    332e:	cf 91       	pop	r28
    3330:	1f 91       	pop	r17
    3332:	0f 91       	pop	r16
    3334:	ff 90       	pop	r15
    3336:	08 95       	ret

00003338 <spi_nand_read_reg>:
    3338:	ff 92       	push	r15
    333a:	0f 93       	push	r16
    333c:	1f 93       	push	r17
    333e:	cf 93       	push	r28
    3340:	df 93       	push	r29
    3342:	cd b7       	in	r28, 0x3d	; 61
    3344:	de b7       	in	r29, 0x3e	; 62
    3346:	62 97       	sbiw	r28, 0x12	; 18
    3348:	0f b6       	in	r0, 0x3f	; 63
    334a:	f8 94       	cli
    334c:	de bf       	out	0x3e, r29	; 62
    334e:	0f be       	out	0x3f, r0	; 63
    3350:	cd bf       	out	0x3d, r28	; 61
    3352:	f6 2e       	mov	r15, r22
    3354:	be 01       	movw	r22, r28
    3356:	6f 5f       	subi	r22, 0xFF	; 255
    3358:	7f 4f       	sbci	r23, 0xFF	; 255
    335a:	22 e1       	ldi	r18, 0x12	; 18
    335c:	fb 01       	movw	r30, r22
    335e:	11 92       	st	Z+, r1
    3360:	2a 95       	dec	r18
    3362:	e9 f7       	brne	.-6      	; 0x335e <spi_nand_read_reg+0x26>
    3364:	2f e0       	ldi	r18, 0x0F	; 15
    3366:	29 83       	std	Y+1, r18	; 0x01
    3368:	21 e0       	ldi	r18, 0x01	; 1
    336a:	2a 83       	std	Y+2, r18	; 0x02
    336c:	fb 82       	std	Y+3, r15	; 0x03
    336e:	01 e0       	ldi	r16, 0x01	; 1
    3370:	10 e0       	ldi	r17, 0x00	; 0
    3372:	20 e0       	ldi	r18, 0x00	; 0
    3374:	30 e0       	ldi	r19, 0x00	; 0
    3376:	0d 87       	std	Y+13, r16	; 0x0d
    3378:	1e 87       	std	Y+14, r17	; 0x0e
    337a:	2f 87       	std	Y+15, r18	; 0x0f
    337c:	38 8b       	std	Y+16, r19	; 0x10
    337e:	5a 8b       	std	Y+18, r21	; 0x12
    3380:	49 8b       	std	Y+17, r20	; 0x11
    3382:	0e 94 76 29 	call	0x52ec	; 0x52ec <spi_nand_issue_cmd>
    3386:	8c 01       	movw	r16, r24
    3388:	99 23       	and	r25, r25
    338a:	84 f4       	brge	.+32     	; 0x33ac <spi_nand_read_reg+0x74>
    338c:	1f 92       	push	r1
    338e:	ff 92       	push	r15
    3390:	1f 93       	push	r17
    3392:	8f 93       	push	r24
    3394:	8b e2       	ldi	r24, 0x2B	; 43
    3396:	9b e0       	ldi	r25, 0x0B	; 11
    3398:	9f 93       	push	r25
    339a:	8f 93       	push	r24
    339c:	0e 94 63 42 	call	0x84c6	; 0x84c6 <printf>
    33a0:	0f 90       	pop	r0
    33a2:	0f 90       	pop	r0
    33a4:	0f 90       	pop	r0
    33a6:	0f 90       	pop	r0
    33a8:	0f 90       	pop	r0
    33aa:	0f 90       	pop	r0
    33ac:	c8 01       	movw	r24, r16
    33ae:	62 96       	adiw	r28, 0x12	; 18
    33b0:	0f b6       	in	r0, 0x3f	; 63
    33b2:	f8 94       	cli
    33b4:	de bf       	out	0x3e, r29	; 62
    33b6:	0f be       	out	0x3f, r0	; 63
    33b8:	cd bf       	out	0x3d, r28	; 61
    33ba:	df 91       	pop	r29
    33bc:	cf 91       	pop	r28
    33be:	1f 91       	pop	r17
    33c0:	0f 91       	pop	r16
    33c2:	ff 90       	pop	r15
    33c4:	08 95       	ret

000033c6 <spi_nand_get_cfg>:
    33c6:	ab 01       	movw	r20, r22
    33c8:	60 eb       	ldi	r22, 0xB0	; 176
    33ca:	b6 cf       	rjmp	.-148    	; 0x3338 <spi_nand_read_reg>
    33cc:	08 95       	ret

000033ce <spi_nand_disable_ecc>:
    33ce:	0f 93       	push	r16
    33d0:	1f 93       	push	r17
    33d2:	cf 93       	push	r28
    33d4:	df 93       	push	r29
    33d6:	1f 92       	push	r1
    33d8:	cd b7       	in	r28, 0x3d	; 61
    33da:	de b7       	in	r29, 0x3e	; 62
    33dc:	8c 01       	movw	r16, r24
    33de:	19 82       	std	Y+1, r1	; 0x01
    33e0:	be 01       	movw	r22, r28
    33e2:	6f 5f       	subi	r22, 0xFF	; 255
    33e4:	7f 4f       	sbci	r23, 0xFF	; 255
    33e6:	ef df       	rcall	.-34     	; 0x33c6 <spi_nand_get_cfg>
    33e8:	89 81       	ldd	r24, Y+1	; 0x01
    33ea:	84 ff       	sbrs	r24, 4
    33ec:	08 c0       	rjmp	.+16     	; 0x33fe <spi_nand_disable_ecc+0x30>
    33ee:	8f 7e       	andi	r24, 0xEF	; 239
    33f0:	89 83       	std	Y+1, r24	; 0x01
    33f2:	be 01       	movw	r22, r28
    33f4:	6f 5f       	subi	r22, 0xFF	; 255
    33f6:	7f 4f       	sbci	r23, 0xFF	; 255
    33f8:	c8 01       	movw	r24, r16
    33fa:	72 df       	rcall	.-284    	; 0x32e0 <spi_nand_set_cfg>
    33fc:	02 c0       	rjmp	.+4      	; 0x3402 <spi_nand_disable_ecc+0x34>
    33fe:	80 e0       	ldi	r24, 0x00	; 0
    3400:	90 e0       	ldi	r25, 0x00	; 0
    3402:	0f 90       	pop	r0
    3404:	df 91       	pop	r29
    3406:	cf 91       	pop	r28
    3408:	1f 91       	pop	r17
    340a:	0f 91       	pop	r16
    340c:	08 95       	ret

0000340e <spi_nand_enable_ecc>:
    340e:	0f 93       	push	r16
    3410:	1f 93       	push	r17
    3412:	cf 93       	push	r28
    3414:	df 93       	push	r29
    3416:	1f 92       	push	r1
    3418:	cd b7       	in	r28, 0x3d	; 61
    341a:	de b7       	in	r29, 0x3e	; 62
    341c:	8c 01       	movw	r16, r24
    341e:	19 82       	std	Y+1, r1	; 0x01
    3420:	be 01       	movw	r22, r28
    3422:	6f 5f       	subi	r22, 0xFF	; 255
    3424:	7f 4f       	sbci	r23, 0xFF	; 255
    3426:	cf df       	rcall	.-98     	; 0x33c6 <spi_nand_get_cfg>
    3428:	89 81       	ldd	r24, Y+1	; 0x01
    342a:	84 fd       	sbrc	r24, 4
    342c:	08 c0       	rjmp	.+16     	; 0x343e <spi_nand_enable_ecc+0x30>
    342e:	80 61       	ori	r24, 0x10	; 16
    3430:	89 83       	std	Y+1, r24	; 0x01
    3432:	be 01       	movw	r22, r28
    3434:	6f 5f       	subi	r22, 0xFF	; 255
    3436:	7f 4f       	sbci	r23, 0xFF	; 255
    3438:	c8 01       	movw	r24, r16
    343a:	52 df       	rcall	.-348    	; 0x32e0 <spi_nand_set_cfg>
    343c:	02 c0       	rjmp	.+4      	; 0x3442 <spi_nand_enable_ecc+0x34>
    343e:	80 e0       	ldi	r24, 0x00	; 0
    3440:	90 e0       	ldi	r25, 0x00	; 0
    3442:	0f 90       	pop	r0
    3444:	df 91       	pop	r29
    3446:	cf 91       	pop	r28
    3448:	1f 91       	pop	r17
    344a:	0f 91       	pop	r16
    344c:	08 95       	ret

0000344e <spi_nand_change_mode>:
    344e:	ef 92       	push	r14
    3450:	ff 92       	push	r15
    3452:	1f 93       	push	r17
    3454:	cf 93       	push	r28
    3456:	df 93       	push	r29
    3458:	1f 92       	push	r1
    345a:	cd b7       	in	r28, 0x3d	; 61
    345c:	de b7       	in	r29, 0x3e	; 62
    345e:	7c 01       	movw	r14, r24
    3460:	16 2f       	mov	r17, r22
    3462:	be 01       	movw	r22, r28
    3464:	6f 5f       	subi	r22, 0xFF	; 255
    3466:	7f 4f       	sbci	r23, 0xFF	; 255
    3468:	ae df       	rcall	.-164    	; 0x33c6 <spi_nand_get_cfg>
    346a:	11 30       	cpi	r17, 0x01	; 1
    346c:	31 f0       	breq	.+12     	; 0x347a <spi_nand_change_mode+0x2c>
    346e:	a0 f0       	brcs	.+40     	; 0x3498 <spi_nand_change_mode+0x4a>
    3470:	12 30       	cpi	r17, 0x02	; 2
    3472:	41 f0       	breq	.+16     	; 0x3484 <spi_nand_change_mode+0x36>
    3474:	13 30       	cpi	r17, 0x03	; 3
    3476:	59 f0       	breq	.+22     	; 0x348e <spi_nand_change_mode+0x40>
    3478:	12 c0       	rjmp	.+36     	; 0x349e <spi_nand_change_mode+0x50>
    347a:	89 81       	ldd	r24, Y+1	; 0x01
    347c:	8d 73       	andi	r24, 0x3D	; 61
    347e:	80 64       	ori	r24, 0x40	; 64
    3480:	89 83       	std	Y+1, r24	; 0x01
    3482:	0d c0       	rjmp	.+26     	; 0x349e <spi_nand_change_mode+0x50>
    3484:	89 81       	ldd	r24, Y+1	; 0x01
    3486:	8d 73       	andi	r24, 0x3D	; 61
    3488:	80 6c       	ori	r24, 0xC0	; 192
    348a:	89 83       	std	Y+1, r24	; 0x01
    348c:	08 c0       	rjmp	.+16     	; 0x349e <spi_nand_change_mode+0x50>
    348e:	89 81       	ldd	r24, Y+1	; 0x01
    3490:	8d 73       	andi	r24, 0x3D	; 61
    3492:	82 68       	ori	r24, 0x82	; 130
    3494:	89 83       	std	Y+1, r24	; 0x01
    3496:	03 c0       	rjmp	.+6      	; 0x349e <spi_nand_change_mode+0x50>
    3498:	89 81       	ldd	r24, Y+1	; 0x01
    349a:	8d 73       	andi	r24, 0x3D	; 61
    349c:	89 83       	std	Y+1, r24	; 0x01
    349e:	be 01       	movw	r22, r28
    34a0:	6f 5f       	subi	r22, 0xFF	; 255
    34a2:	7f 4f       	sbci	r23, 0xFF	; 255
    34a4:	c7 01       	movw	r24, r14
    34a6:	1c df       	rcall	.-456    	; 0x32e0 <spi_nand_set_cfg>
    34a8:	80 e0       	ldi	r24, 0x00	; 0
    34aa:	90 e0       	ldi	r25, 0x00	; 0
    34ac:	0f 90       	pop	r0
    34ae:	df 91       	pop	r29
    34b0:	cf 91       	pop	r28
    34b2:	1f 91       	pop	r17
    34b4:	ff 90       	pop	r15
    34b6:	ef 90       	pop	r14
    34b8:	08 95       	ret

000034ba <spi_nand_read_status>:
    34ba:	ab 01       	movw	r20, r22
    34bc:	60 ec       	ldi	r22, 0xC0	; 192
    34be:	3c cf       	rjmp	.-392    	; 0x3338 <spi_nand_read_reg>
    34c0:	08 95       	ret

000034c2 <spi_nand_wait_crbusy>:
    34c2:	6f 92       	push	r6
    34c4:	7f 92       	push	r7
    34c6:	8f 92       	push	r8
    34c8:	9f 92       	push	r9
    34ca:	af 92       	push	r10
    34cc:	bf 92       	push	r11
    34ce:	cf 92       	push	r12
    34d0:	df 92       	push	r13
    34d2:	ef 92       	push	r14
    34d4:	ff 92       	push	r15
    34d6:	0f 93       	push	r16
    34d8:	1f 93       	push	r17
    34da:	cf 93       	push	r28
    34dc:	df 93       	push	r29
    34de:	1f 92       	push	r1
    34e0:	cd b7       	in	r28, 0x3d	; 61
    34e2:	de b7       	in	r29, 0x3e	; 62
    34e4:	3c 01       	movw	r6, r24
    34e6:	0e 94 72 33 	call	0x66e4	; 0x66e4 <spi_MT_flash_get_ticks>
    34ea:	82 2e       	mov	r8, r18
    34ec:	93 2e       	mov	r9, r19
    34ee:	84 e6       	ldi	r24, 0x64	; 100
    34f0:	88 0e       	add	r8, r24
    34f2:	91 1c       	adc	r9, r1
    34f4:	08 c0       	rjmp	.+16     	; 0x3506 <spi_nand_wait_crbusy+0x44>
    34f6:	be 01       	movw	r22, r28
    34f8:	6f 5f       	subi	r22, 0xFF	; 255
    34fa:	7f 4f       	sbci	r23, 0xFF	; 255
    34fc:	c3 01       	movw	r24, r6
    34fe:	dd df       	rcall	.-70     	; 0x34ba <spi_nand_read_status>
    3500:	89 81       	ldd	r24, Y+1	; 0x01
    3502:	88 23       	and	r24, r24
    3504:	a4 f4       	brge	.+40     	; 0x352e <spi_nand_wait_crbusy+0x6c>
    3506:	0e 94 72 33 	call	0x66e4	; 0x66e4 <spi_MT_flash_get_ticks>
    350a:	a8 2c       	mov	r10, r8
    350c:	b9 2c       	mov	r11, r9
    350e:	19 2d       	mov	r17, r9
    3510:	11 0f       	add	r17, r17
    3512:	11 0b       	sbc	r17, r17
    3514:	c1 2e       	mov	r12, r17
    3516:	d1 2e       	mov	r13, r17
    3518:	e1 2e       	mov	r14, r17
    351a:	f1 2e       	mov	r15, r17
    351c:	01 2f       	mov	r16, r17
    351e:	0e 94 c0 40 	call	0x8180	; 0x8180 <__cmpdi2>
    3522:	48 f3       	brcs	.-46     	; 0x34f6 <spi_nand_wait_crbusy+0x34>
    3524:	82 e9       	ldi	r24, 0x92	; 146
    3526:	9f ef       	ldi	r25, 0xFF	; 255
    3528:	af ef       	ldi	r26, 0xFF	; 255
    352a:	bf ef       	ldi	r27, 0xFF	; 255
    352c:	03 c0       	rjmp	.+6      	; 0x3534 <spi_nand_wait_crbusy+0x72>
    352e:	80 e0       	ldi	r24, 0x00	; 0
    3530:	90 e0       	ldi	r25, 0x00	; 0
    3532:	dc 01       	movw	r26, r24
    3534:	0f 90       	pop	r0
    3536:	df 91       	pop	r29
    3538:	cf 91       	pop	r28
    353a:	1f 91       	pop	r17
    353c:	0f 91       	pop	r16
    353e:	ff 90       	pop	r15
    3540:	ef 90       	pop	r14
    3542:	df 90       	pop	r13
    3544:	cf 90       	pop	r12
    3546:	bf 90       	pop	r11
    3548:	af 90       	pop	r10
    354a:	9f 90       	pop	r9
    354c:	8f 90       	pop	r8
    354e:	7f 90       	pop	r7
    3550:	6f 90       	pop	r6
    3552:	08 95       	ret

00003554 <spi_nand_wait>:
    3554:	4f 92       	push	r4
    3556:	5f 92       	push	r5
    3558:	6f 92       	push	r6
    355a:	7f 92       	push	r7
    355c:	8f 92       	push	r8
    355e:	9f 92       	push	r9
    3560:	af 92       	push	r10
    3562:	bf 92       	push	r11
    3564:	cf 92       	push	r12
    3566:	df 92       	push	r13
    3568:	ef 92       	push	r14
    356a:	ff 92       	push	r15
    356c:	0f 93       	push	r16
    356e:	1f 93       	push	r17
    3570:	cf 93       	push	r28
    3572:	df 93       	push	r29
    3574:	1f 92       	push	r1
    3576:	cd b7       	in	r28, 0x3d	; 61
    3578:	de b7       	in	r29, 0x3e	; 62
    357a:	3c 01       	movw	r6, r24
    357c:	2b 01       	movw	r4, r22
    357e:	0e 94 72 33 	call	0x66e4	; 0x66e4 <spi_MT_flash_get_ticks>
    3582:	82 2e       	mov	r8, r18
    3584:	93 2e       	mov	r9, r19
    3586:	84 e6       	ldi	r24, 0x64	; 100
    3588:	88 0e       	add	r8, r24
    358a:	91 1c       	adc	r9, r1
    358c:	08 c0       	rjmp	.+16     	; 0x359e <spi_nand_wait+0x4a>
    358e:	be 01       	movw	r22, r28
    3590:	6f 5f       	subi	r22, 0xFF	; 255
    3592:	7f 4f       	sbci	r23, 0xFF	; 255
    3594:	c3 01       	movw	r24, r6
    3596:	91 df       	rcall	.-222    	; 0x34ba <spi_nand_read_status>
    3598:	89 81       	ldd	r24, Y+1	; 0x01
    359a:	80 ff       	sbrs	r24, 0
    359c:	14 c0       	rjmp	.+40     	; 0x35c6 <spi_nand_wait+0x72>
    359e:	0e 94 72 33 	call	0x66e4	; 0x66e4 <spi_MT_flash_get_ticks>
    35a2:	a8 2c       	mov	r10, r8
    35a4:	b9 2c       	mov	r11, r9
    35a6:	19 2d       	mov	r17, r9
    35a8:	11 0f       	add	r17, r17
    35aa:	11 0b       	sbc	r17, r17
    35ac:	c1 2e       	mov	r12, r17
    35ae:	d1 2e       	mov	r13, r17
    35b0:	e1 2e       	mov	r14, r17
    35b2:	f1 2e       	mov	r15, r17
    35b4:	01 2f       	mov	r16, r17
    35b6:	0e 94 c0 40 	call	0x8180	; 0x8180 <__cmpdi2>
    35ba:	48 f3       	brcs	.-46     	; 0x358e <spi_nand_wait+0x3a>
    35bc:	82 e9       	ldi	r24, 0x92	; 146
    35be:	9f ef       	ldi	r25, 0xFF	; 255
    35c0:	af ef       	ldi	r26, 0xFF	; 255
    35c2:	bf ef       	ldi	r27, 0xFF	; 255
    35c4:	03 c0       	rjmp	.+6      	; 0x35cc <spi_nand_wait+0x78>
    35c6:	80 e0       	ldi	r24, 0x00	; 0
    35c8:	90 e0       	ldi	r25, 0x00	; 0
    35ca:	dc 01       	movw	r26, r24
    35cc:	41 14       	cp	r4, r1
    35ce:	51 04       	cpc	r5, r1
    35d0:	19 f0       	breq	.+6      	; 0x35d8 <spi_nand_wait+0x84>
    35d2:	29 81       	ldd	r18, Y+1	; 0x01
    35d4:	f2 01       	movw	r30, r4
    35d6:	20 83       	st	Z, r18
    35d8:	0f 90       	pop	r0
    35da:	df 91       	pop	r29
    35dc:	cf 91       	pop	r28
    35de:	1f 91       	pop	r17
    35e0:	0f 91       	pop	r16
    35e2:	ff 90       	pop	r15
    35e4:	ef 90       	pop	r14
    35e6:	df 90       	pop	r13
    35e8:	cf 90       	pop	r12
    35ea:	bf 90       	pop	r11
    35ec:	af 90       	pop	r10
    35ee:	9f 90       	pop	r9
    35f0:	8f 90       	pop	r8
    35f2:	7f 90       	pop	r7
    35f4:	6f 90       	pop	r6
    35f6:	5f 90       	pop	r5
    35f8:	4f 90       	pop	r4
    35fa:	08 95       	ret

000035fc <spi_nand_do_read_page>:
    35fc:	2f 92       	push	r2
    35fe:	3f 92       	push	r3
    3600:	4f 92       	push	r4
    3602:	5f 92       	push	r5
    3604:	6f 92       	push	r6
    3606:	7f 92       	push	r7
    3608:	8f 92       	push	r8
    360a:	9f 92       	push	r9
    360c:	af 92       	push	r10
    360e:	bf 92       	push	r11
    3610:	cf 92       	push	r12
    3612:	df 92       	push	r13
    3614:	ef 92       	push	r14
    3616:	ff 92       	push	r15
    3618:	0f 93       	push	r16
    361a:	1f 93       	push	r17
    361c:	cf 93       	push	r28
    361e:	df 93       	push	r29
    3620:	cd b7       	in	r28, 0x3d	; 61
    3622:	de b7       	in	r29, 0x3e	; 62
    3624:	27 97       	sbiw	r28, 0x07	; 7
    3626:	0f b6       	in	r0, 0x3f	; 63
    3628:	f8 94       	cli
    362a:	de bf       	out	0x3e, r29	; 62
    362c:	0f be       	out	0x3f, r0	; 63
    362e:	cd bf       	out	0x3d, r28	; 61
    3630:	3c 01       	movw	r6, r24
    3632:	54 2e       	mov	r5, r20
    3634:	45 2e       	mov	r4, r21
    3636:	36 2e       	mov	r3, r22
    3638:	27 2e       	mov	r2, r23
    363a:	0c 83       	std	Y+4, r16	; 0x04
    363c:	1d 83       	std	Y+5, r17	; 0x05
    363e:	2e 83       	std	Y+6, r18	; 0x06
    3640:	3f 83       	std	Y+7, r19	; 0x07
    3642:	86 01       	movw	r16, r12
    3644:	65 01       	movw	r12, r10
    3646:	5b dc       	rcall	.-1866   	; 0x2efe <spi_nand_read_page_to_cache>
    3648:	be 01       	movw	r22, r28
    364a:	6d 5f       	subi	r22, 0xFD	; 253
    364c:	7f 4f       	sbci	r23, 0xFF	; 255
    364e:	c3 01       	movw	r24, r6
    3650:	81 df       	rcall	.-254    	; 0x3554 <spi_nand_wait>
    3652:	5c 01       	movw	r10, r24
    3654:	99 23       	and	r25, r25
    3656:	94 f4       	brge	.+36     	; 0x367c <spi_nand_do_read_page+0x80>
    3658:	2f 92       	push	r2
    365a:	3f 92       	push	r3
    365c:	4f 92       	push	r4
    365e:	5f 92       	push	r5
    3660:	bf 92       	push	r11
    3662:	8f 93       	push	r24
    3664:	85 e4       	ldi	r24, 0x45	; 69
    3666:	9b e0       	ldi	r25, 0x0B	; 11
    3668:	9f 93       	push	r25
    366a:	8f 93       	push	r24
    366c:	0e 94 63 42 	call	0x84c6	; 0x84c6 <printf>
    3670:	0f b6       	in	r0, 0x3f	; 63
    3672:	f8 94       	cli
    3674:	de bf       	out	0x3e, r29	; 62
    3676:	0f be       	out	0x3f, r0	; 63
    3678:	cd bf       	out	0x3d, r28	; 61
    367a:	2e c0       	rjmp	.+92     	; 0x36d8 <spi_nand_do_read_page+0xdc>
    367c:	ef 28       	or	r14, r15
    367e:	09 f5       	brne	.+66     	; 0x36c2 <spi_nand_do_read_page+0xc6>
    3680:	8b 81       	ldd	r24, Y+3	; 0x03
    3682:	ae 01       	movw	r20, r28
    3684:	4f 5f       	subi	r20, 0xFF	; 255
    3686:	5f 4f       	sbci	r21, 0xFF	; 255
    3688:	b8 01       	movw	r22, r16
    368a:	90 e0       	ldi	r25, 0x00	; 0
    368c:	66 da       	rcall	.-2868   	; 0x2b5a <spi_nand_ecc_status>
    368e:	89 81       	ldd	r24, Y+1	; 0x01
    3690:	9a 81       	ldd	r25, Y+2	; 0x02
    3692:	89 2b       	or	r24, r25
    3694:	b1 f0       	breq	.+44     	; 0x36c2 <spi_nand_do_read_page+0xc6>
    3696:	2f 92       	push	r2
    3698:	3f 92       	push	r3
    369a:	4f 92       	push	r4
    369c:	5f 92       	push	r5
    369e:	8a e6       	ldi	r24, 0x6A	; 106
    36a0:	9b e0       	ldi	r25, 0x0B	; 11
    36a2:	9f 93       	push	r25
    36a4:	8f 93       	push	r24
    36a6:	0e 94 63 42 	call	0x84c6	; 0x84c6 <printf>
    36aa:	0f 90       	pop	r0
    36ac:	0f 90       	pop	r0
    36ae:	0f 90       	pop	r0
    36b0:	0f 90       	pop	r0
    36b2:	0f 90       	pop	r0
    36b4:	0f 90       	pop	r0
    36b6:	0f 2e       	mov	r0, r31
    36b8:	f6 eb       	ldi	r31, 0xB6	; 182
    36ba:	af 2e       	mov	r10, r31
    36bc:	bb 24       	eor	r11, r11
    36be:	ba 94       	dec	r11
    36c0:	f0 2d       	mov	r31, r0
    36c2:	74 01       	movw	r14, r8
    36c4:	0c 81       	ldd	r16, Y+4	; 0x04
    36c6:	1d 81       	ldd	r17, Y+5	; 0x05
    36c8:	2e 81       	ldd	r18, Y+6	; 0x06
    36ca:	3f 81       	ldd	r19, Y+7	; 0x07
    36cc:	45 2d       	mov	r20, r5
    36ce:	54 2d       	mov	r21, r4
    36d0:	63 2d       	mov	r22, r3
    36d2:	72 2d       	mov	r23, r2
    36d4:	c3 01       	movw	r24, r6
    36d6:	7a dc       	rcall	.-1804   	; 0x2fcc <spi_nand_read_from_cache>
    36d8:	c5 01       	movw	r24, r10
    36da:	27 96       	adiw	r28, 0x07	; 7
    36dc:	0f b6       	in	r0, 0x3f	; 63
    36de:	f8 94       	cli
    36e0:	de bf       	out	0x3e, r29	; 62
    36e2:	0f be       	out	0x3f, r0	; 63
    36e4:	cd bf       	out	0x3d, r28	; 61
    36e6:	df 91       	pop	r29
    36e8:	cf 91       	pop	r28
    36ea:	1f 91       	pop	r17
    36ec:	0f 91       	pop	r16
    36ee:	ff 90       	pop	r15
    36f0:	ef 90       	pop	r14
    36f2:	df 90       	pop	r13
    36f4:	cf 90       	pop	r12
    36f6:	bf 90       	pop	r11
    36f8:	af 90       	pop	r10
    36fa:	9f 90       	pop	r9
    36fc:	8f 90       	pop	r8
    36fe:	7f 90       	pop	r7
    3700:	6f 90       	pop	r6
    3702:	5f 90       	pop	r5
    3704:	4f 90       	pop	r4
    3706:	3f 90       	pop	r3
    3708:	2f 90       	pop	r2
    370a:	08 95       	ret

0000370c <spi_nand_do_write_page>:
    370c:	4f 92       	push	r4
    370e:	5f 92       	push	r5
    3710:	6f 92       	push	r6
    3712:	7f 92       	push	r7
    3714:	8f 92       	push	r8
    3716:	9f 92       	push	r9
    3718:	af 92       	push	r10
    371a:	bf 92       	push	r11
    371c:	cf 92       	push	r12
    371e:	df 92       	push	r13
    3720:	ef 92       	push	r14
    3722:	ff 92       	push	r15
    3724:	0f 93       	push	r16
    3726:	1f 93       	push	r17
    3728:	cf 93       	push	r28
    372a:	df 93       	push	r29
    372c:	00 d0       	rcall	.+0      	; 0x372e <spi_nand_do_write_page+0x22>
    372e:	1f 92       	push	r1
    3730:	1f 92       	push	r1
    3732:	cd b7       	in	r28, 0x3d	; 61
    3734:	de b7       	in	r29, 0x3e	; 62
    3736:	4c 01       	movw	r8, r24
    3738:	44 2e       	mov	r4, r20
    373a:	55 2e       	mov	r5, r21
    373c:	76 2e       	mov	r7, r22
    373e:	67 2e       	mov	r6, r23
    3740:	0a 83       	std	Y+2, r16	; 0x02
    3742:	1b 83       	std	Y+3, r17	; 0x03
    3744:	2c 83       	std	Y+4, r18	; 0x04
    3746:	3d 83       	std	Y+5, r19	; 0x05
    3748:	86 01       	movw	r16, r12
    374a:	13 dd       	rcall	.-1498   	; 0x3172 <spi_nand_write_enable>
    374c:	67 01       	movw	r12, r14
    374e:	78 01       	movw	r14, r16
    3750:	0a 81       	ldd	r16, Y+2	; 0x02
    3752:	1b 81       	ldd	r17, Y+3	; 0x03
    3754:	2c 81       	ldd	r18, Y+4	; 0x04
    3756:	3d 81       	ldd	r19, Y+5	; 0x05
    3758:	44 2d       	mov	r20, r4
    375a:	55 2d       	mov	r21, r5
    375c:	67 2d       	mov	r22, r7
    375e:	76 2d       	mov	r23, r6
    3760:	c4 01       	movw	r24, r8
    3762:	9a dc       	rcall	.-1740   	; 0x3098 <spi_nand_program_data_to_cache>
    3764:	44 2d       	mov	r20, r4
    3766:	55 2d       	mov	r21, r5
    3768:	67 2d       	mov	r22, r7
    376a:	76 2d       	mov	r23, r6
    376c:	c4 01       	movw	r24, r8
    376e:	20 dd       	rcall	.-1472   	; 0x31b0 <spi_nand_program_execute>
    3770:	be 01       	movw	r22, r28
    3772:	6f 5f       	subi	r22, 0xFF	; 255
    3774:	7f 4f       	sbci	r23, 0xFF	; 255
    3776:	c4 01       	movw	r24, r8
    3778:	ed de       	rcall	.-550    	; 0x3554 <spi_nand_wait>
    377a:	8c 01       	movw	r16, r24
    377c:	99 23       	and	r25, r25
    377e:	94 f4       	brge	.+36     	; 0x37a4 <spi_nand_do_write_page+0x98>
    3780:	6f 92       	push	r6
    3782:	7f 92       	push	r7
    3784:	5f 92       	push	r5
    3786:	4f 92       	push	r4
    3788:	1f 93       	push	r17
    378a:	8f 93       	push	r24
    378c:	80 e9       	ldi	r24, 0x90	; 144
    378e:	9b e0       	ldi	r25, 0x0B	; 11
    3790:	9f 93       	push	r25
    3792:	8f 93       	push	r24
    3794:	0e 94 63 42 	call	0x84c6	; 0x84c6 <printf>
    3798:	0f b6       	in	r0, 0x3f	; 63
    379a:	f8 94       	cli
    379c:	de bf       	out	0x3e, r29	; 62
    379e:	0f be       	out	0x3f, r0	; 63
    37a0:	cd bf       	out	0x3d, r28	; 61
    37a2:	1c c0       	rjmp	.+56     	; 0x37dc <spi_nand_do_write_page+0xd0>
    37a4:	89 81       	ldd	r24, Y+1	; 0x01
    37a6:	83 ff       	sbrs	r24, 3
    37a8:	13 c0       	rjmp	.+38     	; 0x37d0 <spi_nand_do_write_page+0xc4>
    37aa:	6f 92       	push	r6
    37ac:	7f 92       	push	r7
    37ae:	5f 92       	push	r5
    37b0:	4f 92       	push	r4
    37b2:	87 eb       	ldi	r24, 0xB7	; 183
    37b4:	9b e0       	ldi	r25, 0x0B	; 11
    37b6:	9f 93       	push	r25
    37b8:	8f 93       	push	r24
    37ba:	0e 94 63 42 	call	0x84c6	; 0x84c6 <printf>
    37be:	0f 90       	pop	r0
    37c0:	0f 90       	pop	r0
    37c2:	0f 90       	pop	r0
    37c4:	0f 90       	pop	r0
    37c6:	0f 90       	pop	r0
    37c8:	0f 90       	pop	r0
    37ca:	81 e0       	ldi	r24, 0x01	; 1
    37cc:	90 e0       	ldi	r25, 0x00	; 0
    37ce:	02 c0       	rjmp	.+4      	; 0x37d4 <spi_nand_do_write_page+0xc8>
    37d0:	80 e0       	ldi	r24, 0x00	; 0
    37d2:	90 e0       	ldi	r25, 0x00	; 0
    37d4:	89 2b       	or	r24, r25
    37d6:	11 f0       	breq	.+4      	; 0x37dc <spi_nand_do_write_page+0xd0>
    37d8:	0b ef       	ldi	r16, 0xFB	; 251
    37da:	1f ef       	ldi	r17, 0xFF	; 255
    37dc:	c8 01       	movw	r24, r16
    37de:	0f 90       	pop	r0
    37e0:	0f 90       	pop	r0
    37e2:	0f 90       	pop	r0
    37e4:	0f 90       	pop	r0
    37e6:	0f 90       	pop	r0
    37e8:	df 91       	pop	r29
    37ea:	cf 91       	pop	r28
    37ec:	1f 91       	pop	r17
    37ee:	0f 91       	pop	r16
    37f0:	ff 90       	pop	r15
    37f2:	ef 90       	pop	r14
    37f4:	df 90       	pop	r13
    37f6:	cf 90       	pop	r12
    37f8:	bf 90       	pop	r11
    37fa:	af 90       	pop	r10
    37fc:	9f 90       	pop	r9
    37fe:	8f 90       	pop	r8
    3800:	7f 90       	pop	r7
    3802:	6f 90       	pop	r6
    3804:	5f 90       	pop	r5
    3806:	4f 90       	pop	r4
    3808:	08 95       	ret

0000380a <spi_nand_transfer_oob>:
    380a:	4f 92       	push	r4
    380c:	5f 92       	push	r5
    380e:	6f 92       	push	r6
    3810:	7f 92       	push	r7
    3812:	af 92       	push	r10
    3814:	bf 92       	push	r11
    3816:	cf 92       	push	r12
    3818:	df 92       	push	r13
    381a:	ef 92       	push	r14
    381c:	ff 92       	push	r15
    381e:	0f 93       	push	r16
    3820:	1f 93       	push	r17
    3822:	cf 93       	push	r28
    3824:	df 93       	push	r29
    3826:	5c 01       	movw	r10, r24
    3828:	6b 01       	movw	r12, r22
    382a:	79 01       	movw	r14, r18
    382c:	fa 01       	movw	r30, r20
    382e:	80 81       	ld	r24, Z
    3830:	91 81       	ldd	r25, Z+1	; 0x01
    3832:	00 97       	sbiw	r24, 0x00	; 0
    3834:	11 f0       	breq	.+4      	; 0x383a <spi_nand_transfer_oob+0x30>
    3836:	02 97       	sbiw	r24, 0x02	; 2
    3838:	79 f4       	brne	.+30     	; 0x3858 <spi_nand_transfer_oob+0x4e>
    383a:	f5 01       	movw	r30, r10
    383c:	61 85       	ldd	r22, Z+9	; 0x09
    383e:	72 85       	ldd	r23, Z+10	; 0x0a
    3840:	fa 01       	movw	r30, r20
    3842:	82 85       	ldd	r24, Z+10	; 0x0a
    3844:	93 85       	ldd	r25, Z+11	; 0x0b
    3846:	a4 85       	ldd	r26, Z+12	; 0x0c
    3848:	b5 85       	ldd	r27, Z+13	; 0x0d
    384a:	68 0f       	add	r22, r24
    384c:	79 1f       	adc	r23, r25
    384e:	a7 01       	movw	r20, r14
    3850:	c6 01       	movw	r24, r12
    3852:	0e 94 f2 41 	call	0x83e4	; 0x83e4 <memcpy>
    3856:	65 c0       	rjmp	.+202    	; 0x3922 <spi_nand_transfer_oob+0x118>
    3858:	f5 01       	movw	r30, r10
    385a:	02 a5       	ldd	r16, Z+42	; 0x2a
    385c:	13 a5       	ldd	r17, Z+43	; 0x2b
    385e:	08 5f       	subi	r16, 0xF8	; 248
    3860:	1e 4f       	sbci	r17, 0xFE	; 254
    3862:	fa 01       	movw	r30, r20
    3864:	42 84       	ldd	r4, Z+10	; 0x0a
    3866:	53 84       	ldd	r5, Z+11	; 0x0b
    3868:	64 84       	ldd	r6, Z+12	; 0x0c
    386a:	75 84       	ldd	r7, Z+13	; 0x0d
    386c:	c0 e0       	ldi	r28, 0x00	; 0
    386e:	d0 e0       	ldi	r29, 0x00	; 0
    3870:	4b c0       	rjmp	.+150    	; 0x3908 <spi_nand_transfer_oob+0xfe>
    3872:	41 14       	cp	r4, r1
    3874:	51 04       	cpc	r5, r1
    3876:	61 04       	cpc	r6, r1
    3878:	71 04       	cpc	r7, r1
    387a:	31 f1       	breq	.+76     	; 0x38c8 <spi_nand_transfer_oob+0xbe>
    387c:	48 16       	cp	r4, r24
    387e:	59 06       	cpc	r5, r25
    3880:	6a 06       	cpc	r6, r26
    3882:	7b 06       	cpc	r7, r27
    3884:	28 f0       	brcs	.+10     	; 0x3890 <spi_nand_transfer_oob+0x86>
    3886:	48 1a       	sub	r4, r24
    3888:	59 0a       	sbc	r5, r25
    388a:	6a 0a       	sbc	r6, r26
    388c:	7b 0a       	sbc	r7, r27
    388e:	38 c0       	rjmp	.+112    	; 0x3900 <spi_nand_transfer_oob+0xf6>
    3890:	f8 01       	movw	r30, r16
    3892:	40 81       	ld	r20, Z
    3894:	51 81       	ldd	r21, Z+1	; 0x01
    3896:	62 81       	ldd	r22, Z+2	; 0x02
    3898:	73 81       	ldd	r23, Z+3	; 0x03
    389a:	44 0d       	add	r20, r4
    389c:	55 1d       	adc	r21, r5
    389e:	66 1d       	adc	r22, r6
    38a0:	77 1d       	adc	r23, r7
    38a2:	84 19       	sub	r24, r4
    38a4:	95 09       	sbc	r25, r5
    38a6:	a6 09       	sbc	r26, r6
    38a8:	b7 09       	sbc	r27, r7
    38aa:	27 01       	movw	r4, r14
    38ac:	61 2c       	mov	r6, r1
    38ae:	71 2c       	mov	r7, r1
    38b0:	84 15       	cp	r24, r4
    38b2:	95 05       	cpc	r25, r5
    38b4:	a6 05       	cpc	r26, r6
    38b6:	b7 05       	cpc	r27, r7
    38b8:	10 f4       	brcc	.+4      	; 0x38be <spi_nand_transfer_oob+0xb4>
    38ba:	2c 01       	movw	r4, r24
    38bc:	3d 01       	movw	r6, r26
    38be:	e2 01       	movw	r28, r4
    38c0:	41 2c       	mov	r4, r1
    38c2:	51 2c       	mov	r5, r1
    38c4:	32 01       	movw	r6, r4
    38c6:	10 c0       	rjmp	.+32     	; 0x38e8 <spi_nand_transfer_oob+0xde>
    38c8:	a7 01       	movw	r20, r14
    38ca:	60 e0       	ldi	r22, 0x00	; 0
    38cc:	70 e0       	ldi	r23, 0x00	; 0
    38ce:	84 17       	cp	r24, r20
    38d0:	95 07       	cpc	r25, r21
    38d2:	a6 07       	cpc	r26, r22
    38d4:	b7 07       	cpc	r27, r23
    38d6:	10 f4       	brcc	.+4      	; 0x38dc <spi_nand_transfer_oob+0xd2>
    38d8:	ac 01       	movw	r20, r24
    38da:	bd 01       	movw	r22, r26
    38dc:	ea 01       	movw	r28, r20
    38de:	f8 01       	movw	r30, r16
    38e0:	40 81       	ld	r20, Z
    38e2:	51 81       	ldd	r21, Z+1	; 0x01
    38e4:	62 81       	ldd	r22, Z+2	; 0x02
    38e6:	73 81       	ldd	r23, Z+3	; 0x03
    38e8:	f5 01       	movw	r30, r10
    38ea:	81 85       	ldd	r24, Z+9	; 0x09
    38ec:	92 85       	ldd	r25, Z+10	; 0x0a
    38ee:	bc 01       	movw	r22, r24
    38f0:	64 0f       	add	r22, r20
    38f2:	75 1f       	adc	r23, r21
    38f4:	ae 01       	movw	r20, r28
    38f6:	c6 01       	movw	r24, r12
    38f8:	0e 94 f2 41 	call	0x83e4	; 0x83e4 <memcpy>
    38fc:	cc 0e       	add	r12, r28
    38fe:	dd 1e       	adc	r13, r29
    3900:	08 5f       	subi	r16, 0xF8	; 248
    3902:	1f 4f       	sbci	r17, 0xFF	; 255
    3904:	ec 1a       	sub	r14, r28
    3906:	fd 0a       	sbc	r15, r29
    3908:	f8 01       	movw	r30, r16
    390a:	84 81       	ldd	r24, Z+4	; 0x04
    390c:	95 81       	ldd	r25, Z+5	; 0x05
    390e:	a6 81       	ldd	r26, Z+6	; 0x06
    3910:	b7 81       	ldd	r27, Z+7	; 0x07
    3912:	00 97       	sbiw	r24, 0x00	; 0
    3914:	a1 05       	cpc	r26, r1
    3916:	b1 05       	cpc	r27, r1
    3918:	21 f0       	breq	.+8      	; 0x3922 <spi_nand_transfer_oob+0x118>
    391a:	e1 14       	cp	r14, r1
    391c:	f1 04       	cpc	r15, r1
    391e:	09 f0       	breq	.+2      	; 0x3922 <spi_nand_transfer_oob+0x118>
    3920:	a8 cf       	rjmp	.-176    	; 0x3872 <spi_nand_transfer_oob+0x68>
    3922:	df 91       	pop	r29
    3924:	cf 91       	pop	r28
    3926:	1f 91       	pop	r17
    3928:	0f 91       	pop	r16
    392a:	ff 90       	pop	r15
    392c:	ef 90       	pop	r14
    392e:	df 90       	pop	r13
    3930:	cf 90       	pop	r12
    3932:	bf 90       	pop	r11
    3934:	af 90       	pop	r10
    3936:	7f 90       	pop	r7
    3938:	6f 90       	pop	r6
    393a:	5f 90       	pop	r5
    393c:	4f 90       	pop	r4
    393e:	08 95       	ret

00003940 <spi_nand_read_pages_fast>:
    3940:	2f 92       	push	r2
    3942:	3f 92       	push	r3
    3944:	4f 92       	push	r4
    3946:	5f 92       	push	r5
    3948:	6f 92       	push	r6
    394a:	7f 92       	push	r7
    394c:	8f 92       	push	r8
    394e:	9f 92       	push	r9
    3950:	af 92       	push	r10
    3952:	bf 92       	push	r11
    3954:	cf 92       	push	r12
    3956:	df 92       	push	r13
    3958:	ef 92       	push	r14
    395a:	ff 92       	push	r15
    395c:	0f 93       	push	r16
    395e:	1f 93       	push	r17
    3960:	cf 93       	push	r28
    3962:	df 93       	push	r29
    3964:	cd b7       	in	r28, 0x3d	; 61
    3966:	de b7       	in	r29, 0x3e	; 62
    3968:	a1 97       	sbiw	r28, 0x21	; 33
    396a:	0f b6       	in	r0, 0x3f	; 63
    396c:	f8 94       	cli
    396e:	de bf       	out	0x3e, r29	; 62
    3970:	0f be       	out	0x3f, r0	; 63
    3972:	cd bf       	out	0x3d, r28	; 61
    3974:	1c 01       	movw	r2, r24
    3976:	08 87       	std	Y+8, r16	; 0x08
    3978:	19 87       	std	Y+9, r17	; 0x09
    397a:	2a 87       	std	Y+10, r18	; 0x0a
    397c:	3b 87       	std	Y+11, r19	; 0x0b
    397e:	4c 87       	std	Y+12, r20	; 0x0c
    3980:	5d 87       	std	Y+13, r21	; 0x0d
    3982:	6e 87       	std	Y+14, r22	; 0x0e
    3984:	7f 87       	std	Y+15, r23	; 0x0f
    3986:	ff 82       	std	Y+7, r15	; 0x07
    3988:	ee 82       	std	Y+6, r14	; 0x06
    398a:	1a 82       	std	Y+2, r1	; 0x02
    398c:	19 82       	std	Y+1, r1	; 0x01
    398e:	d7 01       	movw	r26, r14
    3990:	12 96       	adiw	r26, 0x02	; 2
    3992:	8d 90       	ld	r8, X+
    3994:	9c 90       	ld	r9, X
    3996:	13 97       	sbiw	r26, 0x03	; 3
    3998:	16 96       	adiw	r26, 0x06	; 6
    399a:	ed 91       	ld	r30, X+
    399c:	fc 91       	ld	r31, X
    399e:	17 97       	sbiw	r26, 0x07	; 7
    39a0:	f9 8b       	std	Y+17, r31	; 0x11
    39a2:	e8 8b       	std	Y+16, r30	; 0x10
    39a4:	2d 91       	ld	r18, X+
    39a6:	3c 91       	ld	r19, X
    39a8:	3f 8b       	std	Y+23, r19	; 0x17
    39aa:	2e 8b       	std	Y+22, r18	; 0x16
    39ac:	21 30       	cpi	r18, 0x01	; 1
    39ae:	31 05       	cpc	r19, r1
    39b0:	61 f4       	brne	.+24     	; 0x39ca <spi_nand_read_pages_fast+0x8a>
    39b2:	dc 01       	movw	r26, r24
    39b4:	9a 96       	adiw	r26, 0x2a	; 42
    39b6:	ed 91       	ld	r30, X+
    39b8:	fc 91       	ld	r31, X
    39ba:	9b 97       	sbiw	r26, 0x2b	; 43
    39bc:	ec 5f       	subi	r30, 0xFC	; 252
    39be:	fe 4f       	sbci	r31, 0xFE	; 254
    39c0:	20 81       	ld	r18, Z
    39c2:	31 81       	ldd	r19, Z+1	; 0x01
    39c4:	3d 8b       	std	Y+21, r19	; 0x15
    39c6:	2c 8b       	std	Y+20, r18	; 0x14
    39c8:	07 c0       	rjmp	.+14     	; 0x39d8 <spi_nand_read_pages_fast+0x98>
    39ca:	dc 01       	movw	r26, r24
    39cc:	59 96       	adiw	r26, 0x19	; 25
    39ce:	0d 90       	ld	r0, X+
    39d0:	bc 91       	ld	r27, X
    39d2:	a0 2d       	mov	r26, r0
    39d4:	bd 8b       	std	Y+21, r27	; 0x15
    39d6:	ac 8b       	std	Y+20, r26	; 0x14
    39d8:	f1 01       	movw	r30, r2
    39da:	05 8d       	ldd	r16, Z+29	; 0x1d
    39dc:	28 85       	ldd	r18, Y+8	; 0x08
    39de:	39 85       	ldd	r19, Y+9	; 0x09
    39e0:	4a 85       	ldd	r20, Y+10	; 0x0a
    39e2:	5b 85       	ldd	r21, Y+11	; 0x0b
    39e4:	6c 85       	ldd	r22, Y+12	; 0x0c
    39e6:	7d 85       	ldd	r23, Y+13	; 0x0d
    39e8:	8e 85       	ldd	r24, Y+14	; 0x0e
    39ea:	9f 85       	ldd	r25, Y+15	; 0x0f
    39ec:	0e 94 90 40 	call	0x8120	; 0x8120 <__ashrdi3>
    39f0:	42 2e       	mov	r4, r18
    39f2:	53 2e       	mov	r5, r19
    39f4:	e6 8c       	ldd	r14, Z+30	; 0x1e
    39f6:	f7 8c       	ldd	r15, Z+31	; 0x1f
    39f8:	28 85       	ldd	r18, Y+8	; 0x08
    39fa:	39 85       	ldd	r19, Y+9	; 0x09
    39fc:	e2 22       	and	r14, r18
    39fe:	f3 22       	and	r15, r19
    3a00:	ae 81       	ldd	r26, Y+6	; 0x06
    3a02:	bf 81       	ldd	r27, Y+7	; 0x07
    3a04:	15 96       	adiw	r26, 0x05	; 5
    3a06:	1c 92       	st	X, r1
    3a08:	1e 92       	st	-X, r1
    3a0a:	14 97       	sbiw	r26, 0x04	; 4
    3a0c:	03 8d       	ldd	r16, Z+27	; 0x1b
    3a0e:	28 85       	ldd	r18, Y+8	; 0x08
    3a10:	39 85       	ldd	r19, Y+9	; 0x09
    3a12:	4a 85       	ldd	r20, Y+10	; 0x0a
    3a14:	5b 85       	ldd	r21, Y+11	; 0x0b
    3a16:	6c 85       	ldd	r22, Y+12	; 0x0c
    3a18:	7d 85       	ldd	r23, Y+13	; 0x0d
    3a1a:	8e 85       	ldd	r24, Y+14	; 0x0e
    3a1c:	9f 85       	ldd	r25, Y+15	; 0x0f
    3a1e:	0e 94 90 40 	call	0x8120	; 0x8120 <__ashrdi3>
    3a22:	2a 8f       	std	Y+26, r18	; 0x1a
    3a24:	3b 8f       	std	Y+27, r19	; 0x1b
    3a26:	19 8e       	std	Y+25, r1	; 0x19
    3a28:	18 8e       	std	Y+24, r1	; 0x18
    3a2a:	a1 2c       	mov	r10, r1
    3a2c:	b1 2c       	mov	r11, r1
    3a2e:	1b 8a       	std	Y+19, r1	; 0x13
    3a30:	1a 8a       	std	Y+18, r1	; 0x12
    3a32:	f1 01       	movw	r30, r2
    3a34:	80 a1       	ldd	r24, Z+32	; 0x20
    3a36:	81 ff       	sbrs	r24, 1
    3a38:	03 c0       	rjmp	.+6      	; 0x3a40 <spi_nand_read_pages_fast+0x100>
    3a3a:	6a 8d       	ldd	r22, Y+26	; 0x1a
    3a3c:	c1 01       	movw	r24, r2
    3a3e:	58 dc       	rcall	.-1872   	; 0x32f0 <spi_nand_lun_select>
    3a40:	a2 01       	movw	r20, r4
    3a42:	05 2c       	mov	r0, r5
    3a44:	00 0c       	add	r0, r0
    3a46:	66 0b       	sbc	r22, r22
    3a48:	77 0b       	sbc	r23, r23
    3a4a:	c1 01       	movw	r24, r2
    3a4c:	58 da       	rcall	.-2896   	; 0x2efe <spi_nand_read_page_to_cache>
    3a4e:	be 01       	movw	r22, r28
    3a50:	6d 5f       	subi	r22, 0xFD	; 253
    3a52:	7f 4f       	sbci	r23, 0xFF	; 255
    3a54:	c1 01       	movw	r24, r2
    3a56:	7e dd       	rcall	.-1284   	; 0x3554 <spi_nand_wait>
    3a58:	3c 01       	movw	r6, r24
    3a5a:	99 23       	and	r25, r25
    3a5c:	0c f0       	brlt	.+2      	; 0x3a60 <spi_nand_read_pages_fast+0x120>
    3a5e:	09 c1       	rjmp	.+530    	; 0x3c72 <spi_nand_read_pages_fast+0x332>
    3a60:	5f 92       	push	r5
    3a62:	4f 92       	push	r4
    3a64:	7f 92       	push	r7
    3a66:	8f 93       	push	r24
    3a68:	85 e4       	ldi	r24, 0x45	; 69
    3a6a:	9b e0       	ldi	r25, 0x0B	; 11
    3a6c:	9f 93       	push	r25
    3a6e:	8f 93       	push	r24
    3a70:	0e 94 63 42 	call	0x84c6	; 0x84c6 <printf>
    3a74:	0f 90       	pop	r0
    3a76:	0f 90       	pop	r0
    3a78:	0f 90       	pop	r0
    3a7a:	0f 90       	pop	r0
    3a7c:	0f 90       	pop	r0
    3a7e:	0f 90       	pop	r0
    3a80:	06 c2       	rjmp	.+1036   	; 0x3e8e <spi_nand_read_pages_fast+0x54e>
    3a82:	d1 01       	movw	r26, r2
    3a84:	90 96       	adiw	r26, 0x20	; 32
    3a86:	8c 91       	ld	r24, X
    3a88:	90 97       	sbiw	r26, 0x20	; 32
    3a8a:	81 ff       	sbrs	r24, 1
    3a8c:	18 c0       	rjmp	.+48     	; 0x3abe <spi_nand_read_pages_fast+0x17e>
    3a8e:	5b 96       	adiw	r26, 0x1b	; 27
    3a90:	2c 91       	ld	r18, X
    3a92:	5b 97       	sbiw	r26, 0x1b	; 27
    3a94:	5d 96       	adiw	r26, 0x1d	; 29
    3a96:	8c 91       	ld	r24, X
    3a98:	30 e0       	ldi	r19, 0x00	; 0
    3a9a:	28 1b       	sub	r18, r24
    3a9c:	31 09       	sbc	r19, r1
    3a9e:	81 e0       	ldi	r24, 0x01	; 1
    3aa0:	90 e0       	ldi	r25, 0x00	; 0
    3aa2:	02 c0       	rjmp	.+4      	; 0x3aa8 <spi_nand_read_pages_fast+0x168>
    3aa4:	88 0f       	add	r24, r24
    3aa6:	99 1f       	adc	r25, r25
    3aa8:	2a 95       	dec	r18
    3aaa:	e2 f7       	brpl	.-8      	; 0x3aa4 <spi_nand_read_pages_fast+0x164>
    3aac:	01 97       	sbiw	r24, 0x01	; 1
    3aae:	92 01       	movw	r18, r4
    3ab0:	2f 5f       	subi	r18, 0xFF	; 255
    3ab2:	3f 4f       	sbci	r19, 0xFF	; 255
    3ab4:	82 23       	and	r24, r18
    3ab6:	93 23       	and	r25, r19
    3ab8:	89 2b       	or	r24, r25
    3aba:	09 f4       	brne	.+2      	; 0x3abe <spi_nand_read_pages_fast+0x17e>
    3abc:	e9 c0       	rjmp	.+466    	; 0x3c90 <spi_nand_read_pages_fast+0x350>
    3abe:	f2 01       	movw	r30, r4
    3ac0:	31 96       	adiw	r30, 0x01	; 1
    3ac2:	f9 87       	std	Y+9, r31	; 0x09
    3ac4:	e8 87       	std	Y+8, r30	; 0x08
    3ac6:	af 01       	movw	r20, r30
    3ac8:	ff 0f       	add	r31, r31
    3aca:	66 0b       	sbc	r22, r22
    3acc:	77 0b       	sbc	r23, r23
    3ace:	c1 01       	movw	r24, r2
    3ad0:	3a da       	rcall	.-2956   	; 0x2f46 <spi_nand_read_page_cache_random>
    3ad2:	be 01       	movw	r22, r28
    3ad4:	6d 5f       	subi	r22, 0xFD	; 253
    3ad6:	7f 4f       	sbci	r23, 0xFF	; 255
    3ad8:	c1 01       	movw	r24, r2
    3ada:	3c dd       	rcall	.-1416   	; 0x3554 <spi_nand_wait>
    3adc:	3c 01       	movw	r6, r24
    3ade:	99 23       	and	r25, r25
    3ae0:	9c f4       	brge	.+38     	; 0x3b08 <spi_nand_read_pages_fast+0x1c8>
    3ae2:	f9 85       	ldd	r31, Y+9	; 0x09
    3ae4:	ff 93       	push	r31
    3ae6:	28 85       	ldd	r18, Y+8	; 0x08
    3ae8:	2f 93       	push	r18
    3aea:	7f 92       	push	r7
    3aec:	8f 93       	push	r24
    3aee:	81 ed       	ldi	r24, 0xD1	; 209
    3af0:	9b e0       	ldi	r25, 0x0B	; 11
    3af2:	9f 93       	push	r25
    3af4:	8f 93       	push	r24
    3af6:	0e 94 63 42 	call	0x84c6	; 0x84c6 <printf>
    3afa:	0f 90       	pop	r0
    3afc:	0f 90       	pop	r0
    3afe:	0f 90       	pop	r0
    3b00:	0f 90       	pop	r0
    3b02:	0f 90       	pop	r0
    3b04:	0f 90       	pop	r0
    3b06:	c3 c1       	rjmp	.+902    	; 0x3e8e <spi_nand_read_pages_fast+0x54e>
    3b08:	4e 89       	ldd	r20, Y+22	; 0x16
    3b0a:	5f 89       	ldd	r21, Y+23	; 0x17
    3b0c:	42 30       	cpi	r20, 0x02	; 2
    3b0e:	51 05       	cpc	r21, r1
    3b10:	f1 f0       	breq	.+60     	; 0x3b4e <spi_nand_read_pages_fast+0x20e>
    3b12:	8b 81       	ldd	r24, Y+3	; 0x03
    3b14:	ae 01       	movw	r20, r28
    3b16:	4c 5f       	subi	r20, 0xFC	; 252
    3b18:	5f 4f       	sbci	r21, 0xFF	; 255
    3b1a:	be 01       	movw	r22, r28
    3b1c:	6f 5f       	subi	r22, 0xFF	; 255
    3b1e:	7f 4f       	sbci	r23, 0xFF	; 255
    3b20:	90 e0       	ldi	r25, 0x00	; 0
    3b22:	1b d8       	rcall	.-4042   	; 0x2b5a <spi_nand_ecc_status>
    3b24:	8c 81       	ldd	r24, Y+4	; 0x04
    3b26:	9d 81       	ldd	r25, Y+5	; 0x05
    3b28:	89 2b       	or	r24, r25
    3b2a:	89 f0       	breq	.+34     	; 0x3b4e <spi_nand_read_pages_fast+0x20e>
    3b2c:	5f 92       	push	r5
    3b2e:	4f 92       	push	r4
    3b30:	8a e6       	ldi	r24, 0x6A	; 106
    3b32:	9b e0       	ldi	r25, 0x0B	; 11
    3b34:	9f 93       	push	r25
    3b36:	8f 93       	push	r24
    3b38:	0e 94 63 42 	call	0x84c6	; 0x84c6 <printf>
    3b3c:	88 8d       	ldd	r24, Y+24	; 0x18
    3b3e:	99 8d       	ldd	r25, Y+25	; 0x19
    3b40:	01 96       	adiw	r24, 0x01	; 1
    3b42:	99 8f       	std	Y+25, r25	; 0x19
    3b44:	88 8f       	std	Y+24, r24	; 0x18
    3b46:	0f 90       	pop	r0
    3b48:	0f 90       	pop	r0
    3b4a:	0f 90       	pop	r0
    3b4c:	0f 90       	pop	r0
    3b4e:	89 81       	ldd	r24, Y+1	; 0x01
    3b50:	9a 81       	ldd	r25, Y+2	; 0x02
    3b52:	aa 89       	ldd	r26, Y+18	; 0x12
    3b54:	bb 89       	ldd	r27, Y+19	; 0x13
    3b56:	a8 17       	cp	r26, r24
    3b58:	b9 07       	cpc	r27, r25
    3b5a:	10 f4       	brcc	.+4      	; 0x3b60 <spi_nand_read_pages_fast+0x220>
    3b5c:	9b 8b       	std	Y+19, r25	; 0x13
    3b5e:	8a 8b       	std	Y+18, r24	; 0x12
    3b60:	f1 01       	movw	r30, r2
    3b62:	87 89       	ldd	r24, Z+23	; 0x17
    3b64:	90 8d       	ldd	r25, Z+24	; 0x18
    3b66:	8e 19       	sub	r24, r14
    3b68:	9f 09       	sbc	r25, r15
    3b6a:	54 01       	movw	r10, r8
    3b6c:	88 15       	cp	r24, r8
    3b6e:	99 05       	cpc	r25, r9
    3b70:	08 f4       	brcc	.+2      	; 0x3b74 <spi_nand_read_pages_fast+0x234>
    3b72:	5c 01       	movw	r10, r24
    3b74:	ae 81       	ldd	r26, Y+6	; 0x06
    3b76:	bf 81       	ldd	r27, Y+7	; 0x07
    3b78:	1e 96       	adiw	r26, 0x0e	; 14
    3b7a:	cd 90       	ld	r12, X+
    3b7c:	dc 90       	ld	r13, X
    3b7e:	1f 97       	sbiw	r26, 0x0f	; 15
    3b80:	14 96       	adiw	r26, 0x04	; 4
    3b82:	8d 91       	ld	r24, X+
    3b84:	9c 91       	ld	r25, X
    3b86:	15 97       	sbiw	r26, 0x05	; 5
    3b88:	05 2c       	mov	r0, r5
    3b8a:	00 0c       	add	r0, r0
    3b8c:	66 08       	sbc	r6, r6
    3b8e:	77 08       	sbc	r7, r7
    3b90:	c8 0e       	add	r12, r24
    3b92:	d9 1e       	adc	r13, r25
    3b94:	87 01       	movw	r16, r14
    3b96:	ff 0c       	add	r15, r15
    3b98:	22 0b       	sbc	r18, r18
    3b9a:	33 0b       	sbc	r19, r19
    3b9c:	75 01       	movw	r14, r10
    3b9e:	b3 01       	movw	r22, r6
    3ba0:	a2 01       	movw	r20, r4
    3ba2:	c1 01       	movw	r24, r2
    3ba4:	13 da       	rcall	.-3034   	; 0x2fcc <spi_nand_read_from_cache>
    3ba6:	ee 81       	ldd	r30, Y+6	; 0x06
    3ba8:	ff 81       	ldd	r31, Y+7	; 0x07
    3baa:	84 81       	ldd	r24, Z+4	; 0x04
    3bac:	95 81       	ldd	r25, Z+5	; 0x05
    3bae:	8a 0d       	add	r24, r10
    3bb0:	9b 1d       	adc	r25, r11
    3bb2:	95 83       	std	Z+5, r25	; 0x05
    3bb4:	84 83       	std	Z+4, r24	; 0x04
    3bb6:	8a 18       	sub	r8, r10
    3bb8:	9b 08       	sbc	r9, r11
    3bba:	80 89       	ldd	r24, Z+16	; 0x10
    3bbc:	91 89       	ldd	r25, Z+17	; 0x11
    3bbe:	89 2b       	or	r24, r25
    3bc0:	c9 f1       	breq	.+114    	; 0x3c34 <spi_nand_read_pages_fast+0x2f4>
    3bc2:	a8 88       	ldd	r10, Y+16	; 0x10
    3bc4:	b9 88       	ldd	r11, Y+17	; 0x11
    3bc6:	2c 89       	ldd	r18, Y+20	; 0x14
    3bc8:	3d 89       	ldd	r19, Y+21	; 0x15
    3bca:	2a 15       	cp	r18, r10
    3bcc:	3b 05       	cpc	r19, r11
    3bce:	0c f4       	brge	.+2      	; 0x3bd2 <spi_nand_read_pages_fast+0x292>
    3bd0:	59 01       	movw	r10, r18
    3bd2:	d1 01       	movw	r26, r2
    3bd4:	59 96       	adiw	r26, 0x19	; 25
    3bd6:	ed 90       	ld	r14, X+
    3bd8:	fc 90       	ld	r15, X
    3bda:	5a 97       	sbiw	r26, 0x1a	; 26
    3bdc:	57 96       	adiw	r26, 0x17	; 23
    3bde:	0d 91       	ld	r16, X+
    3be0:	1c 91       	ld	r17, X
    3be2:	58 97       	sbiw	r26, 0x18	; 24
    3be4:	19 96       	adiw	r26, 0x09	; 9
    3be6:	cd 90       	ld	r12, X+
    3be8:	dc 90       	ld	r13, X
    3bea:	1a 97       	sbiw	r26, 0x0a	; 10
    3bec:	20 e0       	ldi	r18, 0x00	; 0
    3bee:	30 e0       	ldi	r19, 0x00	; 0
    3bf0:	b3 01       	movw	r22, r6
    3bf2:	a2 01       	movw	r20, r4
    3bf4:	c1 01       	movw	r24, r2
    3bf6:	ea d9       	rcall	.-3116   	; 0x2fcc <spi_nand_read_from_cache>
    3bf8:	ee 81       	ldd	r30, Y+6	; 0x06
    3bfa:	ff 81       	ldd	r31, Y+7	; 0x07
    3bfc:	60 89       	ldd	r22, Z+16	; 0x10
    3bfe:	71 89       	ldd	r23, Z+17	; 0x11
    3c00:	80 85       	ldd	r24, Z+8	; 0x08
    3c02:	91 85       	ldd	r25, Z+9	; 0x09
    3c04:	68 0f       	add	r22, r24
    3c06:	79 1f       	adc	r23, r25
    3c08:	95 01       	movw	r18, r10
    3c0a:	af 01       	movw	r20, r30
    3c0c:	c1 01       	movw	r24, r2
    3c0e:	fd dd       	rcall	.-1030   	; 0x380a <spi_nand_transfer_oob>
    3c10:	ae 81       	ldd	r26, Y+6	; 0x06
    3c12:	bf 81       	ldd	r27, Y+7	; 0x07
    3c14:	18 96       	adiw	r26, 0x08	; 8
    3c16:	8d 91       	ld	r24, X+
    3c18:	9c 91       	ld	r25, X
    3c1a:	19 97       	sbiw	r26, 0x09	; 9
    3c1c:	8a 0d       	add	r24, r10
    3c1e:	9b 1d       	adc	r25, r11
    3c20:	19 96       	adiw	r26, 0x09	; 9
    3c22:	9c 93       	st	X, r25
    3c24:	8e 93       	st	-X, r24
    3c26:	18 97       	sbiw	r26, 0x08	; 8
    3c28:	e8 89       	ldd	r30, Y+16	; 0x10
    3c2a:	f9 89       	ldd	r31, Y+17	; 0x11
    3c2c:	ea 19       	sub	r30, r10
    3c2e:	fb 09       	sbc	r31, r11
    3c30:	f9 8b       	std	Y+17, r31	; 0x11
    3c32:	e8 8b       	std	Y+16, r30	; 0x10
    3c34:	c1 01       	movw	r24, r2
    3c36:	45 dc       	rcall	.-1910   	; 0x34c2 <spi_nand_wait_crbusy>
    3c38:	3c 01       	movw	r6, r24
    3c3a:	e1 2c       	mov	r14, r1
    3c3c:	f1 2c       	mov	r15, r1
    3c3e:	aa 24       	eor	r10, r10
    3c40:	a3 94       	inc	r10
    3c42:	b1 2c       	mov	r11, r1
    3c44:	99 23       	and	r25, r25
    3c46:	9c f4       	brge	.+38     	; 0x3c6e <spi_nand_read_pages_fast+0x32e>
    3c48:	f9 85       	ldd	r31, Y+9	; 0x09
    3c4a:	ff 93       	push	r31
    3c4c:	28 85       	ldd	r18, Y+8	; 0x08
    3c4e:	2f 93       	push	r18
    3c50:	7f 92       	push	r7
    3c52:	8f 93       	push	r24
    3c54:	85 e4       	ldi	r24, 0x45	; 69
    3c56:	9b e0       	ldi	r25, 0x0B	; 11
    3c58:	9f 93       	push	r25
    3c5a:	8f 93       	push	r24
    3c5c:	0e 94 63 42 	call	0x84c6	; 0x84c6 <printf>
    3c60:	0f 90       	pop	r0
    3c62:	0f 90       	pop	r0
    3c64:	0f 90       	pop	r0
    3c66:	0f 90       	pop	r0
    3c68:	0f 90       	pop	r0
    3c6a:	0f 90       	pop	r0
    3c6c:	10 c1       	rjmp	.+544    	; 0x3e8e <spi_nand_read_pages_fast+0x54e>
    3c6e:	48 84       	ldd	r4, Y+8	; 0x08
    3c70:	59 84       	ldd	r5, Y+9	; 0x09
    3c72:	d1 01       	movw	r26, r2
    3c74:	57 96       	adiw	r26, 0x17	; 23
    3c76:	2d 91       	ld	r18, X+
    3c78:	3c 91       	ld	r19, X
    3c7a:	58 97       	sbiw	r26, 0x18	; 24
    3c7c:	c7 01       	movw	r24, r14
    3c7e:	88 0d       	add	r24, r8
    3c80:	99 1d       	adc	r25, r9
    3c82:	28 17       	cp	r18, r24
    3c84:	39 07       	cpc	r19, r25
    3c86:	08 f4       	brcc	.+2      	; 0x3c8a <spi_nand_read_pages_fast+0x34a>
    3c88:	fc ce       	rjmp	.-520    	; 0x3a82 <spi_nand_read_pages_fast+0x142>
    3c8a:	19 a2       	std	Y+33, r1	; 0x21
    3c8c:	18 a2       	std	Y+32, r1	; 0x20
    3c8e:	04 c0       	rjmp	.+8      	; 0x3c98 <spi_nand_read_pages_fast+0x358>
    3c90:	e1 e0       	ldi	r30, 0x01	; 1
    3c92:	f0 e0       	ldi	r31, 0x00	; 0
    3c94:	f9 a3       	std	Y+33, r31	; 0x21
    3c96:	e8 a3       	std	Y+32, r30	; 0x20
    3c98:	a1 14       	cp	r10, r1
    3c9a:	b1 04       	cpc	r11, r1
    3c9c:	e9 f0       	breq	.+58     	; 0x3cd8 <spi_nand_read_pages_fast+0x398>
    3c9e:	c1 01       	movw	r24, r2
    3ca0:	76 d9       	rcall	.-3348   	; 0x2f8e <spi_nand_read_page_cache_last>
    3ca2:	be 01       	movw	r22, r28
    3ca4:	6d 5f       	subi	r22, 0xFD	; 253
    3ca6:	7f 4f       	sbci	r23, 0xFF	; 255
    3ca8:	c1 01       	movw	r24, r2
    3caa:	54 dc       	rcall	.-1880   	; 0x3554 <spi_nand_wait>
    3cac:	3c 01       	movw	r6, r24
    3cae:	99 23       	and	r25, r25
    3cb0:	8c f4       	brge	.+34     	; 0x3cd4 <spi_nand_read_pages_fast+0x394>
    3cb2:	5f 92       	push	r5
    3cb4:	4f 92       	push	r4
    3cb6:	7f 92       	push	r7
    3cb8:	8f 93       	push	r24
    3cba:	85 e4       	ldi	r24, 0x45	; 69
    3cbc:	9b e0       	ldi	r25, 0x0B	; 11
    3cbe:	9f 93       	push	r25
    3cc0:	8f 93       	push	r24
    3cc2:	0e 94 63 42 	call	0x84c6	; 0x84c6 <printf>
    3cc6:	0f 90       	pop	r0
    3cc8:	0f 90       	pop	r0
    3cca:	0f 90       	pop	r0
    3ccc:	0f 90       	pop	r0
    3cce:	0f 90       	pop	r0
    3cd0:	0f 90       	pop	r0
    3cd2:	dd c0       	rjmp	.+442    	; 0x3e8e <spi_nand_read_pages_fast+0x54e>
    3cd4:	a1 2c       	mov	r10, r1
    3cd6:	b1 2c       	mov	r11, r1
    3cd8:	2e 89       	ldd	r18, Y+22	; 0x16
    3cda:	3f 89       	ldd	r19, Y+23	; 0x17
    3cdc:	22 30       	cpi	r18, 0x02	; 2
    3cde:	31 05       	cpc	r19, r1
    3ce0:	01 f1       	breq	.+64     	; 0x3d22 <spi_nand_read_pages_fast+0x3e2>
    3ce2:	8b 81       	ldd	r24, Y+3	; 0x03
    3ce4:	ae 01       	movw	r20, r28
    3ce6:	4c 5f       	subi	r20, 0xFC	; 252
    3ce8:	5f 4f       	sbci	r21, 0xFF	; 255
    3cea:	be 01       	movw	r22, r28
    3cec:	6f 5f       	subi	r22, 0xFF	; 255
    3cee:	7f 4f       	sbci	r23, 0xFF	; 255
    3cf0:	90 e0       	ldi	r25, 0x00	; 0
    3cf2:	0e 94 ad 15 	call	0x2b5a	; 0x2b5a <spi_nand_ecc_status>
    3cf6:	8c 81       	ldd	r24, Y+4	; 0x04
    3cf8:	9d 81       	ldd	r25, Y+5	; 0x05
    3cfa:	89 2b       	or	r24, r25
    3cfc:	91 f0       	breq	.+36     	; 0x3d22 <spi_nand_read_pages_fast+0x3e2>
    3cfe:	5f 92       	push	r5
    3d00:	4f 92       	push	r4
    3d02:	8a e6       	ldi	r24, 0x6A	; 106
    3d04:	9b e0       	ldi	r25, 0x0B	; 11
    3d06:	9f 93       	push	r25
    3d08:	8f 93       	push	r24
    3d0a:	0e 94 63 42 	call	0x84c6	; 0x84c6 <printf>
    3d0e:	48 8d       	ldd	r20, Y+24	; 0x18
    3d10:	59 8d       	ldd	r21, Y+25	; 0x19
    3d12:	4f 5f       	subi	r20, 0xFF	; 255
    3d14:	5f 4f       	sbci	r21, 0xFF	; 255
    3d16:	59 8f       	std	Y+25, r21	; 0x19
    3d18:	48 8f       	std	Y+24, r20	; 0x18
    3d1a:	0f 90       	pop	r0
    3d1c:	0f 90       	pop	r0
    3d1e:	0f 90       	pop	r0
    3d20:	0f 90       	pop	r0
    3d22:	89 81       	ldd	r24, Y+1	; 0x01
    3d24:	9a 81       	ldd	r25, Y+2	; 0x02
    3d26:	aa 89       	ldd	r26, Y+18	; 0x12
    3d28:	bb 89       	ldd	r27, Y+19	; 0x13
    3d2a:	a8 17       	cp	r26, r24
    3d2c:	b9 07       	cpc	r27, r25
    3d2e:	10 f4       	brcc	.+4      	; 0x3d34 <spi_nand_read_pages_fast+0x3f4>
    3d30:	9b 8b       	std	Y+19, r25	; 0x13
    3d32:	8a 8b       	std	Y+18, r24	; 0x12
    3d34:	f1 01       	movw	r30, r2
    3d36:	87 89       	ldd	r24, Z+23	; 0x17
    3d38:	90 8d       	ldd	r25, Z+24	; 0x18
    3d3a:	8e 19       	sub	r24, r14
    3d3c:	9f 09       	sbc	r25, r15
    3d3e:	99 86       	std	Y+9, r9	; 0x09
    3d40:	88 86       	std	Y+8, r8	; 0x08
    3d42:	88 15       	cp	r24, r8
    3d44:	99 05       	cpc	r25, r9
    3d46:	10 f4       	brcc	.+4      	; 0x3d4c <spi_nand_read_pages_fast+0x40c>
    3d48:	99 87       	std	Y+9, r25	; 0x09
    3d4a:	88 87       	std	Y+8, r24	; 0x08
    3d4c:	ae 81       	ldd	r26, Y+6	; 0x06
    3d4e:	bf 81       	ldd	r27, Y+7	; 0x07
    3d50:	1e 96       	adiw	r26, 0x0e	; 14
    3d52:	cd 90       	ld	r12, X+
    3d54:	dc 90       	ld	r13, X
    3d56:	1f 97       	sbiw	r26, 0x0f	; 15
    3d58:	14 96       	adiw	r26, 0x04	; 4
    3d5a:	8d 91       	ld	r24, X+
    3d5c:	9c 91       	ld	r25, X
    3d5e:	15 97       	sbiw	r26, 0x05	; 5
    3d60:	92 01       	movw	r18, r4
    3d62:	05 2c       	mov	r0, r5
    3d64:	00 0c       	add	r0, r0
    3d66:	44 0b       	sbc	r20, r20
    3d68:	55 0b       	sbc	r21, r21
    3d6a:	2c 8f       	std	Y+28, r18	; 0x1c
    3d6c:	3d 8f       	std	Y+29, r19	; 0x1d
    3d6e:	4e 8f       	std	Y+30, r20	; 0x1e
    3d70:	5f 8f       	std	Y+31, r21	; 0x1f
    3d72:	c8 0e       	add	r12, r24
    3d74:	d9 1e       	adc	r13, r25
    3d76:	87 01       	movw	r16, r14
    3d78:	ff 0c       	add	r15, r15
    3d7a:	22 0b       	sbc	r18, r18
    3d7c:	33 0b       	sbc	r19, r19
    3d7e:	e8 84       	ldd	r14, Y+8	; 0x08
    3d80:	f9 84       	ldd	r15, Y+9	; 0x09
    3d82:	4c 8d       	ldd	r20, Y+28	; 0x1c
    3d84:	5d 8d       	ldd	r21, Y+29	; 0x1d
    3d86:	6e 8d       	ldd	r22, Y+30	; 0x1e
    3d88:	7f 8d       	ldd	r23, Y+31	; 0x1f
    3d8a:	c1 01       	movw	r24, r2
    3d8c:	1f d9       	rcall	.-3522   	; 0x2fcc <spi_nand_read_from_cache>
    3d8e:	ae 81       	ldd	r26, Y+6	; 0x06
    3d90:	bf 81       	ldd	r27, Y+7	; 0x07
    3d92:	14 96       	adiw	r26, 0x04	; 4
    3d94:	8d 91       	ld	r24, X+
    3d96:	9c 91       	ld	r25, X
    3d98:	15 97       	sbiw	r26, 0x05	; 5
    3d9a:	e8 84       	ldd	r14, Y+8	; 0x08
    3d9c:	f9 84       	ldd	r15, Y+9	; 0x09
    3d9e:	8e 0d       	add	r24, r14
    3da0:	9f 1d       	adc	r25, r15
    3da2:	15 96       	adiw	r26, 0x05	; 5
    3da4:	9c 93       	st	X, r25
    3da6:	8e 93       	st	-X, r24
    3da8:	14 97       	sbiw	r26, 0x04	; 4
    3daa:	8e 18       	sub	r8, r14
    3dac:	9f 08       	sbc	r9, r15
    3dae:	50 96       	adiw	r26, 0x10	; 16
    3db0:	8d 91       	ld	r24, X+
    3db2:	9c 91       	ld	r25, X
    3db4:	51 97       	sbiw	r26, 0x11	; 17
    3db6:	89 2b       	or	r24, r25
    3db8:	09 f4       	brne	.+2      	; 0x3dbc <spi_nand_read_pages_fast+0x47c>
    3dba:	41 c0       	rjmp	.+130    	; 0x3e3e <spi_nand_read_pages_fast+0x4fe>
    3dbc:	28 89       	ldd	r18, Y+16	; 0x10
    3dbe:	39 89       	ldd	r19, Y+17	; 0x11
    3dc0:	39 87       	std	Y+9, r19	; 0x09
    3dc2:	28 87       	std	Y+8, r18	; 0x08
    3dc4:	4c 89       	ldd	r20, Y+20	; 0x14
    3dc6:	5d 89       	ldd	r21, Y+21	; 0x15
    3dc8:	42 17       	cp	r20, r18
    3dca:	53 07       	cpc	r21, r19
    3dcc:	14 f4       	brge	.+4      	; 0x3dd2 <spi_nand_read_pages_fast+0x492>
    3dce:	59 87       	std	Y+9, r21	; 0x09
    3dd0:	48 87       	std	Y+8, r20	; 0x08
    3dd2:	d1 01       	movw	r26, r2
    3dd4:	59 96       	adiw	r26, 0x19	; 25
    3dd6:	ed 90       	ld	r14, X+
    3dd8:	fc 90       	ld	r15, X
    3dda:	5a 97       	sbiw	r26, 0x1a	; 26
    3ddc:	57 96       	adiw	r26, 0x17	; 23
    3dde:	0d 91       	ld	r16, X+
    3de0:	1c 91       	ld	r17, X
    3de2:	58 97       	sbiw	r26, 0x18	; 24
    3de4:	19 96       	adiw	r26, 0x09	; 9
    3de6:	cd 90       	ld	r12, X+
    3de8:	dc 90       	ld	r13, X
    3dea:	1a 97       	sbiw	r26, 0x0a	; 10
    3dec:	20 e0       	ldi	r18, 0x00	; 0
    3dee:	30 e0       	ldi	r19, 0x00	; 0
    3df0:	4c 8d       	ldd	r20, Y+28	; 0x1c
    3df2:	5d 8d       	ldd	r21, Y+29	; 0x1d
    3df4:	6e 8d       	ldd	r22, Y+30	; 0x1e
    3df6:	7f 8d       	ldd	r23, Y+31	; 0x1f
    3df8:	c1 01       	movw	r24, r2
    3dfa:	e8 d8       	rcall	.-3632   	; 0x2fcc <spi_nand_read_from_cache>
    3dfc:	ee 81       	ldd	r30, Y+6	; 0x06
    3dfe:	ff 81       	ldd	r31, Y+7	; 0x07
    3e00:	60 89       	ldd	r22, Z+16	; 0x10
    3e02:	71 89       	ldd	r23, Z+17	; 0x11
    3e04:	80 85       	ldd	r24, Z+8	; 0x08
    3e06:	91 85       	ldd	r25, Z+9	; 0x09
    3e08:	68 0f       	add	r22, r24
    3e0a:	79 1f       	adc	r23, r25
    3e0c:	28 85       	ldd	r18, Y+8	; 0x08
    3e0e:	39 85       	ldd	r19, Y+9	; 0x09
    3e10:	af 01       	movw	r20, r30
    3e12:	c1 01       	movw	r24, r2
    3e14:	fa dc       	rcall	.-1548   	; 0x380a <spi_nand_transfer_oob>
    3e16:	ae 81       	ldd	r26, Y+6	; 0x06
    3e18:	bf 81       	ldd	r27, Y+7	; 0x07
    3e1a:	18 96       	adiw	r26, 0x08	; 8
    3e1c:	8d 91       	ld	r24, X+
    3e1e:	9c 91       	ld	r25, X
    3e20:	19 97       	sbiw	r26, 0x09	; 9
    3e22:	e8 85       	ldd	r30, Y+8	; 0x08
    3e24:	f9 85       	ldd	r31, Y+9	; 0x09
    3e26:	8e 0f       	add	r24, r30
    3e28:	9f 1f       	adc	r25, r31
    3e2a:	19 96       	adiw	r26, 0x09	; 9
    3e2c:	9c 93       	st	X, r25
    3e2e:	8e 93       	st	-X, r24
    3e30:	18 97       	sbiw	r26, 0x08	; 8
    3e32:	28 89       	ldd	r18, Y+16	; 0x10
    3e34:	39 89       	ldd	r19, Y+17	; 0x11
    3e36:	2e 1b       	sub	r18, r30
    3e38:	3f 0b       	sbc	r19, r31
    3e3a:	39 8b       	std	Y+17, r19	; 0x11
    3e3c:	28 8b       	std	Y+16, r18	; 0x10
    3e3e:	48 a1       	ldd	r20, Y+32	; 0x20
    3e40:	59 a1       	ldd	r21, Y+33	; 0x21
    3e42:	45 2b       	or	r20, r21
    3e44:	59 f0       	breq	.+22     	; 0x3e5c <spi_nand_read_pages_fast+0x51c>
    3e46:	5f ef       	ldi	r21, 0xFF	; 255
    3e48:	45 1a       	sub	r4, r21
    3e4a:	55 0a       	sbc	r5, r21
    3e4c:	8a 8d       	ldd	r24, Y+26	; 0x1a
    3e4e:	9b 8d       	ldd	r25, Y+27	; 0x1b
    3e50:	01 96       	adiw	r24, 0x01	; 1
    3e52:	9b 8f       	std	Y+27, r25	; 0x1b
    3e54:	8a 8f       	std	Y+26, r24	; 0x1a
    3e56:	e1 2c       	mov	r14, r1
    3e58:	f1 2c       	mov	r15, r1
    3e5a:	eb cd       	rjmp	.-1066   	; 0x3a32 <spi_nand_read_pages_fast+0xf2>
    3e5c:	d1 01       	movw	r26, r2
    3e5e:	98 96       	adiw	r26, 0x28	; 40
    3e60:	8c 91       	ld	r24, X
    3e62:	90 e0       	ldi	r25, 0x00	; 0
    3e64:	ea 89       	ldd	r30, Y+18	; 0x12
    3e66:	fb 89       	ldd	r31, Y+19	; 0x13
    3e68:	e8 17       	cp	r30, r24
    3e6a:	f9 07       	cpc	r31, r25
    3e6c:	30 f0       	brcs	.+12     	; 0x3e7a <spi_nand_read_pages_fast+0x53a>
    3e6e:	0f 2e       	mov	r0, r31
    3e70:	fb e8       	ldi	r31, 0x8B	; 139
    3e72:	6f 2e       	mov	r6, r31
    3e74:	77 24       	eor	r7, r7
    3e76:	7a 94       	dec	r7
    3e78:	f0 2d       	mov	r31, r0
    3e7a:	28 8d       	ldd	r18, Y+24	; 0x18
    3e7c:	39 8d       	ldd	r19, Y+25	; 0x19
    3e7e:	23 2b       	or	r18, r19
    3e80:	31 f0       	breq	.+12     	; 0x3e8e <spi_nand_read_pages_fast+0x54e>
    3e82:	0f 2e       	mov	r0, r31
    3e84:	f6 eb       	ldi	r31, 0xB6	; 182
    3e86:	6f 2e       	mov	r6, r31
    3e88:	77 24       	eor	r7, r7
    3e8a:	7a 94       	dec	r7
    3e8c:	f0 2d       	mov	r31, r0
    3e8e:	c3 01       	movw	r24, r6
    3e90:	a1 96       	adiw	r28, 0x21	; 33
    3e92:	0f b6       	in	r0, 0x3f	; 63
    3e94:	f8 94       	cli
    3e96:	de bf       	out	0x3e, r29	; 62
    3e98:	0f be       	out	0x3f, r0	; 63
    3e9a:	cd bf       	out	0x3d, r28	; 61
    3e9c:	df 91       	pop	r29
    3e9e:	cf 91       	pop	r28
    3ea0:	1f 91       	pop	r17
    3ea2:	0f 91       	pop	r16
    3ea4:	ff 90       	pop	r15
    3ea6:	ef 90       	pop	r14
    3ea8:	df 90       	pop	r13
    3eaa:	cf 90       	pop	r12
    3eac:	bf 90       	pop	r11
    3eae:	af 90       	pop	r10
    3eb0:	9f 90       	pop	r9
    3eb2:	8f 90       	pop	r8
    3eb4:	7f 90       	pop	r7
    3eb6:	6f 90       	pop	r6
    3eb8:	5f 90       	pop	r5
    3eba:	4f 90       	pop	r4
    3ebc:	3f 90       	pop	r3
    3ebe:	2f 90       	pop	r2
    3ec0:	08 95       	ret

00003ec2 <spi_nand_read_pages>:
    3ec2:	2f 92       	push	r2
    3ec4:	3f 92       	push	r3
    3ec6:	4f 92       	push	r4
    3ec8:	5f 92       	push	r5
    3eca:	6f 92       	push	r6
    3ecc:	7f 92       	push	r7
    3ece:	8f 92       	push	r8
    3ed0:	9f 92       	push	r9
    3ed2:	af 92       	push	r10
    3ed4:	bf 92       	push	r11
    3ed6:	cf 92       	push	r12
    3ed8:	df 92       	push	r13
    3eda:	ef 92       	push	r14
    3edc:	ff 92       	push	r15
    3ede:	0f 93       	push	r16
    3ee0:	1f 93       	push	r17
    3ee2:	cf 93       	push	r28
    3ee4:	df 93       	push	r29
    3ee6:	cd b7       	in	r28, 0x3d	; 61
    3ee8:	de b7       	in	r29, 0x3e	; 62
    3eea:	6e 97       	sbiw	r28, 0x1e	; 30
    3eec:	0f b6       	in	r0, 0x3f	; 63
    3eee:	f8 94       	cli
    3ef0:	de bf       	out	0x3e, r29	; 62
    3ef2:	0f be       	out	0x3f, r0	; 63
    3ef4:	cd bf       	out	0x3d, r28	; 61
    3ef6:	9c 83       	std	Y+4, r25	; 0x04
    3ef8:	8b 83       	std	Y+3, r24	; 0x03
    3efa:	0d 83       	std	Y+5, r16	; 0x05
    3efc:	1e 83       	std	Y+6, r17	; 0x06
    3efe:	2f 83       	std	Y+7, r18	; 0x07
    3f00:	38 87       	std	Y+8, r19	; 0x08
    3f02:	49 87       	std	Y+9, r20	; 0x09
    3f04:	5a 87       	std	Y+10, r21	; 0x0a
    3f06:	6b 87       	std	Y+11, r22	; 0x0b
    3f08:	7c 87       	std	Y+12, r23	; 0x0c
    3f0a:	27 01       	movw	r4, r14
    3f0c:	1a 82       	std	Y+2, r1	; 0x02
    3f0e:	19 82       	std	Y+1, r1	; 0x01
    3f10:	d7 01       	movw	r26, r14
    3f12:	12 96       	adiw	r26, 0x02	; 2
    3f14:	2d 90       	ld	r2, X+
    3f16:	3c 90       	ld	r3, X
    3f18:	13 97       	sbiw	r26, 0x03	; 3
    3f1a:	16 96       	adiw	r26, 0x06	; 6
    3f1c:	ed 91       	ld	r30, X+
    3f1e:	fc 91       	ld	r31, X
    3f20:	17 97       	sbiw	r26, 0x07	; 7
    3f22:	fe 87       	std	Y+14, r31	; 0x0e
    3f24:	ed 87       	std	Y+13, r30	; 0x0d
    3f26:	8d 91       	ld	r24, X+
    3f28:	9c 91       	ld	r25, X
    3f2a:	21 e0       	ldi	r18, 0x01	; 1
    3f2c:	82 30       	cpi	r24, 0x02	; 2
    3f2e:	91 05       	cpc	r25, r1
    3f30:	09 f0       	breq	.+2      	; 0x3f34 <spi_nand_read_pages+0x72>
    3f32:	20 e0       	ldi	r18, 0x00	; 0
    3f34:	42 2f       	mov	r20, r18
    3f36:	50 e0       	ldi	r21, 0x00	; 0
    3f38:	5a 8f       	std	Y+26, r21	; 0x1a
    3f3a:	49 8f       	std	Y+25, r20	; 0x19
    3f3c:	01 97       	sbiw	r24, 0x01	; 1
    3f3e:	69 f4       	brne	.+26     	; 0x3f5a <spi_nand_read_pages+0x98>
    3f40:	ab 81       	ldd	r26, Y+3	; 0x03
    3f42:	bc 81       	ldd	r27, Y+4	; 0x04
    3f44:	9a 96       	adiw	r26, 0x2a	; 42
    3f46:	ed 91       	ld	r30, X+
    3f48:	fc 91       	ld	r31, X
    3f4a:	9b 97       	sbiw	r26, 0x2b	; 43
    3f4c:	ec 5f       	subi	r30, 0xFC	; 252
    3f4e:	fe 4f       	sbci	r31, 0xFE	; 254
    3f50:	20 81       	ld	r18, Z
    3f52:	31 81       	ldd	r19, Z+1	; 0x01
    3f54:	38 8f       	std	Y+24, r19	; 0x18
    3f56:	2f 8b       	std	Y+23, r18	; 0x17
    3f58:	08 c0       	rjmp	.+16     	; 0x3f6a <spi_nand_read_pages+0xa8>
    3f5a:	ab 81       	ldd	r26, Y+3	; 0x03
    3f5c:	bc 81       	ldd	r27, Y+4	; 0x04
    3f5e:	59 96       	adiw	r26, 0x19	; 25
    3f60:	0d 90       	ld	r0, X+
    3f62:	bc 91       	ld	r27, X
    3f64:	a0 2d       	mov	r26, r0
    3f66:	b8 8f       	std	Y+24, r27	; 0x18
    3f68:	af 8b       	std	Y+23, r26	; 0x17
    3f6a:	3f 92       	push	r3
    3f6c:	2f 92       	push	r2
    3f6e:	bc 85       	ldd	r27, Y+12	; 0x0c
    3f70:	bf 93       	push	r27
    3f72:	eb 85       	ldd	r30, Y+11	; 0x0b
    3f74:	ef 93       	push	r30
    3f76:	fa 85       	ldd	r31, Y+10	; 0x0a
    3f78:	ff 93       	push	r31
    3f7a:	29 85       	ldd	r18, Y+9	; 0x09
    3f7c:	2f 93       	push	r18
    3f7e:	38 85       	ldd	r19, Y+8	; 0x08
    3f80:	3f 93       	push	r19
    3f82:	4f 81       	ldd	r20, Y+7	; 0x07
    3f84:	4f 93       	push	r20
    3f86:	5e 81       	ldd	r21, Y+6	; 0x06
    3f88:	5f 93       	push	r21
    3f8a:	8d 81       	ldd	r24, Y+5	; 0x05
    3f8c:	8f 93       	push	r24
    3f8e:	88 e8       	ldi	r24, 0x88	; 136
    3f90:	9f e0       	ldi	r25, 0x0F	; 15
    3f92:	9f 93       	push	r25
    3f94:	8f 93       	push	r24
    3f96:	8e ef       	ldi	r24, 0xFE	; 254
    3f98:	9b e0       	ldi	r25, 0x0B	; 11
    3f9a:	9f 93       	push	r25
    3f9c:	8f 93       	push	r24
    3f9e:	0e 94 63 42 	call	0x84c6	; 0x84c6 <printf>
    3fa2:	ab 81       	ldd	r26, Y+3	; 0x03
    3fa4:	bc 81       	ldd	r27, Y+4	; 0x04
    3fa6:	5d 96       	adiw	r26, 0x1d	; 29
    3fa8:	0c 91       	ld	r16, X
    3faa:	5d 97       	sbiw	r26, 0x1d	; 29
    3fac:	2d 81       	ldd	r18, Y+5	; 0x05
    3fae:	3e 81       	ldd	r19, Y+6	; 0x06
    3fb0:	4f 81       	ldd	r20, Y+7	; 0x07
    3fb2:	58 85       	ldd	r21, Y+8	; 0x08
    3fb4:	69 85       	ldd	r22, Y+9	; 0x09
    3fb6:	7a 85       	ldd	r23, Y+10	; 0x0a
    3fb8:	8b 85       	ldd	r24, Y+11	; 0x0b
    3fba:	9c 85       	ldd	r25, Y+12	; 0x0c
    3fbc:	0e 94 90 40 	call	0x8120	; 0x8120 <__ashrdi3>
    3fc0:	62 2e       	mov	r6, r18
    3fc2:	73 2e       	mov	r7, r19
    3fc4:	5e 96       	adiw	r26, 0x1e	; 30
    3fc6:	8d 91       	ld	r24, X+
    3fc8:	9c 91       	ld	r25, X
    3fca:	5f 97       	sbiw	r26, 0x1f	; 31
    3fcc:	ed 80       	ldd	r14, Y+5	; 0x05
    3fce:	fe 80       	ldd	r15, Y+6	; 0x06
    3fd0:	e8 22       	and	r14, r24
    3fd2:	f9 22       	and	r15, r25
    3fd4:	5b 96       	adiw	r26, 0x1b	; 27
    3fd6:	0c 91       	ld	r16, X
    3fd8:	5b 97       	sbiw	r26, 0x1b	; 27
    3fda:	2d 81       	ldd	r18, Y+5	; 0x05
    3fdc:	3e 81       	ldd	r19, Y+6	; 0x06
    3fde:	4f 81       	ldd	r20, Y+7	; 0x07
    3fe0:	58 85       	ldd	r21, Y+8	; 0x08
    3fe2:	69 85       	ldd	r22, Y+9	; 0x09
    3fe4:	7a 85       	ldd	r23, Y+10	; 0x0a
    3fe6:	8b 85       	ldd	r24, Y+11	; 0x0b
    3fe8:	9c 85       	ldd	r25, Y+12	; 0x0c
    3fea:	0e 94 90 40 	call	0x8120	; 0x8120 <__ashrdi3>
    3fee:	2d 8f       	std	Y+29, r18	; 0x1d
    3ff0:	3e 8f       	std	Y+30, r19	; 0x1e
    3ff2:	f2 01       	movw	r30, r4
    3ff4:	15 82       	std	Z+5, r1	; 0x05
    3ff6:	14 82       	std	Z+4, r1	; 0x04
    3ff8:	90 96       	adiw	r26, 0x20	; 32
    3ffa:	8c 91       	ld	r24, X
    3ffc:	90 97       	sbiw	r26, 0x20	; 32
    3ffe:	0f b6       	in	r0, 0x3f	; 63
    4000:	f8 94       	cli
    4002:	de bf       	out	0x3e, r29	; 62
    4004:	0f be       	out	0x3f, r0	; 63
    4006:	cd bf       	out	0x3d, r28	; 61
    4008:	81 ff       	sbrs	r24, 1
    400a:	03 c0       	rjmp	.+6      	; 0x4012 <spi_nand_read_pages+0x150>
    400c:	62 2f       	mov	r22, r18
    400e:	cd 01       	movw	r24, r26
    4010:	6f d9       	rcall	.-3362   	; 0x32f0 <spi_nand_lun_select>
    4012:	1c 8e       	std	Y+28, r1	; 0x1c
    4014:	1b 8e       	std	Y+27, r1	; 0x1b
    4016:	1e 8a       	std	Y+22, r1	; 0x16
    4018:	1d 8a       	std	Y+21, r1	; 0x15
    401a:	02 c0       	rjmp	.+4      	; 0x4020 <spi_nand_read_pages+0x15e>
    401c:	e1 2c       	mov	r14, r1
    401e:	f1 2c       	mov	r15, r1
    4020:	ab 81       	ldd	r26, Y+3	; 0x03
    4022:	bc 81       	ldd	r27, Y+4	; 0x04
    4024:	57 96       	adiw	r26, 0x17	; 23
    4026:	8d 91       	ld	r24, X+
    4028:	9c 91       	ld	r25, X
    402a:	58 97       	sbiw	r26, 0x18	; 24
    402c:	8e 19       	sub	r24, r14
    402e:	9f 09       	sbc	r25, r15
    4030:	3e 82       	std	Y+6, r3	; 0x06
    4032:	2d 82       	std	Y+5, r2	; 0x05
    4034:	82 15       	cp	r24, r2
    4036:	93 05       	cpc	r25, r3
    4038:	10 f4       	brcc	.+4      	; 0x403e <spi_nand_read_pages+0x17c>
    403a:	9e 83       	std	Y+6, r25	; 0x06
    403c:	8d 83       	std	Y+5, r24	; 0x05
    403e:	ed 81       	ldd	r30, Y+5	; 0x05
    4040:	fe 81       	ldd	r31, Y+6	; 0x06
    4042:	fc 8b       	std	Y+20, r31	; 0x14
    4044:	eb 8b       	std	Y+19, r30	; 0x13
    4046:	d2 01       	movw	r26, r4
    4048:	1e 96       	adiw	r26, 0x0e	; 14
    404a:	ad 90       	ld	r10, X+
    404c:	bc 90       	ld	r11, X
    404e:	1f 97       	sbiw	r26, 0x0f	; 15
    4050:	14 96       	adiw	r26, 0x04	; 4
    4052:	8d 91       	ld	r24, X+
    4054:	9c 91       	ld	r25, X
    4056:	15 97       	sbiw	r26, 0x05	; 5
    4058:	a8 0e       	add	r10, r24
    405a:	b9 1e       	adc	r11, r25
    405c:	87 01       	movw	r16, r14
    405e:	ff 0c       	add	r15, r15
    4060:	22 0b       	sbc	r18, r18
    4062:	33 0b       	sbc	r19, r19
    4064:	c3 01       	movw	r24, r6
    4066:	07 2c       	mov	r0, r7
    4068:	00 0c       	add	r0, r0
    406a:	aa 0b       	sbc	r26, r26
    406c:	bb 0b       	sbc	r27, r27
    406e:	8f 87       	std	Y+15, r24	; 0x0f
    4070:	98 8b       	std	Y+16, r25	; 0x10
    4072:	a9 8b       	std	Y+17, r26	; 0x11
    4074:	ba 8b       	std	Y+18, r27	; 0x12
    4076:	4f 01       	movw	r8, r30
    4078:	de 01       	movw	r26, r28
    407a:	11 96       	adiw	r26, 0x01	; 1
    407c:	6d 01       	movw	r12, r26
    407e:	e9 8c       	ldd	r14, Y+25	; 0x19
    4080:	fa 8c       	ldd	r15, Y+26	; 0x1a
    4082:	4f 85       	ldd	r20, Y+15	; 0x0f
    4084:	58 89       	ldd	r21, Y+16	; 0x10
    4086:	69 89       	ldd	r22, Y+17	; 0x11
    4088:	7a 89       	ldd	r23, Y+18	; 0x12
    408a:	8b 81       	ldd	r24, Y+3	; 0x03
    408c:	9c 81       	ldd	r25, Y+4	; 0x04
    408e:	b6 da       	rcall	.-2708   	; 0x35fc <spi_nand_do_read_page>
    4090:	5c 01       	movw	r10, r24
    4092:	86 3b       	cpi	r24, 0xB6	; 182
    4094:	bf ef       	ldi	r27, 0xFF	; 255
    4096:	9b 07       	cpc	r25, r27
    4098:	31 f4       	brne	.+12     	; 0x40a6 <spi_nand_read_pages+0x1e4>
    409a:	eb 8d       	ldd	r30, Y+27	; 0x1b
    409c:	fc 8d       	ldd	r31, Y+28	; 0x1c
    409e:	31 96       	adiw	r30, 0x01	; 1
    40a0:	fc 8f       	std	Y+28, r31	; 0x1c
    40a2:	eb 8f       	std	Y+27, r30	; 0x1b
    40a4:	13 c0       	rjmp	.+38     	; 0x40cc <spi_nand_read_pages+0x20a>
    40a6:	00 97       	sbiw	r24, 0x00	; 0
    40a8:	89 f0       	breq	.+34     	; 0x40cc <spi_nand_read_pages+0x20a>
    40aa:	7f 92       	push	r7
    40ac:	6f 92       	push	r6
    40ae:	bf 92       	push	r11
    40b0:	8f 93       	push	r24
    40b2:	8e e1       	ldi	r24, 0x1E	; 30
    40b4:	9c e0       	ldi	r25, 0x0C	; 12
    40b6:	9f 93       	push	r25
    40b8:	8f 93       	push	r24
    40ba:	0e 94 63 42 	call	0x84c6	; 0x84c6 <printf>
    40be:	0f 90       	pop	r0
    40c0:	0f 90       	pop	r0
    40c2:	0f 90       	pop	r0
    40c4:	0f 90       	pop	r0
    40c6:	0f 90       	pop	r0
    40c8:	0f 90       	pop	r0
    40ca:	88 c0       	rjmp	.+272    	; 0x41dc <spi_nand_read_pages+0x31a>
    40cc:	89 81       	ldd	r24, Y+1	; 0x01
    40ce:	9a 81       	ldd	r25, Y+2	; 0x02
    40d0:	2d 89       	ldd	r18, Y+21	; 0x15
    40d2:	3e 89       	ldd	r19, Y+22	; 0x16
    40d4:	28 17       	cp	r18, r24
    40d6:	39 07       	cpc	r19, r25
    40d8:	10 f4       	brcc	.+4      	; 0x40de <spi_nand_read_pages+0x21c>
    40da:	9e 8b       	std	Y+22, r25	; 0x16
    40dc:	8d 8b       	std	Y+21, r24	; 0x15
    40de:	d2 01       	movw	r26, r4
    40e0:	14 96       	adiw	r26, 0x04	; 4
    40e2:	8d 91       	ld	r24, X+
    40e4:	9c 91       	ld	r25, X
    40e6:	15 97       	sbiw	r26, 0x05	; 5
    40e8:	ed 81       	ldd	r30, Y+5	; 0x05
    40ea:	fe 81       	ldd	r31, Y+6	; 0x06
    40ec:	8e 0f       	add	r24, r30
    40ee:	9f 1f       	adc	r25, r31
    40f0:	15 96       	adiw	r26, 0x05	; 5
    40f2:	9c 93       	st	X, r25
    40f4:	8e 93       	st	-X, r24
    40f6:	14 97       	sbiw	r26, 0x04	; 4
    40f8:	2b 89       	ldd	r18, Y+19	; 0x13
    40fa:	3c 89       	ldd	r19, Y+20	; 0x14
    40fc:	22 1a       	sub	r2, r18
    40fe:	33 0a       	sbc	r3, r19
    4100:	50 96       	adiw	r26, 0x10	; 16
    4102:	8d 91       	ld	r24, X+
    4104:	9c 91       	ld	r25, X
    4106:	51 97       	sbiw	r26, 0x11	; 17
    4108:	89 2b       	or	r24, r25
    410a:	e1 f1       	breq	.+120    	; 0x4184 <spi_nand_read_pages+0x2c2>
    410c:	8d 84       	ldd	r8, Y+13	; 0x0d
    410e:	9e 84       	ldd	r9, Y+14	; 0x0e
    4110:	4f 89       	ldd	r20, Y+23	; 0x17
    4112:	58 8d       	ldd	r21, Y+24	; 0x18
    4114:	48 15       	cp	r20, r8
    4116:	59 05       	cpc	r21, r9
    4118:	0c f4       	brge	.+2      	; 0x411c <spi_nand_read_pages+0x25a>
    411a:	4a 01       	movw	r8, r20
    411c:	ab 81       	ldd	r26, Y+3	; 0x03
    411e:	bc 81       	ldd	r27, Y+4	; 0x04
    4120:	59 96       	adiw	r26, 0x19	; 25
    4122:	ed 90       	ld	r14, X+
    4124:	fc 90       	ld	r15, X
    4126:	5a 97       	sbiw	r26, 0x1a	; 26
    4128:	57 96       	adiw	r26, 0x17	; 23
    412a:	0d 91       	ld	r16, X+
    412c:	1c 91       	ld	r17, X
    412e:	58 97       	sbiw	r26, 0x18	; 24
    4130:	19 96       	adiw	r26, 0x09	; 9
    4132:	cd 90       	ld	r12, X+
    4134:	dc 90       	ld	r13, X
    4136:	1a 97       	sbiw	r26, 0x0a	; 10
    4138:	20 e0       	ldi	r18, 0x00	; 0
    413a:	30 e0       	ldi	r19, 0x00	; 0
    413c:	4f 85       	ldd	r20, Y+15	; 0x0f
    413e:	58 89       	ldd	r21, Y+16	; 0x10
    4140:	69 89       	ldd	r22, Y+17	; 0x11
    4142:	7a 89       	ldd	r23, Y+18	; 0x12
    4144:	cd 01       	movw	r24, r26
    4146:	0e 94 e6 17 	call	0x2fcc	; 0x2fcc <spi_nand_read_from_cache>
    414a:	f2 01       	movw	r30, r4
    414c:	60 89       	ldd	r22, Z+16	; 0x10
    414e:	71 89       	ldd	r23, Z+17	; 0x11
    4150:	80 85       	ldd	r24, Z+8	; 0x08
    4152:	91 85       	ldd	r25, Z+9	; 0x09
    4154:	68 0f       	add	r22, r24
    4156:	79 1f       	adc	r23, r25
    4158:	94 01       	movw	r18, r8
    415a:	a2 01       	movw	r20, r4
    415c:	8b 81       	ldd	r24, Y+3	; 0x03
    415e:	9c 81       	ldd	r25, Y+4	; 0x04
    4160:	54 db       	rcall	.-2392   	; 0x380a <spi_nand_transfer_oob>
    4162:	d2 01       	movw	r26, r4
    4164:	18 96       	adiw	r26, 0x08	; 8
    4166:	8d 91       	ld	r24, X+
    4168:	9c 91       	ld	r25, X
    416a:	19 97       	sbiw	r26, 0x09	; 9
    416c:	88 0d       	add	r24, r8
    416e:	99 1d       	adc	r25, r9
    4170:	19 96       	adiw	r26, 0x09	; 9
    4172:	9c 93       	st	X, r25
    4174:	8e 93       	st	-X, r24
    4176:	18 97       	sbiw	r26, 0x08	; 8
    4178:	ed 85       	ldd	r30, Y+13	; 0x0d
    417a:	fe 85       	ldd	r31, Y+14	; 0x0e
    417c:	e8 19       	sub	r30, r8
    417e:	f9 09       	sbc	r31, r9
    4180:	fe 87       	std	Y+14, r31	; 0x0e
    4182:	ed 87       	std	Y+13, r30	; 0x0d
    4184:	21 14       	cp	r2, r1
    4186:	31 04       	cpc	r3, r1
    4188:	49 f1       	breq	.+82     	; 0x41dc <spi_nand_read_pages+0x31a>
    418a:	ff ef       	ldi	r31, 0xFF	; 255
    418c:	6f 1a       	sub	r6, r31
    418e:	7f 0a       	sbc	r7, r31
    4190:	ab 81       	ldd	r26, Y+3	; 0x03
    4192:	bc 81       	ldd	r27, Y+4	; 0x04
    4194:	5b 96       	adiw	r26, 0x1b	; 27
    4196:	2c 91       	ld	r18, X
    4198:	5b 97       	sbiw	r26, 0x1b	; 27
    419a:	5d 96       	adiw	r26, 0x1d	; 29
    419c:	8c 91       	ld	r24, X
    419e:	5d 97       	sbiw	r26, 0x1d	; 29
    41a0:	30 e0       	ldi	r19, 0x00	; 0
    41a2:	28 1b       	sub	r18, r24
    41a4:	31 09       	sbc	r19, r1
    41a6:	81 e0       	ldi	r24, 0x01	; 1
    41a8:	90 e0       	ldi	r25, 0x00	; 0
    41aa:	02 c0       	rjmp	.+4      	; 0x41b0 <spi_nand_read_pages+0x2ee>
    41ac:	88 0f       	add	r24, r24
    41ae:	99 1f       	adc	r25, r25
    41b0:	2a 95       	dec	r18
    41b2:	e2 f7       	brpl	.-8      	; 0x41ac <spi_nand_read_pages+0x2ea>
    41b4:	01 97       	sbiw	r24, 0x01	; 1
    41b6:	86 21       	and	r24, r6
    41b8:	97 21       	and	r25, r7
    41ba:	89 2b       	or	r24, r25
    41bc:	09 f0       	breq	.+2      	; 0x41c0 <spi_nand_read_pages+0x2fe>
    41be:	2e cf       	rjmp	.-420    	; 0x401c <spi_nand_read_pages+0x15a>
    41c0:	90 96       	adiw	r26, 0x20	; 32
    41c2:	8c 91       	ld	r24, X
    41c4:	90 97       	sbiw	r26, 0x20	; 32
    41c6:	81 ff       	sbrs	r24, 1
    41c8:	29 cf       	rjmp	.-430    	; 0x401c <spi_nand_read_pages+0x15a>
    41ca:	ed 8d       	ldd	r30, Y+29	; 0x1d
    41cc:	fe 8d       	ldd	r31, Y+30	; 0x1e
    41ce:	31 96       	adiw	r30, 0x01	; 1
    41d0:	fe 8f       	std	Y+30, r31	; 0x1e
    41d2:	ed 8f       	std	Y+29, r30	; 0x1d
    41d4:	6d 8d       	ldd	r22, Y+29	; 0x1d
    41d6:	cd 01       	movw	r24, r26
    41d8:	8b d8       	rcall	.-3818   	; 0x32f0 <spi_nand_lun_select>
    41da:	20 cf       	rjmp	.-448    	; 0x401c <spi_nand_read_pages+0x15a>
    41dc:	ab 81       	ldd	r26, Y+3	; 0x03
    41de:	bc 81       	ldd	r27, Y+4	; 0x04
    41e0:	98 96       	adiw	r26, 0x28	; 40
    41e2:	8c 91       	ld	r24, X
    41e4:	90 e0       	ldi	r25, 0x00	; 0
    41e6:	ed 89       	ldd	r30, Y+21	; 0x15
    41e8:	fe 89       	ldd	r31, Y+22	; 0x16
    41ea:	e8 17       	cp	r30, r24
    41ec:	f9 07       	cpc	r31, r25
    41ee:	30 f0       	brcs	.+12     	; 0x41fc <spi_nand_read_pages+0x33a>
    41f0:	0f 2e       	mov	r0, r31
    41f2:	fb e8       	ldi	r31, 0x8B	; 139
    41f4:	af 2e       	mov	r10, r31
    41f6:	bb 24       	eor	r11, r11
    41f8:	ba 94       	dec	r11
    41fa:	f0 2d       	mov	r31, r0
    41fc:	2b 8d       	ldd	r18, Y+27	; 0x1b
    41fe:	3c 8d       	ldd	r19, Y+28	; 0x1c
    4200:	23 2b       	or	r18, r19
    4202:	31 f0       	breq	.+12     	; 0x4210 <spi_nand_read_pages+0x34e>
    4204:	0f 2e       	mov	r0, r31
    4206:	f6 eb       	ldi	r31, 0xB6	; 182
    4208:	af 2e       	mov	r10, r31
    420a:	bb 24       	eor	r11, r11
    420c:	ba 94       	dec	r11
    420e:	f0 2d       	mov	r31, r0
    4210:	c5 01       	movw	r24, r10
    4212:	6e 96       	adiw	r28, 0x1e	; 30
    4214:	0f b6       	in	r0, 0x3f	; 63
    4216:	f8 94       	cli
    4218:	de bf       	out	0x3e, r29	; 62
    421a:	0f be       	out	0x3f, r0	; 63
    421c:	cd bf       	out	0x3d, r28	; 61
    421e:	df 91       	pop	r29
    4220:	cf 91       	pop	r28
    4222:	1f 91       	pop	r17
    4224:	0f 91       	pop	r16
    4226:	ff 90       	pop	r15
    4228:	ef 90       	pop	r14
    422a:	df 90       	pop	r13
    422c:	cf 90       	pop	r12
    422e:	bf 90       	pop	r11
    4230:	af 90       	pop	r10
    4232:	9f 90       	pop	r9
    4234:	8f 90       	pop	r8
    4236:	7f 90       	pop	r7
    4238:	6f 90       	pop	r6
    423a:	5f 90       	pop	r5
    423c:	4f 90       	pop	r4
    423e:	3f 90       	pop	r3
    4240:	2f 90       	pop	r2
    4242:	08 95       	ret

00004244 <spi_nand_do_read_ops>:
    4244:	2f 92       	push	r2
    4246:	3f 92       	push	r3
    4248:	4f 92       	push	r4
    424a:	5f 92       	push	r5
    424c:	6f 92       	push	r6
    424e:	7f 92       	push	r7
    4250:	8f 92       	push	r8
    4252:	9f 92       	push	r9
    4254:	af 92       	push	r10
    4256:	bf 92       	push	r11
    4258:	cf 92       	push	r12
    425a:	df 92       	push	r13
    425c:	ef 92       	push	r14
    425e:	ff 92       	push	r15
    4260:	0f 93       	push	r16
    4262:	1f 93       	push	r17
    4264:	cf 93       	push	r28
    4266:	df 93       	push	r29
    4268:	cd b7       	in	r28, 0x3d	; 61
    426a:	de b7       	in	r29, 0x3e	; 62
    426c:	a3 97       	sbiw	r28, 0x23	; 35
    426e:	0f b6       	in	r0, 0x3f	; 63
    4270:	f8 94       	cli
    4272:	de bf       	out	0x3e, r29	; 62
    4274:	0f be       	out	0x3f, r0	; 63
    4276:	cd bf       	out	0x3d, r28	; 61
    4278:	9b a3       	std	Y+35, r25	; 0x23
    427a:	8a a3       	std	Y+34, r24	; 0x22
    427c:	09 87       	std	Y+9, r16	; 0x09
    427e:	1a 87       	std	Y+10, r17	; 0x0a
    4280:	2b 87       	std	Y+11, r18	; 0x0b
    4282:	3c 87       	std	Y+12, r19	; 0x0c
    4284:	4d 87       	std	Y+13, r20	; 0x0d
    4286:	5e 87       	std	Y+14, r21	; 0x0e
    4288:	46 2e       	mov	r4, r22
    428a:	57 2e       	mov	r5, r23
    428c:	47 01       	movw	r8, r14
    428e:	d7 01       	movw	r26, r14
    4290:	16 96       	adiw	r26, 0x06	; 6
    4292:	6d 90       	ld	r6, X+
    4294:	7c 90       	ld	r7, X
    4296:	17 97       	sbiw	r26, 0x07	; 7
    4298:	2d 90       	ld	r2, X+
    429a:	3c 90       	ld	r3, X
    429c:	b1 e0       	ldi	r27, 0x01	; 1
    429e:	2b 16       	cp	r2, r27
    42a0:	31 04       	cpc	r3, r1
    42a2:	61 f4       	brne	.+24     	; 0x42bc <spi_nand_do_read_ops+0x78>
    42a4:	dc 01       	movw	r26, r24
    42a6:	9a 96       	adiw	r26, 0x2a	; 42
    42a8:	ed 91       	ld	r30, X+
    42aa:	fc 91       	ld	r31, X
    42ac:	9b 97       	sbiw	r26, 0x2b	; 43
    42ae:	ec 5f       	subi	r30, 0xFC	; 252
    42b0:	fe 4f       	sbci	r31, 0xFE	; 254
    42b2:	a0 80       	ld	r10, Z
    42b4:	b1 80       	ldd	r11, Z+1	; 0x01
    42b6:	ba 82       	std	Y+2, r11	; 0x02
    42b8:	a9 82       	std	Y+1, r10	; 0x01
    42ba:	08 c0       	rjmp	.+16     	; 0x42cc <spi_nand_do_read_ops+0x88>
    42bc:	aa a1       	ldd	r26, Y+34	; 0x22
    42be:	bb a1       	ldd	r27, Y+35	; 0x23
    42c0:	59 96       	adiw	r26, 0x19	; 25
    42c2:	0d 90       	ld	r0, X+
    42c4:	bc 91       	ld	r27, X
    42c6:	a0 2d       	mov	r26, r0
    42c8:	ba 83       	std	Y+2, r27	; 0x02
    42ca:	a9 83       	std	Y+1, r26	; 0x01
    42cc:	f4 01       	movw	r30, r8
    42ce:	83 81       	ldd	r24, Z+3	; 0x03
    42d0:	8f 93       	push	r24
    42d2:	82 81       	ldd	r24, Z+2	; 0x02
    42d4:	8f 93       	push	r24
    42d6:	5f 92       	push	r5
    42d8:	4f 92       	push	r4
    42da:	fe 85       	ldd	r31, Y+14	; 0x0e
    42dc:	ff 93       	push	r31
    42de:	ad 84       	ldd	r10, Y+13	; 0x0d
    42e0:	af 92       	push	r10
    42e2:	bc 84       	ldd	r11, Y+12	; 0x0c
    42e4:	bf 92       	push	r11
    42e6:	cb 84       	ldd	r12, Y+11	; 0x0b
    42e8:	cf 92       	push	r12
    42ea:	da 84       	ldd	r13, Y+10	; 0x0a
    42ec:	df 92       	push	r13
    42ee:	e9 84       	ldd	r14, Y+9	; 0x09
    42f0:	ef 92       	push	r14
    42f2:	8c e9       	ldi	r24, 0x9C	; 156
    42f4:	9f e0       	ldi	r25, 0x0F	; 15
    42f6:	9f 93       	push	r25
    42f8:	8f 93       	push	r24
    42fa:	8e ef       	ldi	r24, 0xFE	; 254
    42fc:	9b e0       	ldi	r25, 0x0B	; 11
    42fe:	9f 93       	push	r25
    4300:	8f 93       	push	r24
    4302:	0e 94 63 42 	call	0x84c6	; 0x84c6 <printf>
    4306:	aa a1       	ldd	r26, Y+34	; 0x22
    4308:	bb a1       	ldd	r27, Y+35	; 0x23
    430a:	1b 96       	adiw	r26, 0x0b	; 11
    430c:	bc 91       	ld	r27, X
    430e:	bf 87       	std	Y+15, r27	; 0x0f
    4310:	ea a1       	ldd	r30, Y+34	; 0x22
    4312:	fb a1       	ldd	r31, Y+35	; 0x23
    4314:	f4 85       	ldd	r31, Z+12	; 0x0c
    4316:	f8 8b       	std	Y+16, r31	; 0x10
    4318:	aa a1       	ldd	r26, Y+34	; 0x22
    431a:	bb a1       	ldd	r27, Y+35	; 0x23
    431c:	1d 96       	adiw	r26, 0x0d	; 13
    431e:	bc 91       	ld	r27, X
    4320:	b9 8b       	std	Y+17, r27	; 0x11
    4322:	ea a1       	ldd	r30, Y+34	; 0x22
    4324:	fb a1       	ldd	r31, Y+35	; 0x23
    4326:	f6 85       	ldd	r31, Z+14	; 0x0e
    4328:	fa 8f       	std	Y+26, r31	; 0x1a
    432a:	ea a1       	ldd	r30, Y+34	; 0x22
    432c:	fb a1       	ldd	r31, Y+35	; 0x23
    432e:	b7 85       	ldd	r27, Z+15	; 0x0f
    4330:	a0 89       	ldd	r26, Z+16	; 0x10
    4332:	f1 89       	ldd	r31, Z+17	; 0x11
    4334:	fb 8f       	std	Y+27, r31	; 0x1b
    4336:	ea a1       	ldd	r30, Y+34	; 0x22
    4338:	fb a1       	ldd	r31, Y+35	; 0x23
    433a:	f2 89       	ldd	r31, Z+18	; 0x12
    433c:	fc 8f       	std	Y+28, r31	; 0x1c
    433e:	0f b6       	in	r0, 0x3f	; 63
    4340:	f8 94       	cli
    4342:	de bf       	out	0x3e, r29	; 62
    4344:	0f be       	out	0x3f, r0	; 63
    4346:	cd bf       	out	0x3d, r28	; 61
    4348:	2f 85       	ldd	r18, Y+15	; 0x0f
    434a:	38 89       	ldd	r19, Y+16	; 0x10
    434c:	49 89       	ldd	r20, Y+17	; 0x11
    434e:	5a 8d       	ldd	r21, Y+26	; 0x1a
    4350:	6b 2f       	mov	r22, r27
    4352:	7a 2f       	mov	r23, r26
    4354:	8b 8d       	ldd	r24, Y+27	; 0x1b
    4356:	9f 2f       	mov	r25, r31
    4358:	a9 84       	ldd	r10, Y+9	; 0x09
    435a:	ba 84       	ldd	r11, Y+10	; 0x0a
    435c:	cb 84       	ldd	r12, Y+11	; 0x0b
    435e:	dc 84       	ldd	r13, Y+12	; 0x0c
    4360:	ed 84       	ldd	r14, Y+13	; 0x0d
    4362:	fe 84       	ldd	r15, Y+14	; 0x0e
    4364:	04 2d       	mov	r16, r4
    4366:	15 2d       	mov	r17, r5
    4368:	0e 94 c0 40 	call	0x8180	; 0x8180 <__cmpdi2>
    436c:	09 f0       	breq	.+2      	; 0x4370 <spi_nand_do_read_ops+0x12c>
    436e:	88 f4       	brcc	.+34     	; 0x4392 <spi_nand_do_read_ops+0x14e>
    4370:	8c e9       	ldi	r24, 0x9C	; 156
    4372:	9f e0       	ldi	r25, 0x0F	; 15
    4374:	9f 93       	push	r25
    4376:	8f 93       	push	r24
    4378:	8a e3       	ldi	r24, 0x3A	; 58
    437a:	9c e0       	ldi	r25, 0x0C	; 12
    437c:	9f 93       	push	r25
    437e:	8f 93       	push	r24
    4380:	0e 94 63 42 	call	0x84c6	; 0x84c6 <printf>
    4384:	0f 90       	pop	r0
    4386:	0f 90       	pop	r0
    4388:	0f 90       	pop	r0
    438a:	0f 90       	pop	r0
    438c:	8a ee       	ldi	r24, 0xEA	; 234
    438e:	9f ef       	ldi	r25, 0xFF	; 255
    4390:	9d c1       	rjmp	.+826    	; 0x46cc <spi_nand_do_read_ops+0x488>
    4392:	16 14       	cp	r1, r6
    4394:	17 04       	cpc	r1, r7
    4396:	0c f0       	brlt	.+2      	; 0x439a <spi_nand_do_read_ops+0x156>
    4398:	a6 c0       	rjmp	.+332    	; 0x44e6 <spi_nand_do_read_ops+0x2a2>
    439a:	f4 01       	movw	r30, r8
    439c:	02 85       	ldd	r16, Z+10	; 0x0a
    439e:	13 85       	ldd	r17, Z+11	; 0x0b
    43a0:	24 85       	ldd	r18, Z+12	; 0x0c
    43a2:	35 85       	ldd	r19, Z+13	; 0x0d
    43a4:	a9 80       	ldd	r10, Y+1	; 0x01
    43a6:	ba 80       	ldd	r11, Y+2	; 0x02
    43a8:	a5 01       	movw	r20, r10
    43aa:	bb 0c       	add	r11, r11
    43ac:	66 0b       	sbc	r22, r22
    43ae:	77 0b       	sbc	r23, r23
    43b0:	04 17       	cp	r16, r20
    43b2:	15 07       	cpc	r17, r21
    43b4:	26 07       	cpc	r18, r22
    43b6:	37 07       	cpc	r19, r23
    43b8:	88 f0       	brcs	.+34     	; 0x43dc <spi_nand_do_read_ops+0x198>
    43ba:	8c e9       	ldi	r24, 0x9C	; 156
    43bc:	9f e0       	ldi	r25, 0x0F	; 15
    43be:	9f 93       	push	r25
    43c0:	8f 93       	push	r24
    43c2:	84 e6       	ldi	r24, 0x64	; 100
    43c4:	9c e0       	ldi	r25, 0x0C	; 12
    43c6:	9f 93       	push	r25
    43c8:	8f 93       	push	r24
    43ca:	0e 94 63 42 	call	0x84c6	; 0x84c6 <printf>
    43ce:	0f 90       	pop	r0
    43d0:	0f 90       	pop	r0
    43d2:	0f 90       	pop	r0
    43d4:	0f 90       	pop	r0
    43d6:	8a ee       	ldi	r24, 0xEA	; 234
    43d8:	9f ef       	ldi	r25, 0xFF	; 255
    43da:	78 c1       	rjmp	.+752    	; 0x46cc <spi_nand_do_read_ops+0x488>
    43dc:	a3 01       	movw	r20, r6
    43de:	77 0c       	add	r7, r7
    43e0:	66 0b       	sbc	r22, r22
    43e2:	77 0b       	sbc	r23, r23
    43e4:	40 0f       	add	r20, r16
    43e6:	51 1f       	adc	r21, r17
    43e8:	62 1f       	adc	r22, r18
    43ea:	73 1f       	adc	r23, r19
    43ec:	6a 01       	movw	r12, r20
    43ee:	7b 01       	movw	r14, r22
    43f0:	00 e0       	ldi	r16, 0x00	; 0
    43f2:	10 e0       	ldi	r17, 0x00	; 0
    43f4:	98 01       	movw	r18, r16
    43f6:	4a 8b       	std	Y+18, r20	; 0x12
    43f8:	db 8a       	std	Y+19, r13	; 0x13
    43fa:	ec 8a       	std	Y+20, r14	; 0x14
    43fc:	fd 8a       	std	Y+21, r15	; 0x15
    43fe:	0e 8b       	std	Y+22, r16	; 0x16
    4400:	1f 8b       	std	Y+23, r17	; 0x17
    4402:	28 8f       	std	Y+24, r18	; 0x18
    4404:	39 8f       	std	Y+25, r19	; 0x19
    4406:	ea a1       	ldd	r30, Y+34	; 0x22
    4408:	fb a1       	ldd	r31, Y+35	; 0x23
    440a:	75 8c       	ldd	r7, Z+29	; 0x1d
    440c:	2f 85       	ldd	r18, Y+15	; 0x0f
    440e:	38 89       	ldd	r19, Y+16	; 0x10
    4410:	49 89       	ldd	r20, Y+17	; 0x11
    4412:	5a 8d       	ldd	r21, Y+26	; 0x1a
    4414:	6b 2f       	mov	r22, r27
    4416:	7a 2f       	mov	r23, r26
    4418:	8b 8d       	ldd	r24, Y+27	; 0x1b
    441a:	9c 8d       	ldd	r25, Y+28	; 0x1c
    441c:	07 2d       	mov	r16, r7
    441e:	0e 94 92 40 	call	0x8124	; 0x8124 <__lshrdi3>
    4422:	2f 87       	std	Y+15, r18	; 0x0f
    4424:	38 8b       	std	Y+16, r19	; 0x10
    4426:	49 8b       	std	Y+17, r20	; 0x11
    4428:	65 2e       	mov	r6, r21
    442a:	b6 2f       	mov	r27, r22
    442c:	a7 2f       	mov	r26, r23
    442e:	f8 2f       	mov	r31, r24
    4430:	e9 2f       	mov	r30, r25
    4432:	29 85       	ldd	r18, Y+9	; 0x09
    4434:	3a 85       	ldd	r19, Y+10	; 0x0a
    4436:	4b 85       	ldd	r20, Y+11	; 0x0b
    4438:	5c 85       	ldd	r21, Y+12	; 0x0c
    443a:	6d 85       	ldd	r22, Y+13	; 0x0d
    443c:	7e 85       	ldd	r23, Y+14	; 0x0e
    443e:	84 2d       	mov	r24, r4
    4440:	95 2d       	mov	r25, r5
    4442:	0e 94 90 40 	call	0x8120	; 0x8120 <__ashrdi3>
    4446:	a2 2e       	mov	r10, r18
    4448:	b3 2e       	mov	r11, r19
    444a:	c4 2e       	mov	r12, r20
    444c:	d5 2e       	mov	r13, r21
    444e:	e6 2e       	mov	r14, r22
    4450:	f7 2e       	mov	r15, r23
    4452:	08 2f       	mov	r16, r24
    4454:	19 2f       	mov	r17, r25
    4456:	2f 85       	ldd	r18, Y+15	; 0x0f
    4458:	38 89       	ldd	r19, Y+16	; 0x10
    445a:	49 89       	ldd	r20, Y+17	; 0x11
    445c:	56 2d       	mov	r21, r6
    445e:	6b 2f       	mov	r22, r27
    4460:	7a 2f       	mov	r23, r26
    4462:	8f 2f       	mov	r24, r31
    4464:	9e 2f       	mov	r25, r30
    4466:	0e 94 b7 40 	call	0x816e	; 0x816e <__subdi3>
    446a:	19 2f       	mov	r17, r25
    446c:	9a 81       	ldd	r25, Y+2	; 0x02
    446e:	99 0f       	add	r25, r25
    4470:	99 0b       	sbc	r25, r25
    4472:	a2 2e       	mov	r10, r18
    4474:	b3 2e       	mov	r11, r19
    4476:	c4 2e       	mov	r12, r20
    4478:	d5 2e       	mov	r13, r21
    447a:	e6 2e       	mov	r14, r22
    447c:	f7 2e       	mov	r15, r23
    447e:	08 2f       	mov	r16, r24
    4480:	29 81       	ldd	r18, Y+1	; 0x01
    4482:	3a 81       	ldd	r19, Y+2	; 0x02
    4484:	49 2f       	mov	r20, r25
    4486:	59 2f       	mov	r21, r25
    4488:	69 2f       	mov	r22, r25
    448a:	79 2f       	mov	r23, r25
    448c:	89 2f       	mov	r24, r25
    448e:	0e 94 3f 40 	call	0x807e	; 0x807e <__muldi3>
    4492:	a2 2e       	mov	r10, r18
    4494:	b3 2e       	mov	r11, r19
    4496:	c4 2e       	mov	r12, r20
    4498:	d5 2e       	mov	r13, r21
    449a:	e6 2e       	mov	r14, r22
    449c:	f7 2e       	mov	r15, r23
    449e:	08 2f       	mov	r16, r24
    44a0:	19 2f       	mov	r17, r25
    44a2:	2a 89       	ldd	r18, Y+18	; 0x12
    44a4:	3b 89       	ldd	r19, Y+19	; 0x13
    44a6:	4c 89       	ldd	r20, Y+20	; 0x14
    44a8:	5d 89       	ldd	r21, Y+21	; 0x15
    44aa:	60 e0       	ldi	r22, 0x00	; 0
    44ac:	70 e0       	ldi	r23, 0x00	; 0
    44ae:	80 e0       	ldi	r24, 0x00	; 0
    44b0:	90 e0       	ldi	r25, 0x00	; 0
    44b2:	0e 94 c0 40 	call	0x8180	; 0x8180 <__cmpdi2>
    44b6:	91 f0       	breq	.+36     	; 0x44dc <spi_nand_do_read_ops+0x298>
    44b8:	88 f0       	brcs	.+34     	; 0x44dc <spi_nand_do_read_ops+0x298>
    44ba:	8c e9       	ldi	r24, 0x9C	; 156
    44bc:	9f e0       	ldi	r25, 0x0F	; 15
    44be:	9f 93       	push	r25
    44c0:	8f 93       	push	r24
    44c2:	8a e3       	ldi	r24, 0x3A	; 58
    44c4:	9c e0       	ldi	r25, 0x0C	; 12
    44c6:	9f 93       	push	r25
    44c8:	8f 93       	push	r24
    44ca:	0e 94 63 42 	call	0x84c6	; 0x84c6 <printf>
    44ce:	0f 90       	pop	r0
    44d0:	0f 90       	pop	r0
    44d2:	0f 90       	pop	r0
    44d4:	0f 90       	pop	r0
    44d6:	8a ee       	ldi	r24, 0xEA	; 234
    44d8:	9f ef       	ldi	r25, 0xFF	; 255
    44da:	f8 c0       	rjmp	.+496    	; 0x46cc <spi_nand_do_read_ops+0x488>
    44dc:	d4 01       	movw	r26, r8
    44de:	19 96       	adiw	r26, 0x09	; 9
    44e0:	1c 92       	st	X, r1
    44e2:	1e 92       	st	-X, r1
    44e4:	18 97       	sbiw	r26, 0x08	; 8
    44e6:	b2 e0       	ldi	r27, 0x02	; 2
    44e8:	2b 16       	cp	r2, r27
    44ea:	31 04       	cpc	r3, r1
    44ec:	21 f4       	brne	.+8      	; 0x44f6 <spi_nand_do_read_ops+0x2b2>
    44ee:	8a a1       	ldd	r24, Y+34	; 0x22
    44f0:	9b a1       	ldd	r25, Y+35	; 0x23
    44f2:	0e 94 e7 19 	call	0x33ce	; 0x33ce <spi_nand_disable_ecc>
    44f6:	f4 01       	movw	r30, r8
    44f8:	a2 80       	ldd	r10, Z+2	; 0x02
    44fa:	b3 80       	ldd	r11, Z+3	; 0x03
    44fc:	aa a1       	ldd	r26, Y+34	; 0x22
    44fe:	bb a1       	ldd	r27, Y+35	; 0x23
    4500:	57 96       	adiw	r26, 0x17	; 23
    4502:	8d 91       	ld	r24, X+
    4504:	9c 91       	ld	r25, X
    4506:	58 97       	sbiw	r26, 0x18	; 24
    4508:	3c 01       	movw	r6, r24
    450a:	66 0c       	add	r6, r6
    450c:	77 1c       	adc	r7, r7
    450e:	66 0c       	add	r6, r6
    4510:	77 1c       	adc	r7, r7
    4512:	a6 14       	cp	r10, r6
    4514:	b7 04       	cpc	r11, r7
    4516:	08 f4       	brcc	.+2      	; 0x451a <spi_nand_do_read_ops+0x2d6>
    4518:	a2 c0       	rjmp	.+324    	; 0x465e <spi_nand_do_read_ops+0x41a>
    451a:	5b 96       	adiw	r26, 0x1b	; 27
    451c:	ec 91       	ld	r30, X
    451e:	29 85       	ldd	r18, Y+9	; 0x09
    4520:	3a 85       	ldd	r19, Y+10	; 0x0a
    4522:	4b 85       	ldd	r20, Y+11	; 0x0b
    4524:	5c 85       	ldd	r21, Y+12	; 0x0c
    4526:	6d 85       	ldd	r22, Y+13	; 0x0d
    4528:	7e 85       	ldd	r23, Y+14	; 0x0e
    452a:	84 2d       	mov	r24, r4
    452c:	95 2d       	mov	r25, r5
    452e:	0e 2f       	mov	r16, r30
    4530:	0e 94 90 40 	call	0x8120	; 0x8120 <__ashrdi3>
    4534:	29 83       	std	Y+1, r18	; 0x01
    4536:	3d 8f       	std	Y+29, r19	; 0x1d
    4538:	4e 8f       	std	Y+30, r20	; 0x1e
    453a:	5f 8f       	std	Y+31, r21	; 0x1f
    453c:	68 a3       	std	Y+32, r22	; 0x20
    453e:	b7 2f       	mov	r27, r23
    4540:	a8 2f       	mov	r26, r24
    4542:	99 a3       	std	Y+33, r25	; 0x21
    4544:	2a 2d       	mov	r18, r10
    4546:	3b 2d       	mov	r19, r11
    4548:	40 e0       	ldi	r20, 0x00	; 0
    454a:	50 e0       	ldi	r21, 0x00	; 0
    454c:	60 e0       	ldi	r22, 0x00	; 0
    454e:	70 e0       	ldi	r23, 0x00	; 0
    4550:	80 e0       	ldi	r24, 0x00	; 0
    4552:	90 e0       	ldi	r25, 0x00	; 0
    4554:	a9 84       	ldd	r10, Y+9	; 0x09
    4556:	ba 84       	ldd	r11, Y+10	; 0x0a
    4558:	cb 84       	ldd	r12, Y+11	; 0x0b
    455a:	dc 84       	ldd	r13, Y+12	; 0x0c
    455c:	ed 84       	ldd	r14, Y+13	; 0x0d
    455e:	fe 84       	ldd	r15, Y+14	; 0x0e
    4560:	04 2d       	mov	r16, r4
    4562:	15 2d       	mov	r17, r5
    4564:	0e 94 ae 40 	call	0x815c	; 0x815c <__adddi3>
    4568:	2a 8b       	std	Y+18, r18	; 0x12
    456a:	3f 87       	std	Y+15, r19	; 0x0f
    456c:	48 8b       	std	Y+16, r20	; 0x10
    456e:	59 8b       	std	Y+17, r21	; 0x11
    4570:	6a 8f       	std	Y+26, r22	; 0x1a
    4572:	7b 8f       	std	Y+27, r23	; 0x1b
    4574:	8c 8f       	std	Y+28, r24	; 0x1c
    4576:	f9 2f       	mov	r31, r25
    4578:	0e 2f       	mov	r16, r30
    457a:	0e 94 90 40 	call	0x8120	; 0x8120 <__ashrdi3>
    457e:	a2 2e       	mov	r10, r18
    4580:	b3 2e       	mov	r11, r19
    4582:	c4 2e       	mov	r12, r20
    4584:	d5 2e       	mov	r13, r21
    4586:	e6 2e       	mov	r14, r22
    4588:	f7 2e       	mov	r15, r23
    458a:	08 2f       	mov	r16, r24
    458c:	19 2f       	mov	r17, r25
    458e:	29 81       	ldd	r18, Y+1	; 0x01
    4590:	3d 8d       	ldd	r19, Y+29	; 0x1d
    4592:	4e 8d       	ldd	r20, Y+30	; 0x1e
    4594:	5f 8d       	ldd	r21, Y+31	; 0x1f
    4596:	68 a1       	ldd	r22, Y+32	; 0x20
    4598:	7b 2f       	mov	r23, r27
    459a:	8a 2f       	mov	r24, r26
    459c:	99 a1       	ldd	r25, Y+33	; 0x21
    459e:	0e 94 c0 40 	call	0x8180	; 0x8180 <__cmpdi2>
    45a2:	09 f4       	brne	.+2      	; 0x45a6 <spi_nand_do_read_ops+0x362>
    45a4:	5f c0       	rjmp	.+190    	; 0x4664 <spi_nand_do_read_ops+0x420>
    45a6:	a1 e0       	ldi	r26, 0x01	; 1
    45a8:	b0 e0       	ldi	r27, 0x00	; 0
    45aa:	02 c0       	rjmp	.+4      	; 0x45b0 <spi_nand_do_read_ops+0x36c>
    45ac:	aa 0f       	add	r26, r26
    45ae:	bb 1f       	adc	r27, r27
    45b0:	ea 95       	dec	r30
    45b2:	e2 f7       	brpl	.-8      	; 0x45ac <spi_nand_do_read_ops+0x368>
    45b4:	eb 2f       	mov	r30, r27
    45b6:	ee 0f       	add	r30, r30
    45b8:	ee 0b       	sbc	r30, r30
    45ba:	2a 2f       	mov	r18, r26
    45bc:	3b 2f       	mov	r19, r27
    45be:	4e 2f       	mov	r20, r30
    45c0:	5e 2f       	mov	r21, r30
    45c2:	6e 2f       	mov	r22, r30
    45c4:	7e 2f       	mov	r23, r30
    45c6:	8e 2f       	mov	r24, r30
    45c8:	9e 2f       	mov	r25, r30
    45ca:	a9 84       	ldd	r10, Y+9	; 0x09
    45cc:	ba 84       	ldd	r11, Y+10	; 0x0a
    45ce:	cb 84       	ldd	r12, Y+11	; 0x0b
    45d0:	dc 84       	ldd	r13, Y+12	; 0x0c
    45d2:	ed 84       	ldd	r14, Y+13	; 0x0d
    45d4:	fe 84       	ldd	r15, Y+14	; 0x0e
    45d6:	04 2d       	mov	r16, r4
    45d8:	15 2d       	mov	r17, r5
    45da:	0e 94 b7 40 	call	0x816e	; 0x816e <__subdi3>
    45de:	53 01       	movw	r10, r6
    45e0:	c1 2c       	mov	r12, r1
    45e2:	d1 2c       	mov	r13, r1
    45e4:	e1 2c       	mov	r14, r1
    45e6:	f1 2c       	mov	r15, r1
    45e8:	87 01       	movw	r16, r14
    45ea:	69 82       	std	Y+1, r6	; 0x01
    45ec:	ba 82       	std	Y+2, r11	; 0x02
    45ee:	cb 82       	std	Y+3, r12	; 0x03
    45f0:	dc 82       	std	Y+4, r13	; 0x04
    45f2:	ed 82       	std	Y+5, r14	; 0x05
    45f4:	fe 82       	std	Y+6, r15	; 0x06
    45f6:	0f 83       	std	Y+7, r16	; 0x07
    45f8:	18 87       	std	Y+8, r17	; 0x08
    45fa:	c1 2c       	mov	r12, r1
    45fc:	d1 2c       	mov	r13, r1
    45fe:	e1 2c       	mov	r14, r1
    4600:	f1 2c       	mov	r15, r1
    4602:	00 e0       	ldi	r16, 0x00	; 0
    4604:	10 e0       	ldi	r17, 0x00	; 0
    4606:	0e 94 c0 40 	call	0x8180	; 0x8180 <__cmpdi2>
    460a:	7c f5       	brge	.+94     	; 0x466a <spi_nand_do_read_ops+0x426>
    460c:	2a 89       	ldd	r18, Y+18	; 0x12
    460e:	3f 85       	ldd	r19, Y+15	; 0x0f
    4610:	48 89       	ldd	r20, Y+16	; 0x10
    4612:	59 89       	ldd	r21, Y+17	; 0x11
    4614:	6a 8d       	ldd	r22, Y+26	; 0x1a
    4616:	7b 8d       	ldd	r23, Y+27	; 0x1b
    4618:	8c 8d       	ldd	r24, Y+28	; 0x1c
    461a:	9f 2f       	mov	r25, r31
    461c:	aa 2e       	mov	r10, r26
    461e:	bb 2e       	mov	r11, r27
    4620:	ce 2e       	mov	r12, r30
    4622:	de 2e       	mov	r13, r30
    4624:	ee 2e       	mov	r14, r30
    4626:	fe 2e       	mov	r15, r30
    4628:	0e 2f       	mov	r16, r30
    462a:	1e 2f       	mov	r17, r30
    462c:	0e 94 b7 40 	call	0x816e	; 0x816e <__subdi3>
    4630:	a2 2e       	mov	r10, r18
    4632:	b3 2e       	mov	r11, r19
    4634:	c4 2e       	mov	r12, r20
    4636:	d5 2e       	mov	r13, r21
    4638:	e6 2e       	mov	r14, r22
    463a:	f7 2e       	mov	r15, r23
    463c:	08 2f       	mov	r16, r24
    463e:	19 2f       	mov	r17, r25
    4640:	29 81       	ldd	r18, Y+1	; 0x01
    4642:	3a 81       	ldd	r19, Y+2	; 0x02
    4644:	40 e0       	ldi	r20, 0x00	; 0
    4646:	50 e0       	ldi	r21, 0x00	; 0
    4648:	60 e0       	ldi	r22, 0x00	; 0
    464a:	70 e0       	ldi	r23, 0x00	; 0
    464c:	80 e0       	ldi	r24, 0x00	; 0
    464e:	90 e0       	ldi	r25, 0x00	; 0
    4650:	0e 94 c0 40 	call	0x8180	; 0x8180 <__cmpdi2>
    4654:	09 f0       	breq	.+2      	; 0x4658 <spi_nand_do_read_ops+0x414>
    4656:	64 f4       	brge	.+24     	; 0x4670 <spi_nand_do_read_ops+0x42c>
    4658:	81 e0       	ldi	r24, 0x01	; 1
    465a:	90 e0       	ldi	r25, 0x00	; 0
    465c:	0b c0       	rjmp	.+22     	; 0x4674 <spi_nand_do_read_ops+0x430>
    465e:	80 e0       	ldi	r24, 0x00	; 0
    4660:	90 e0       	ldi	r25, 0x00	; 0
    4662:	08 c0       	rjmp	.+16     	; 0x4674 <spi_nand_do_read_ops+0x430>
    4664:	81 e0       	ldi	r24, 0x01	; 1
    4666:	90 e0       	ldi	r25, 0x00	; 0
    4668:	05 c0       	rjmp	.+10     	; 0x4674 <spi_nand_do_read_ops+0x430>
    466a:	81 e0       	ldi	r24, 0x01	; 1
    466c:	90 e0       	ldi	r25, 0x00	; 0
    466e:	02 c0       	rjmp	.+4      	; 0x4674 <spi_nand_do_read_ops+0x430>
    4670:	80 e0       	ldi	r24, 0x00	; 0
    4672:	90 e0       	ldi	r25, 0x00	; 0
    4674:	89 2b       	or	r24, r25
    4676:	79 f0       	breq	.+30     	; 0x4696 <spi_nand_do_read_ops+0x452>
    4678:	74 01       	movw	r14, r8
    467a:	09 85       	ldd	r16, Y+9	; 0x09
    467c:	1a 85       	ldd	r17, Y+10	; 0x0a
    467e:	2b 85       	ldd	r18, Y+11	; 0x0b
    4680:	3c 85       	ldd	r19, Y+12	; 0x0c
    4682:	4d 85       	ldd	r20, Y+13	; 0x0d
    4684:	5e 85       	ldd	r21, Y+14	; 0x0e
    4686:	64 2d       	mov	r22, r4
    4688:	75 2d       	mov	r23, r5
    468a:	8a a1       	ldd	r24, Y+34	; 0x22
    468c:	9b a1       	ldd	r25, Y+35	; 0x23
    468e:	58 d9       	rcall	.-3408   	; 0x3940 <spi_nand_read_pages_fast>
    4690:	08 2f       	mov	r16, r24
    4692:	19 2f       	mov	r17, r25
    4694:	0e c0       	rjmp	.+28     	; 0x46b2 <spi_nand_do_read_ops+0x46e>
    4696:	74 01       	movw	r14, r8
    4698:	09 85       	ldd	r16, Y+9	; 0x09
    469a:	1a 85       	ldd	r17, Y+10	; 0x0a
    469c:	2b 85       	ldd	r18, Y+11	; 0x0b
    469e:	3c 85       	ldd	r19, Y+12	; 0x0c
    46a0:	4d 85       	ldd	r20, Y+13	; 0x0d
    46a2:	5e 85       	ldd	r21, Y+14	; 0x0e
    46a4:	64 2d       	mov	r22, r4
    46a6:	75 2d       	mov	r23, r5
    46a8:	8a a1       	ldd	r24, Y+34	; 0x22
    46aa:	9b a1       	ldd	r25, Y+35	; 0x23
    46ac:	0a dc       	rcall	.-2028   	; 0x3ec2 <spi_nand_read_pages>
    46ae:	08 2f       	mov	r16, r24
    46b0:	19 2f       	mov	r17, r25
    46b2:	22 e0       	ldi	r18, 0x02	; 2
    46b4:	22 16       	cp	r2, r18
    46b6:	31 04       	cpc	r3, r1
    46b8:	39 f4       	brne	.+14     	; 0x46c8 <spi_nand_do_read_ops+0x484>
    46ba:	8a a1       	ldd	r24, Y+34	; 0x22
    46bc:	9b a1       	ldd	r25, Y+35	; 0x23
    46be:	0e 94 07 1a 	call	0x340e	; 0x340e <spi_nand_enable_ecc>
    46c2:	80 2f       	mov	r24, r16
    46c4:	91 2f       	mov	r25, r17
    46c6:	02 c0       	rjmp	.+4      	; 0x46cc <spi_nand_do_read_ops+0x488>
    46c8:	80 2f       	mov	r24, r16
    46ca:	91 2f       	mov	r25, r17
    46cc:	a3 96       	adiw	r28, 0x23	; 35
    46ce:	0f b6       	in	r0, 0x3f	; 63
    46d0:	f8 94       	cli
    46d2:	de bf       	out	0x3e, r29	; 62
    46d4:	0f be       	out	0x3f, r0	; 63
    46d6:	cd bf       	out	0x3d, r28	; 61
    46d8:	df 91       	pop	r29
    46da:	cf 91       	pop	r28
    46dc:	1f 91       	pop	r17
    46de:	0f 91       	pop	r16
    46e0:	ff 90       	pop	r15
    46e2:	ef 90       	pop	r14
    46e4:	df 90       	pop	r13
    46e6:	cf 90       	pop	r12
    46e8:	bf 90       	pop	r11
    46ea:	af 90       	pop	r10
    46ec:	9f 90       	pop	r9
    46ee:	8f 90       	pop	r8
    46f0:	7f 90       	pop	r7
    46f2:	6f 90       	pop	r6
    46f4:	5f 90       	pop	r5
    46f6:	4f 90       	pop	r4
    46f8:	3f 90       	pop	r3
    46fa:	2f 90       	pop	r2
    46fc:	08 95       	ret

000046fe <spi_nand_fill_oob>:
    46fe:	4f 92       	push	r4
    4700:	5f 92       	push	r5
    4702:	6f 92       	push	r6
    4704:	7f 92       	push	r7
    4706:	af 92       	push	r10
    4708:	bf 92       	push	r11
    470a:	cf 92       	push	r12
    470c:	df 92       	push	r13
    470e:	ef 92       	push	r14
    4710:	ff 92       	push	r15
    4712:	0f 93       	push	r16
    4714:	1f 93       	push	r17
    4716:	cf 93       	push	r28
    4718:	df 93       	push	r29
    471a:	5c 01       	movw	r10, r24
    471c:	6b 01       	movw	r12, r22
    471e:	7a 01       	movw	r14, r20
    4720:	e9 01       	movw	r28, r18
    4722:	fc 01       	movw	r30, r24
    4724:	41 8d       	ldd	r20, Z+25	; 0x19
    4726:	52 8d       	ldd	r21, Z+26	; 0x1a
    4728:	6f ef       	ldi	r22, 0xFF	; 255
    472a:	70 e0       	ldi	r23, 0x00	; 0
    472c:	81 85       	ldd	r24, Z+9	; 0x09
    472e:	92 85       	ldd	r25, Z+10	; 0x0a
    4730:	0e 94 fb 41 	call	0x83f6	; 0x83f6 <memset>
    4734:	88 81       	ld	r24, Y
    4736:	99 81       	ldd	r25, Y+1	; 0x01
    4738:	00 97       	sbiw	r24, 0x00	; 0
    473a:	11 f0       	breq	.+4      	; 0x4740 <spi_nand_fill_oob+0x42>
    473c:	02 97       	sbiw	r24, 0x02	; 2
    473e:	71 f4       	brne	.+28     	; 0x475c <spi_nand_fill_oob+0x5e>
    4740:	f5 01       	movw	r30, r10
    4742:	21 85       	ldd	r18, Z+9	; 0x09
    4744:	32 85       	ldd	r19, Z+10	; 0x0a
    4746:	8a 85       	ldd	r24, Y+10	; 0x0a
    4748:	9b 85       	ldd	r25, Y+11	; 0x0b
    474a:	ac 85       	ldd	r26, Y+12	; 0x0c
    474c:	bd 85       	ldd	r27, Y+13	; 0x0d
    474e:	82 0f       	add	r24, r18
    4750:	93 1f       	adc	r25, r19
    4752:	a7 01       	movw	r20, r14
    4754:	b6 01       	movw	r22, r12
    4756:	0e 94 f2 41 	call	0x83e4	; 0x83e4 <memcpy>
    475a:	64 c0       	rjmp	.+200    	; 0x4824 <spi_nand_fill_oob+0x126>
    475c:	f5 01       	movw	r30, r10
    475e:	02 a5       	ldd	r16, Z+42	; 0x2a
    4760:	13 a5       	ldd	r17, Z+43	; 0x2b
    4762:	08 5f       	subi	r16, 0xF8	; 248
    4764:	1e 4f       	sbci	r17, 0xFE	; 254
    4766:	4a 84       	ldd	r4, Y+10	; 0x0a
    4768:	5b 84       	ldd	r5, Y+11	; 0x0b
    476a:	6c 84       	ldd	r6, Y+12	; 0x0c
    476c:	7d 84       	ldd	r7, Y+13	; 0x0d
    476e:	c0 e0       	ldi	r28, 0x00	; 0
    4770:	d0 e0       	ldi	r29, 0x00	; 0
    4772:	4a c0       	rjmp	.+148    	; 0x4808 <spi_nand_fill_oob+0x10a>
    4774:	41 14       	cp	r4, r1
    4776:	51 04       	cpc	r5, r1
    4778:	61 04       	cpc	r6, r1
    477a:	71 04       	cpc	r7, r1
    477c:	31 f1       	breq	.+76     	; 0x47ca <spi_nand_fill_oob+0xcc>
    477e:	44 16       	cp	r4, r20
    4780:	55 06       	cpc	r5, r21
    4782:	66 06       	cpc	r6, r22
    4784:	77 06       	cpc	r7, r23
    4786:	28 f0       	brcs	.+10     	; 0x4792 <spi_nand_fill_oob+0x94>
    4788:	44 1a       	sub	r4, r20
    478a:	55 0a       	sbc	r5, r21
    478c:	66 0a       	sbc	r6, r22
    478e:	77 0a       	sbc	r7, r23
    4790:	37 c0       	rjmp	.+110    	; 0x4800 <spi_nand_fill_oob+0x102>
    4792:	f8 01       	movw	r30, r16
    4794:	80 81       	ld	r24, Z
    4796:	91 81       	ldd	r25, Z+1	; 0x01
    4798:	a2 81       	ldd	r26, Z+2	; 0x02
    479a:	b3 81       	ldd	r27, Z+3	; 0x03
    479c:	84 0d       	add	r24, r4
    479e:	95 1d       	adc	r25, r5
    47a0:	a6 1d       	adc	r26, r6
    47a2:	b7 1d       	adc	r27, r7
    47a4:	44 19       	sub	r20, r4
    47a6:	55 09       	sbc	r21, r5
    47a8:	66 09       	sbc	r22, r6
    47aa:	77 09       	sbc	r23, r7
    47ac:	27 01       	movw	r4, r14
    47ae:	61 2c       	mov	r6, r1
    47b0:	71 2c       	mov	r7, r1
    47b2:	44 15       	cp	r20, r4
    47b4:	55 05       	cpc	r21, r5
    47b6:	66 05       	cpc	r22, r6
    47b8:	77 05       	cpc	r23, r7
    47ba:	10 f4       	brcc	.+4      	; 0x47c0 <spi_nand_fill_oob+0xc2>
    47bc:	2a 01       	movw	r4, r20
    47be:	3b 01       	movw	r6, r22
    47c0:	e2 01       	movw	r28, r4
    47c2:	41 2c       	mov	r4, r1
    47c4:	51 2c       	mov	r5, r1
    47c6:	32 01       	movw	r6, r4
    47c8:	10 c0       	rjmp	.+32     	; 0x47ea <spi_nand_fill_oob+0xec>
    47ca:	c7 01       	movw	r24, r14
    47cc:	a0 e0       	ldi	r26, 0x00	; 0
    47ce:	b0 e0       	ldi	r27, 0x00	; 0
    47d0:	48 17       	cp	r20, r24
    47d2:	59 07       	cpc	r21, r25
    47d4:	6a 07       	cpc	r22, r26
    47d6:	7b 07       	cpc	r23, r27
    47d8:	10 f4       	brcc	.+4      	; 0x47de <spi_nand_fill_oob+0xe0>
    47da:	db 01       	movw	r26, r22
    47dc:	ca 01       	movw	r24, r20
    47de:	ec 01       	movw	r28, r24
    47e0:	f8 01       	movw	r30, r16
    47e2:	80 81       	ld	r24, Z
    47e4:	91 81       	ldd	r25, Z+1	; 0x01
    47e6:	a2 81       	ldd	r26, Z+2	; 0x02
    47e8:	b3 81       	ldd	r27, Z+3	; 0x03
    47ea:	f5 01       	movw	r30, r10
    47ec:	21 85       	ldd	r18, Z+9	; 0x09
    47ee:	32 85       	ldd	r19, Z+10	; 0x0a
    47f0:	82 0f       	add	r24, r18
    47f2:	93 1f       	adc	r25, r19
    47f4:	ae 01       	movw	r20, r28
    47f6:	b6 01       	movw	r22, r12
    47f8:	0e 94 f2 41 	call	0x83e4	; 0x83e4 <memcpy>
    47fc:	cc 0e       	add	r12, r28
    47fe:	dd 1e       	adc	r13, r29
    4800:	08 5f       	subi	r16, 0xF8	; 248
    4802:	1f 4f       	sbci	r17, 0xFF	; 255
    4804:	ec 1a       	sub	r14, r28
    4806:	fd 0a       	sbc	r15, r29
    4808:	f8 01       	movw	r30, r16
    480a:	44 81       	ldd	r20, Z+4	; 0x04
    480c:	55 81       	ldd	r21, Z+5	; 0x05
    480e:	66 81       	ldd	r22, Z+6	; 0x06
    4810:	77 81       	ldd	r23, Z+7	; 0x07
    4812:	41 15       	cp	r20, r1
    4814:	51 05       	cpc	r21, r1
    4816:	61 05       	cpc	r22, r1
    4818:	71 05       	cpc	r23, r1
    481a:	21 f0       	breq	.+8      	; 0x4824 <spi_nand_fill_oob+0x126>
    481c:	e1 14       	cp	r14, r1
    481e:	f1 04       	cpc	r15, r1
    4820:	09 f0       	breq	.+2      	; 0x4824 <spi_nand_fill_oob+0x126>
    4822:	a8 cf       	rjmp	.-176    	; 0x4774 <spi_nand_fill_oob+0x76>
    4824:	df 91       	pop	r29
    4826:	cf 91       	pop	r28
    4828:	1f 91       	pop	r17
    482a:	0f 91       	pop	r16
    482c:	ff 90       	pop	r15
    482e:	ef 90       	pop	r14
    4830:	df 90       	pop	r13
    4832:	cf 90       	pop	r12
    4834:	bf 90       	pop	r11
    4836:	af 90       	pop	r10
    4838:	7f 90       	pop	r7
    483a:	6f 90       	pop	r6
    483c:	5f 90       	pop	r5
    483e:	4f 90       	pop	r4
    4840:	08 95       	ret

00004842 <spi_nand_do_write_ops>:
    4842:	2f 92       	push	r2
    4844:	3f 92       	push	r3
    4846:	4f 92       	push	r4
    4848:	5f 92       	push	r5
    484a:	6f 92       	push	r6
    484c:	7f 92       	push	r7
    484e:	8f 92       	push	r8
    4850:	9f 92       	push	r9
    4852:	af 92       	push	r10
    4854:	bf 92       	push	r11
    4856:	cf 92       	push	r12
    4858:	df 92       	push	r13
    485a:	ef 92       	push	r14
    485c:	ff 92       	push	r15
    485e:	0f 93       	push	r16
    4860:	1f 93       	push	r17
    4862:	cf 93       	push	r28
    4864:	df 93       	push	r29
    4866:	cd b7       	in	r28, 0x3d	; 61
    4868:	de b7       	in	r29, 0x3e	; 62
    486a:	a3 97       	sbiw	r28, 0x23	; 35
    486c:	0f b6       	in	r0, 0x3f	; 63
    486e:	f8 94       	cli
    4870:	de bf       	out	0x3e, r29	; 62
    4872:	0f be       	out	0x3f, r0	; 63
    4874:	cd bf       	out	0x3d, r28	; 61
    4876:	9b a3       	std	Y+35, r25	; 0x23
    4878:	8a a3       	std	Y+34, r24	; 0x22
    487a:	09 83       	std	Y+1, r16	; 0x01
    487c:	1a 83       	std	Y+2, r17	; 0x02
    487e:	2b 83       	std	Y+3, r18	; 0x03
    4880:	3c 83       	std	Y+4, r19	; 0x04
    4882:	4d 83       	std	Y+5, r20	; 0x05
    4884:	5e 83       	std	Y+6, r21	; 0x06
    4886:	6f 83       	std	Y+7, r22	; 0x07
    4888:	78 87       	std	Y+8, r23	; 0x08
    488a:	27 01       	movw	r4, r14
    488c:	d7 01       	movw	r26, r14
    488e:	12 96       	adiw	r26, 0x02	; 2
    4890:	6d 90       	ld	r6, X+
    4892:	7c 90       	ld	r7, X
    4894:	13 97       	sbiw	r26, 0x03	; 3
    4896:	16 96       	adiw	r26, 0x06	; 6
    4898:	ed 91       	ld	r30, X+
    489a:	fc 91       	ld	r31, X
    489c:	17 97       	sbiw	r26, 0x07	; 7
    489e:	fa 87       	std	Y+10, r31	; 0x0a
    48a0:	e9 87       	std	Y+9, r30	; 0x09
    48a2:	0d 91       	ld	r16, X+
    48a4:	1c 91       	ld	r17, X
    48a6:	1a 8f       	std	Y+26, r17	; 0x1a
    48a8:	09 8f       	std	Y+25, r16	; 0x19
    48aa:	01 30       	cpi	r16, 0x01	; 1
    48ac:	11 05       	cpc	r17, r1
    48ae:	61 f4       	brne	.+24     	; 0x48c8 <spi_nand_do_write_ops+0x86>
    48b0:	dc 01       	movw	r26, r24
    48b2:	9a 96       	adiw	r26, 0x2a	; 42
    48b4:	ed 91       	ld	r30, X+
    48b6:	fc 91       	ld	r31, X
    48b8:	9b 97       	sbiw	r26, 0x2b	; 43
    48ba:	ec 5f       	subi	r30, 0xFC	; 252
    48bc:	fe 4f       	sbci	r31, 0xFE	; 254
    48be:	00 81       	ld	r16, Z
    48c0:	11 81       	ldd	r17, Z+1	; 0x01
    48c2:	1e 8b       	std	Y+22, r17	; 0x16
    48c4:	0d 8b       	std	Y+21, r16	; 0x15
    48c6:	08 c0       	rjmp	.+16     	; 0x48d8 <spi_nand_do_write_ops+0x96>
    48c8:	aa a1       	ldd	r26, Y+34	; 0x22
    48ca:	bb a1       	ldd	r27, Y+35	; 0x23
    48cc:	59 96       	adiw	r26, 0x19	; 25
    48ce:	0d 90       	ld	r0, X+
    48d0:	bc 91       	ld	r27, X
    48d2:	a0 2d       	mov	r26, r0
    48d4:	be 8b       	std	Y+22, r27	; 0x16
    48d6:	ad 8b       	std	Y+21, r26	; 0x15
    48d8:	7f 92       	push	r7
    48da:	6f 92       	push	r6
    48dc:	b8 85       	ldd	r27, Y+8	; 0x08
    48de:	bf 93       	push	r27
    48e0:	ef 81       	ldd	r30, Y+7	; 0x07
    48e2:	ef 93       	push	r30
    48e4:	fe 81       	ldd	r31, Y+6	; 0x06
    48e6:	ff 93       	push	r31
    48e8:	0d 81       	ldd	r16, Y+5	; 0x05
    48ea:	0f 93       	push	r16
    48ec:	1c 81       	ldd	r17, Y+4	; 0x04
    48ee:	1f 93       	push	r17
    48f0:	2b 81       	ldd	r18, Y+3	; 0x03
    48f2:	2f 93       	push	r18
    48f4:	3a 81       	ldd	r19, Y+2	; 0x02
    48f6:	3f 93       	push	r19
    48f8:	49 81       	ldd	r20, Y+1	; 0x01
    48fa:	4f 93       	push	r20
    48fc:	82 e7       	ldi	r24, 0x72	; 114
    48fe:	9f e0       	ldi	r25, 0x0F	; 15
    4900:	9f 93       	push	r25
    4902:	8f 93       	push	r24
    4904:	8c ea       	ldi	r24, 0xAC	; 172
    4906:	9c e0       	ldi	r25, 0x0C	; 12
    4908:	9f 93       	push	r25
    490a:	8f 93       	push	r24
    490c:	0e 94 63 42 	call	0x84c6	; 0x84c6 <printf>
    4910:	aa a1       	ldd	r26, Y+34	; 0x22
    4912:	bb a1       	ldd	r27, Y+35	; 0x23
    4914:	1b 96       	adiw	r26, 0x0b	; 11
    4916:	2c 91       	ld	r18, X
    4918:	1b 97       	sbiw	r26, 0x0b	; 11
    491a:	1c 96       	adiw	r26, 0x0c	; 12
    491c:	3c 91       	ld	r19, X
    491e:	1c 97       	sbiw	r26, 0x0c	; 12
    4920:	1d 96       	adiw	r26, 0x0d	; 13
    4922:	4c 91       	ld	r20, X
    4924:	1d 97       	sbiw	r26, 0x0d	; 13
    4926:	1e 96       	adiw	r26, 0x0e	; 14
    4928:	5c 91       	ld	r21, X
    492a:	1e 97       	sbiw	r26, 0x0e	; 14
    492c:	1f 96       	adiw	r26, 0x0f	; 15
    492e:	6c 91       	ld	r22, X
    4930:	1f 97       	sbiw	r26, 0x0f	; 15
    4932:	50 96       	adiw	r26, 0x10	; 16
    4934:	7c 91       	ld	r23, X
    4936:	50 97       	sbiw	r26, 0x10	; 16
    4938:	0f b6       	in	r0, 0x3f	; 63
    493a:	f8 94       	cli
    493c:	de bf       	out	0x3e, r29	; 62
    493e:	0f be       	out	0x3f, r0	; 63
    4940:	cd bf       	out	0x3d, r28	; 61
    4942:	51 96       	adiw	r26, 0x11	; 17
    4944:	8c 91       	ld	r24, X
    4946:	51 97       	sbiw	r26, 0x11	; 17
    4948:	52 96       	adiw	r26, 0x12	; 18
    494a:	9c 91       	ld	r25, X
    494c:	a9 80       	ldd	r10, Y+1	; 0x01
    494e:	ba 80       	ldd	r11, Y+2	; 0x02
    4950:	cb 80       	ldd	r12, Y+3	; 0x03
    4952:	dc 80       	ldd	r13, Y+4	; 0x04
    4954:	ed 80       	ldd	r14, Y+5	; 0x05
    4956:	fe 80       	ldd	r15, Y+6	; 0x06
    4958:	0f 81       	ldd	r16, Y+7	; 0x07
    495a:	18 85       	ldd	r17, Y+8	; 0x08
    495c:	0e 94 c0 40 	call	0x8180	; 0x8180 <__cmpdi2>
    4960:	09 f0       	breq	.+2      	; 0x4964 <spi_nand_do_write_ops+0x122>
    4962:	88 f4       	brcc	.+34     	; 0x4986 <spi_nand_do_write_ops+0x144>
    4964:	82 e7       	ldi	r24, 0x72	; 114
    4966:	9f e0       	ldi	r25, 0x0F	; 15
    4968:	9f 93       	push	r25
    496a:	8f 93       	push	r24
    496c:	8a ec       	ldi	r24, 0xCA	; 202
    496e:	9c e0       	ldi	r25, 0x0C	; 12
    4970:	9f 93       	push	r25
    4972:	8f 93       	push	r24
    4974:	0e 94 63 42 	call	0x84c6	; 0x84c6 <printf>
    4978:	0f 90       	pop	r0
    497a:	0f 90       	pop	r0
    497c:	0f 90       	pop	r0
    497e:	0f 90       	pop	r0
    4980:	8a ee       	ldi	r24, 0xEA	; 234
    4982:	9f ef       	ldi	r25, 0xFF	; 255
    4984:	f2 c1       	rjmp	.+996    	; 0x4d6a <spi_nand_do_write_ops+0x528>
    4986:	aa a1       	ldd	r26, Y+34	; 0x22
    4988:	bb a1       	ldd	r27, Y+35	; 0x23
    498a:	5d 96       	adiw	r26, 0x1d	; 29
    498c:	0c 91       	ld	r16, X
    498e:	5d 97       	sbiw	r26, 0x1d	; 29
    4990:	29 81       	ldd	r18, Y+1	; 0x01
    4992:	3a 81       	ldd	r19, Y+2	; 0x02
    4994:	4b 81       	ldd	r20, Y+3	; 0x03
    4996:	5c 81       	ldd	r21, Y+4	; 0x04
    4998:	6d 81       	ldd	r22, Y+5	; 0x05
    499a:	7e 81       	ldd	r23, Y+6	; 0x06
    499c:	8f 81       	ldd	r24, Y+7	; 0x07
    499e:	98 85       	ldd	r25, Y+8	; 0x08
    49a0:	0e 94 90 40 	call	0x8120	; 0x8120 <__ashrdi3>
    49a4:	22 2e       	mov	r2, r18
    49a6:	33 2e       	mov	r3, r19
    49a8:	5e 96       	adiw	r26, 0x1e	; 30
    49aa:	0d 91       	ld	r16, X+
    49ac:	1c 91       	ld	r17, X
    49ae:	5f 97       	sbiw	r26, 0x1f	; 31
    49b0:	e9 81       	ldd	r30, Y+1	; 0x01
    49b2:	fa 81       	ldd	r31, Y+2	; 0x02
    49b4:	e0 23       	and	r30, r16
    49b6:	f1 23       	and	r31, r17
    49b8:	fc 87       	std	Y+12, r31	; 0x0c
    49ba:	eb 87       	std	Y+11, r30	; 0x0b
    49bc:	5b 96       	adiw	r26, 0x1b	; 27
    49be:	0c 91       	ld	r16, X
    49c0:	29 81       	ldd	r18, Y+1	; 0x01
    49c2:	3a 81       	ldd	r19, Y+2	; 0x02
    49c4:	4b 81       	ldd	r20, Y+3	; 0x03
    49c6:	5c 81       	ldd	r21, Y+4	; 0x04
    49c8:	6d 81       	ldd	r22, Y+5	; 0x05
    49ca:	7e 81       	ldd	r23, Y+6	; 0x06
    49cc:	8f 81       	ldd	r24, Y+7	; 0x07
    49ce:	98 85       	ldd	r25, Y+8	; 0x08
    49d0:	0e 94 90 40 	call	0x8120	; 0x8120 <__ashrdi3>
    49d4:	92 2e       	mov	r9, r18
    49d6:	2f 8b       	std	Y+23, r18	; 0x17
    49d8:	38 8f       	std	Y+24, r19	; 0x18
    49da:	d2 01       	movw	r26, r4
    49dc:	15 96       	adiw	r26, 0x05	; 5
    49de:	1c 92       	st	X, r1
    49e0:	1e 92       	st	-X, r1
    49e2:	14 97       	sbiw	r26, 0x04	; 4
    49e4:	e9 85       	ldd	r30, Y+9	; 0x09
    49e6:	fa 85       	ldd	r31, Y+10	; 0x0a
    49e8:	1e 16       	cp	r1, r30
    49ea:	1f 06       	cpc	r1, r31
    49ec:	0c f0       	brlt	.+2      	; 0x49f0 <spi_nand_do_write_ops+0x1ae>
    49ee:	ca c0       	rjmp	.+404    	; 0x4b84 <spi_nand_do_write_ops+0x342>
    49f0:	1a 96       	adiw	r26, 0x0a	; 10
    49f2:	0d 91       	ld	r16, X+
    49f4:	1d 91       	ld	r17, X+
    49f6:	2d 91       	ld	r18, X+
    49f8:	3c 91       	ld	r19, X
    49fa:	1d 97       	sbiw	r26, 0x0d	; 13
    49fc:	0b 8f       	std	Y+27, r16	; 0x1b
    49fe:	1c 8f       	std	Y+28, r17	; 0x1c
    4a00:	2d 8f       	std	Y+29, r18	; 0x1d
    4a02:	3e 8f       	std	Y+30, r19	; 0x1e
    4a04:	ed 89       	ldd	r30, Y+21	; 0x15
    4a06:	fe 89       	ldd	r31, Y+22	; 0x16
    4a08:	cf 01       	movw	r24, r30
    4a0a:	ff 0f       	add	r31, r31
    4a0c:	aa 0b       	sbc	r26, r26
    4a0e:	bb 0b       	sbc	r27, r27
    4a10:	08 17       	cp	r16, r24
    4a12:	19 07       	cpc	r17, r25
    4a14:	2a 07       	cpc	r18, r26
    4a16:	3b 07       	cpc	r19, r27
    4a18:	88 f0       	brcs	.+34     	; 0x4a3c <spi_nand_do_write_ops+0x1fa>
    4a1a:	82 e7       	ldi	r24, 0x72	; 114
    4a1c:	9f e0       	ldi	r25, 0x0F	; 15
    4a1e:	9f 93       	push	r25
    4a20:	8f 93       	push	r24
    4a22:	85 ef       	ldi	r24, 0xF5	; 245
    4a24:	9c e0       	ldi	r25, 0x0C	; 12
    4a26:	9f 93       	push	r25
    4a28:	8f 93       	push	r24
    4a2a:	0e 94 63 42 	call	0x84c6	; 0x84c6 <printf>
    4a2e:	0f 90       	pop	r0
    4a30:	0f 90       	pop	r0
    4a32:	0f 90       	pop	r0
    4a34:	0f 90       	pop	r0
    4a36:	8a ee       	ldi	r24, 0xEA	; 234
    4a38:	9f ef       	ldi	r25, 0xFF	; 255
    4a3a:	97 c1       	rjmp	.+814    	; 0x4d6a <spi_nand_do_write_ops+0x528>
    4a3c:	09 85       	ldd	r16, Y+9	; 0x09
    4a3e:	1a 85       	ldd	r17, Y+10	; 0x0a
    4a40:	c8 01       	movw	r24, r16
    4a42:	11 0f       	add	r17, r17
    4a44:	aa 0b       	sbc	r26, r26
    4a46:	bb 0b       	sbc	r27, r27
    4a48:	2b 8d       	ldd	r18, Y+27	; 0x1b
    4a4a:	3c 8d       	ldd	r19, Y+28	; 0x1c
    4a4c:	4d 8d       	ldd	r20, Y+29	; 0x1d
    4a4e:	5e 8d       	ldd	r21, Y+30	; 0x1e
    4a50:	82 0f       	add	r24, r18
    4a52:	93 1f       	adc	r25, r19
    4a54:	a4 1f       	adc	r26, r20
    4a56:	b5 1f       	adc	r27, r21
    4a58:	8c 01       	movw	r16, r24
    4a5a:	9d 01       	movw	r18, r26
    4a5c:	40 e0       	ldi	r20, 0x00	; 0
    4a5e:	50 e0       	ldi	r21, 0x00	; 0
    4a60:	ba 01       	movw	r22, r20
    4a62:	8d 87       	std	Y+13, r24	; 0x0d
    4a64:	1e 87       	std	Y+14, r17	; 0x0e
    4a66:	2f 87       	std	Y+15, r18	; 0x0f
    4a68:	38 8b       	std	Y+16, r19	; 0x10
    4a6a:	49 8b       	std	Y+17, r20	; 0x11
    4a6c:	5a 8b       	std	Y+18, r21	; 0x12
    4a6e:	6b 8b       	std	Y+19, r22	; 0x13
    4a70:	7c 8b       	std	Y+20, r23	; 0x14
    4a72:	aa a1       	ldd	r26, Y+34	; 0x22
    4a74:	bb a1       	ldd	r27, Y+35	; 0x23
    4a76:	1b 96       	adiw	r26, 0x0b	; 11
    4a78:	2c 91       	ld	r18, X
    4a7a:	1b 97       	sbiw	r26, 0x0b	; 11
    4a7c:	1c 96       	adiw	r26, 0x0c	; 12
    4a7e:	3c 91       	ld	r19, X
    4a80:	1c 97       	sbiw	r26, 0x0c	; 12
    4a82:	1d 96       	adiw	r26, 0x0d	; 13
    4a84:	4c 91       	ld	r20, X
    4a86:	1d 97       	sbiw	r26, 0x0d	; 13
    4a88:	1e 96       	adiw	r26, 0x0e	; 14
    4a8a:	5c 91       	ld	r21, X
    4a8c:	1e 97       	sbiw	r26, 0x0e	; 14
    4a8e:	1f 96       	adiw	r26, 0x0f	; 15
    4a90:	6c 91       	ld	r22, X
    4a92:	1f 97       	sbiw	r26, 0x0f	; 15
    4a94:	50 96       	adiw	r26, 0x10	; 16
    4a96:	7c 91       	ld	r23, X
    4a98:	50 97       	sbiw	r26, 0x10	; 16
    4a9a:	5d 96       	adiw	r26, 0x1d	; 29
    4a9c:	fc 90       	ld	r15, X
    4a9e:	5d 97       	sbiw	r26, 0x1d	; 29
    4aa0:	51 96       	adiw	r26, 0x11	; 17
    4aa2:	8c 91       	ld	r24, X
    4aa4:	51 97       	sbiw	r26, 0x11	; 17
    4aa6:	52 96       	adiw	r26, 0x12	; 18
    4aa8:	9c 91       	ld	r25, X
    4aaa:	0f 2d       	mov	r16, r15
    4aac:	0e 94 92 40 	call	0x8124	; 0x8124 <__lshrdi3>
    4ab0:	2f 8f       	std	Y+31, r18	; 0x1f
    4ab2:	83 2e       	mov	r8, r19
    4ab4:	48 a3       	std	Y+32, r20	; 0x20
    4ab6:	59 a3       	std	Y+33, r21	; 0x21
    4ab8:	b6 2f       	mov	r27, r22
    4aba:	a7 2f       	mov	r26, r23
    4abc:	f8 2f       	mov	r31, r24
    4abe:	e9 2f       	mov	r30, r25
    4ac0:	29 81       	ldd	r18, Y+1	; 0x01
    4ac2:	3a 81       	ldd	r19, Y+2	; 0x02
    4ac4:	4b 81       	ldd	r20, Y+3	; 0x03
    4ac6:	5c 81       	ldd	r21, Y+4	; 0x04
    4ac8:	6d 81       	ldd	r22, Y+5	; 0x05
    4aca:	7e 81       	ldd	r23, Y+6	; 0x06
    4acc:	8f 81       	ldd	r24, Y+7	; 0x07
    4ace:	98 85       	ldd	r25, Y+8	; 0x08
    4ad0:	0e 94 90 40 	call	0x8120	; 0x8120 <__ashrdi3>
    4ad4:	a2 2e       	mov	r10, r18
    4ad6:	b3 2e       	mov	r11, r19
    4ad8:	c4 2e       	mov	r12, r20
    4ada:	d5 2e       	mov	r13, r21
    4adc:	e6 2e       	mov	r14, r22
    4ade:	f7 2e       	mov	r15, r23
    4ae0:	08 2f       	mov	r16, r24
    4ae2:	19 2f       	mov	r17, r25
    4ae4:	2f 8d       	ldd	r18, Y+31	; 0x1f
    4ae6:	38 2d       	mov	r19, r8
    4ae8:	48 a1       	ldd	r20, Y+32	; 0x20
    4aea:	59 a1       	ldd	r21, Y+33	; 0x21
    4aec:	6b 2f       	mov	r22, r27
    4aee:	7a 2f       	mov	r23, r26
    4af0:	8f 2f       	mov	r24, r31
    4af2:	9e 2f       	mov	r25, r30
    4af4:	0e 94 b7 40 	call	0x816e	; 0x816e <__subdi3>
    4af8:	a2 2e       	mov	r10, r18
    4afa:	b3 2e       	mov	r11, r19
    4afc:	c4 2e       	mov	r12, r20
    4afe:	d5 2e       	mov	r13, r21
    4b00:	e6 2e       	mov	r14, r22
    4b02:	f7 2e       	mov	r15, r23
    4b04:	08 2f       	mov	r16, r24
    4b06:	19 2f       	mov	r17, r25
    4b08:	2d 89       	ldd	r18, Y+21	; 0x15
    4b0a:	3e 89       	ldd	r19, Y+22	; 0x16
    4b0c:	93 2f       	mov	r25, r19
    4b0e:	99 0f       	add	r25, r25
    4b10:	99 0b       	sbc	r25, r25
    4b12:	49 2f       	mov	r20, r25
    4b14:	59 2f       	mov	r21, r25
    4b16:	69 2f       	mov	r22, r25
    4b18:	79 2f       	mov	r23, r25
    4b1a:	89 2f       	mov	r24, r25
    4b1c:	0e 94 3f 40 	call	0x807e	; 0x807e <__muldi3>
    4b20:	a2 2e       	mov	r10, r18
    4b22:	b3 2e       	mov	r11, r19
    4b24:	c4 2e       	mov	r12, r20
    4b26:	d5 2e       	mov	r13, r21
    4b28:	e6 2e       	mov	r14, r22
    4b2a:	f7 2e       	mov	r15, r23
    4b2c:	08 2f       	mov	r16, r24
    4b2e:	19 2f       	mov	r17, r25
    4b30:	2d 85       	ldd	r18, Y+13	; 0x0d
    4b32:	3e 85       	ldd	r19, Y+14	; 0x0e
    4b34:	4f 85       	ldd	r20, Y+15	; 0x0f
    4b36:	58 89       	ldd	r21, Y+16	; 0x10
    4b38:	60 e0       	ldi	r22, 0x00	; 0
    4b3a:	70 e0       	ldi	r23, 0x00	; 0
    4b3c:	80 e0       	ldi	r24, 0x00	; 0
    4b3e:	90 e0       	ldi	r25, 0x00	; 0
    4b40:	0e 94 c0 40 	call	0x8180	; 0x8180 <__cmpdi2>
    4b44:	91 f0       	breq	.+36     	; 0x4b6a <spi_nand_do_write_ops+0x328>
    4b46:	88 f0       	brcs	.+34     	; 0x4b6a <spi_nand_do_write_ops+0x328>
    4b48:	82 e7       	ldi	r24, 0x72	; 114
    4b4a:	9f e0       	ldi	r25, 0x0F	; 15
    4b4c:	9f 93       	push	r25
    4b4e:	8f 93       	push	r24
    4b50:	8a ec       	ldi	r24, 0xCA	; 202
    4b52:	9c e0       	ldi	r25, 0x0C	; 12
    4b54:	9f 93       	push	r25
    4b56:	8f 93       	push	r24
    4b58:	0e 94 63 42 	call	0x84c6	; 0x84c6 <printf>
    4b5c:	0f 90       	pop	r0
    4b5e:	0f 90       	pop	r0
    4b60:	0f 90       	pop	r0
    4b62:	0f 90       	pop	r0
    4b64:	8a ee       	ldi	r24, 0xEA	; 234
    4b66:	9f ef       	ldi	r25, 0xFF	; 255
    4b68:	00 c1       	rjmp	.+512    	; 0x4d6a <spi_nand_do_write_ops+0x528>
    4b6a:	ed 89       	ldd	r30, Y+21	; 0x15
    4b6c:	fe 89       	ldd	r31, Y+22	; 0x16
    4b6e:	0b 8d       	ldd	r16, Y+27	; 0x1b
    4b70:	1c 8d       	ldd	r17, Y+28	; 0x1c
    4b72:	e0 1b       	sub	r30, r16
    4b74:	f1 0b       	sbc	r31, r17
    4b76:	fe 8b       	std	Y+22, r31	; 0x16
    4b78:	ed 8b       	std	Y+21, r30	; 0x15
    4b7a:	d2 01       	movw	r26, r4
    4b7c:	19 96       	adiw	r26, 0x09	; 9
    4b7e:	1c 92       	st	X, r1
    4b80:	1e 92       	st	-X, r1
    4b82:	18 97       	sbiw	r26, 0x08	; 8
    4b84:	ea a1       	ldd	r30, Y+34	; 0x22
    4b86:	fb a1       	ldd	r31, Y+35	; 0x23
    4b88:	80 a1       	ldd	r24, Z+32	; 0x20
    4b8a:	81 ff       	sbrs	r24, 1
    4b8c:	04 c0       	rjmp	.+8      	; 0x4b96 <spi_nand_do_write_ops+0x354>
    4b8e:	69 2d       	mov	r22, r9
    4b90:	cf 01       	movw	r24, r30
    4b92:	0e 94 78 19 	call	0x32f0	; 0x32f0 <spi_nand_lun_select>
    4b96:	09 8d       	ldd	r16, Y+25	; 0x19
    4b98:	1a 8d       	ldd	r17, Y+26	; 0x1a
    4b9a:	02 30       	cpi	r16, 0x02	; 2
    4b9c:	11 05       	cpc	r17, r1
    4b9e:	21 f4       	brne	.+8      	; 0x4ba8 <spi_nand_do_write_ops+0x366>
    4ba0:	8a a1       	ldd	r24, Y+34	; 0x22
    4ba2:	9b a1       	ldd	r25, Y+35	; 0x23
    4ba4:	0e 94 e7 19 	call	0x33ce	; 0x33ce <spi_nand_disable_ecc>
    4ba8:	21 e0       	ldi	r18, 0x01	; 1
    4baa:	30 e0       	ldi	r19, 0x00	; 0
    4bac:	3e 87       	std	Y+14, r19	; 0x0e
    4bae:	2d 87       	std	Y+13, r18	; 0x0d
    4bb0:	02 c0       	rjmp	.+4      	; 0x4bb6 <spi_nand_do_write_ops+0x374>
    4bb2:	1c 86       	std	Y+12, r1	; 0x0c
    4bb4:	1b 86       	std	Y+11, r1	; 0x0b
    4bb6:	d2 01       	movw	r26, r4
    4bb8:	50 96       	adiw	r26, 0x10	; 16
    4bba:	6d 91       	ld	r22, X+
    4bbc:	7c 91       	ld	r23, X
    4bbe:	51 97       	sbiw	r26, 0x11	; 17
    4bc0:	61 15       	cp	r22, r1
    4bc2:	71 05       	cpc	r23, r1
    4bc4:	09 f4       	brne	.+2      	; 0x4bc8 <spi_nand_do_write_ops+0x386>
    4bc6:	50 c0       	rjmp	.+160    	; 0x4c68 <spi_nand_do_write_ops+0x426>
    4bc8:	89 84       	ldd	r8, Y+9	; 0x09
    4bca:	9a 84       	ldd	r9, Y+10	; 0x0a
    4bcc:	ed 89       	ldd	r30, Y+21	; 0x15
    4bce:	fe 89       	ldd	r31, Y+22	; 0x16
    4bd0:	e8 15       	cp	r30, r8
    4bd2:	f9 05       	cpc	r31, r9
    4bd4:	0c f4       	brge	.+2      	; 0x4bd8 <spi_nand_do_write_ops+0x396>
    4bd6:	4f 01       	movw	r8, r30
    4bd8:	d2 01       	movw	r26, r4
    4bda:	18 96       	adiw	r26, 0x08	; 8
    4bdc:	8d 91       	ld	r24, X+
    4bde:	9c 91       	ld	r25, X
    4be0:	19 97       	sbiw	r26, 0x09	; 9
    4be2:	68 0f       	add	r22, r24
    4be4:	79 1f       	adc	r23, r25
    4be6:	92 01       	movw	r18, r4
    4be8:	a4 01       	movw	r20, r8
    4bea:	8a a1       	ldd	r24, Y+34	; 0x22
    4bec:	9b a1       	ldd	r25, Y+35	; 0x23
    4bee:	87 dd       	rcall	.-1266   	; 0x46fe <spi_nand_fill_oob>
    4bf0:	ea a1       	ldd	r30, Y+34	; 0x22
    4bf2:	fb a1       	ldd	r31, Y+35	; 0x23
    4bf4:	c1 84       	ldd	r12, Z+9	; 0x09
    4bf6:	d2 84       	ldd	r13, Z+10	; 0x0a
    4bf8:	e1 8c       	ldd	r14, Z+25	; 0x19
    4bfa:	f2 8c       	ldd	r15, Z+26	; 0x1a
    4bfc:	07 89       	ldd	r16, Z+23	; 0x17
    4bfe:	10 8d       	ldd	r17, Z+24	; 0x18
    4c00:	20 e0       	ldi	r18, 0x00	; 0
    4c02:	30 e0       	ldi	r19, 0x00	; 0
    4c04:	aa 24       	eor	r10, r10
    4c06:	a3 94       	inc	r10
    4c08:	b1 2c       	mov	r11, r1
    4c0a:	a1 01       	movw	r20, r2
    4c0c:	03 2c       	mov	r0, r3
    4c0e:	00 0c       	add	r0, r0
    4c10:	66 0b       	sbc	r22, r22
    4c12:	77 0b       	sbc	r23, r23
    4c14:	cf 01       	movw	r24, r30
    4c16:	0e 94 4c 18 	call	0x3098	; 0x3098 <spi_nand_program_data_to_cache>
    4c1a:	8c 01       	movw	r16, r24
    4c1c:	00 97       	sbiw	r24, 0x00	; 0
    4c1e:	89 f0       	breq	.+34     	; 0x4c42 <spi_nand_do_write_ops+0x400>
    4c20:	3f 92       	push	r3
    4c22:	2f 92       	push	r2
    4c24:	1f 93       	push	r17
    4c26:	8f 93       	push	r24
    4c28:	8d e1       	ldi	r24, 0x1D	; 29
    4c2a:	9d e0       	ldi	r25, 0x0D	; 13
    4c2c:	9f 93       	push	r25
    4c2e:	8f 93       	push	r24
    4c30:	0e 94 63 42 	call	0x84c6	; 0x84c6 <printf>
    4c34:	0f 90       	pop	r0
    4c36:	0f 90       	pop	r0
    4c38:	0f 90       	pop	r0
    4c3a:	0f 90       	pop	r0
    4c3c:	0f 90       	pop	r0
    4c3e:	0f 90       	pop	r0
    4c40:	86 c0       	rjmp	.+268    	; 0x4d4e <spi_nand_do_write_ops+0x50c>
    4c42:	d2 01       	movw	r26, r4
    4c44:	18 96       	adiw	r26, 0x08	; 8
    4c46:	8d 91       	ld	r24, X+
    4c48:	9c 91       	ld	r25, X
    4c4a:	19 97       	sbiw	r26, 0x09	; 9
    4c4c:	88 0d       	add	r24, r8
    4c4e:	99 1d       	adc	r25, r9
    4c50:	19 96       	adiw	r26, 0x09	; 9
    4c52:	9c 93       	st	X, r25
    4c54:	8e 93       	st	-X, r24
    4c56:	18 97       	sbiw	r26, 0x08	; 8
    4c58:	e9 85       	ldd	r30, Y+9	; 0x09
    4c5a:	fa 85       	ldd	r31, Y+10	; 0x0a
    4c5c:	e8 19       	sub	r30, r8
    4c5e:	f9 09       	sbc	r31, r9
    4c60:	fa 87       	std	Y+10, r31	; 0x0a
    4c62:	e9 87       	std	Y+9, r30	; 0x09
    4c64:	1e 86       	std	Y+14, r1	; 0x0e
    4c66:	1d 86       	std	Y+13, r1	; 0x0d
    4c68:	aa a1       	ldd	r26, Y+34	; 0x22
    4c6a:	bb a1       	ldd	r27, Y+35	; 0x23
    4c6c:	57 96       	adiw	r26, 0x17	; 23
    4c6e:	8d 91       	ld	r24, X+
    4c70:	9c 91       	ld	r25, X
    4c72:	58 97       	sbiw	r26, 0x18	; 24
    4c74:	eb 85       	ldd	r30, Y+11	; 0x0b
    4c76:	fc 85       	ldd	r31, Y+12	; 0x0c
    4c78:	8e 1b       	sub	r24, r30
    4c7a:	9f 0b       	sbc	r25, r31
    4c7c:	43 01       	movw	r8, r6
    4c7e:	86 15       	cp	r24, r6
    4c80:	97 05       	cpc	r25, r7
    4c82:	08 f4       	brcc	.+2      	; 0x4c86 <spi_nand_do_write_ops+0x444>
    4c84:	4c 01       	movw	r8, r24
    4c86:	d2 01       	movw	r26, r4
    4c88:	1e 96       	adiw	r26, 0x0e	; 14
    4c8a:	ed 90       	ld	r14, X+
    4c8c:	fc 90       	ld	r15, X
    4c8e:	1f 97       	sbiw	r26, 0x0f	; 15
    4c90:	14 96       	adiw	r26, 0x04	; 4
    4c92:	8d 91       	ld	r24, X+
    4c94:	9c 91       	ld	r25, X
    4c96:	15 97       	sbiw	r26, 0x05	; 5
    4c98:	e8 0e       	add	r14, r24
    4c9a:	f9 1e       	adc	r15, r25
    4c9c:	eb 85       	ldd	r30, Y+11	; 0x0b
    4c9e:	fc 85       	ldd	r31, Y+12	; 0x0c
    4ca0:	8f 01       	movw	r16, r30
    4ca2:	ff 0f       	add	r31, r31
    4ca4:	22 0b       	sbc	r18, r18
    4ca6:	33 0b       	sbc	r19, r19
    4ca8:	ad 84       	ldd	r10, Y+13	; 0x0d
    4caa:	be 84       	ldd	r11, Y+14	; 0x0e
    4cac:	64 01       	movw	r12, r8
    4cae:	a1 01       	movw	r20, r2
    4cb0:	03 2c       	mov	r0, r3
    4cb2:	00 0c       	add	r0, r0
    4cb4:	66 0b       	sbc	r22, r22
    4cb6:	77 0b       	sbc	r23, r23
    4cb8:	8a a1       	ldd	r24, Y+34	; 0x22
    4cba:	9b a1       	ldd	r25, Y+35	; 0x23
    4cbc:	0e 94 86 1b 	call	0x370c	; 0x370c <spi_nand_do_write_page>
    4cc0:	8c 01       	movw	r16, r24
    4cc2:	00 97       	sbiw	r24, 0x00	; 0
    4cc4:	89 f0       	breq	.+34     	; 0x4ce8 <spi_nand_do_write_ops+0x4a6>
    4cc6:	3f 92       	push	r3
    4cc8:	2f 92       	push	r2
    4cca:	1f 93       	push	r17
    4ccc:	8f 93       	push	r24
    4cce:	84 e4       	ldi	r24, 0x44	; 68
    4cd0:	9d e0       	ldi	r25, 0x0D	; 13
    4cd2:	9f 93       	push	r25
    4cd4:	8f 93       	push	r24
    4cd6:	0e 94 63 42 	call	0x84c6	; 0x84c6 <printf>
    4cda:	0f 90       	pop	r0
    4cdc:	0f 90       	pop	r0
    4cde:	0f 90       	pop	r0
    4ce0:	0f 90       	pop	r0
    4ce2:	0f 90       	pop	r0
    4ce4:	0f 90       	pop	r0
    4ce6:	33 c0       	rjmp	.+102    	; 0x4d4e <spi_nand_do_write_ops+0x50c>
    4ce8:	d2 01       	movw	r26, r4
    4cea:	14 96       	adiw	r26, 0x04	; 4
    4cec:	8d 91       	ld	r24, X+
    4cee:	9c 91       	ld	r25, X
    4cf0:	15 97       	sbiw	r26, 0x05	; 5
    4cf2:	88 0d       	add	r24, r8
    4cf4:	99 1d       	adc	r25, r9
    4cf6:	15 96       	adiw	r26, 0x05	; 5
    4cf8:	9c 93       	st	X, r25
    4cfa:	8e 93       	st	-X, r24
    4cfc:	14 97       	sbiw	r26, 0x04	; 4
    4cfe:	68 18       	sub	r6, r8
    4d00:	79 08       	sbc	r7, r9
    4d02:	29 f1       	breq	.+74     	; 0x4d4e <spi_nand_do_write_ops+0x50c>
    4d04:	bf ef       	ldi	r27, 0xFF	; 255
    4d06:	2b 1a       	sub	r2, r27
    4d08:	3b 0a       	sbc	r3, r27
    4d0a:	ea a1       	ldd	r30, Y+34	; 0x22
    4d0c:	fb a1       	ldd	r31, Y+35	; 0x23
    4d0e:	23 8d       	ldd	r18, Z+27	; 0x1b
    4d10:	85 8d       	ldd	r24, Z+29	; 0x1d
    4d12:	30 e0       	ldi	r19, 0x00	; 0
    4d14:	28 1b       	sub	r18, r24
    4d16:	31 09       	sbc	r19, r1
    4d18:	81 e0       	ldi	r24, 0x01	; 1
    4d1a:	90 e0       	ldi	r25, 0x00	; 0
    4d1c:	02 c0       	rjmp	.+4      	; 0x4d22 <spi_nand_do_write_ops+0x4e0>
    4d1e:	88 0f       	add	r24, r24
    4d20:	99 1f       	adc	r25, r25
    4d22:	2a 95       	dec	r18
    4d24:	e2 f7       	brpl	.-8      	; 0x4d1e <spi_nand_do_write_ops+0x4dc>
    4d26:	01 97       	sbiw	r24, 0x01	; 1
    4d28:	82 21       	and	r24, r2
    4d2a:	93 21       	and	r25, r3
    4d2c:	89 2b       	or	r24, r25
    4d2e:	09 f0       	breq	.+2      	; 0x4d32 <spi_nand_do_write_ops+0x4f0>
    4d30:	40 cf       	rjmp	.-384    	; 0x4bb2 <spi_nand_do_write_ops+0x370>
    4d32:	80 a1       	ldd	r24, Z+32	; 0x20
    4d34:	81 ff       	sbrs	r24, 1
    4d36:	3d cf       	rjmp	.-390    	; 0x4bb2 <spi_nand_do_write_ops+0x370>
    4d38:	0f 89       	ldd	r16, Y+23	; 0x17
    4d3a:	18 8d       	ldd	r17, Y+24	; 0x18
    4d3c:	0f 5f       	subi	r16, 0xFF	; 255
    4d3e:	1f 4f       	sbci	r17, 0xFF	; 255
    4d40:	18 8f       	std	Y+24, r17	; 0x18
    4d42:	0f 8b       	std	Y+23, r16	; 0x17
    4d44:	6f 89       	ldd	r22, Y+23	; 0x17
    4d46:	cf 01       	movw	r24, r30
    4d48:	0e 94 78 19 	call	0x32f0	; 0x32f0 <spi_nand_lun_select>
    4d4c:	32 cf       	rjmp	.-412    	; 0x4bb2 <spi_nand_do_write_ops+0x370>
    4d4e:	49 8d       	ldd	r20, Y+25	; 0x19
    4d50:	5a 8d       	ldd	r21, Y+26	; 0x1a
    4d52:	42 30       	cpi	r20, 0x02	; 2
    4d54:	51 05       	cpc	r21, r1
    4d56:	39 f4       	brne	.+14     	; 0x4d66 <spi_nand_do_write_ops+0x524>
    4d58:	8a a1       	ldd	r24, Y+34	; 0x22
    4d5a:	9b a1       	ldd	r25, Y+35	; 0x23
    4d5c:	0e 94 07 1a 	call	0x340e	; 0x340e <spi_nand_enable_ecc>
    4d60:	80 2f       	mov	r24, r16
    4d62:	91 2f       	mov	r25, r17
    4d64:	02 c0       	rjmp	.+4      	; 0x4d6a <spi_nand_do_write_ops+0x528>
    4d66:	80 2f       	mov	r24, r16
    4d68:	91 2f       	mov	r25, r17
    4d6a:	a3 96       	adiw	r28, 0x23	; 35
    4d6c:	0f b6       	in	r0, 0x3f	; 63
    4d6e:	f8 94       	cli
    4d70:	de bf       	out	0x3e, r29	; 62
    4d72:	0f be       	out	0x3f, r0	; 63
    4d74:	cd bf       	out	0x3d, r28	; 61
    4d76:	df 91       	pop	r29
    4d78:	cf 91       	pop	r28
    4d7a:	1f 91       	pop	r17
    4d7c:	0f 91       	pop	r16
    4d7e:	ff 90       	pop	r15
    4d80:	ef 90       	pop	r14
    4d82:	df 90       	pop	r13
    4d84:	cf 90       	pop	r12
    4d86:	bf 90       	pop	r11
    4d88:	af 90       	pop	r10
    4d8a:	9f 90       	pop	r9
    4d8c:	8f 90       	pop	r8
    4d8e:	7f 90       	pop	r7
    4d90:	6f 90       	pop	r6
    4d92:	5f 90       	pop	r5
    4d94:	4f 90       	pop	r4
    4d96:	3f 90       	pop	r3
    4d98:	2f 90       	pop	r2
    4d9a:	08 95       	ret

00004d9c <spi_nand_reset>:
    4d9c:	cf 93       	push	r28
    4d9e:	df 93       	push	r29
    4da0:	cd b7       	in	r28, 0x3d	; 61
    4da2:	de b7       	in	r29, 0x3e	; 62
    4da4:	62 97       	sbiw	r28, 0x12	; 18
    4da6:	0f b6       	in	r0, 0x3f	; 63
    4da8:	f8 94       	cli
    4daa:	de bf       	out	0x3e, r29	; 62
    4dac:	0f be       	out	0x3f, r0	; 63
    4dae:	cd bf       	out	0x3d, r28	; 61
    4db0:	be 01       	movw	r22, r28
    4db2:	6f 5f       	subi	r22, 0xFF	; 255
    4db4:	7f 4f       	sbci	r23, 0xFF	; 255
    4db6:	22 e1       	ldi	r18, 0x12	; 18
    4db8:	fb 01       	movw	r30, r22
    4dba:	11 92       	st	Z+, r1
    4dbc:	2a 95       	dec	r18
    4dbe:	e9 f7       	brne	.-6      	; 0x4dba <spi_nand_reset+0x1e>
    4dc0:	2f ef       	ldi	r18, 0xFF	; 255
    4dc2:	29 83       	std	Y+1, r18	; 0x01
    4dc4:	93 d2       	rcall	.+1318   	; 0x52ec <spi_nand_issue_cmd>
    4dc6:	99 23       	and	r25, r25
    4dc8:	24 f4       	brge	.+8      	; 0x4dd2 <spi_nand_reset+0x36>
    4dca:	82 e8       	ldi	r24, 0x82	; 130
    4dcc:	9d e0       	ldi	r25, 0x0D	; 13
    4dce:	0e 94 a2 42 	call	0x8544	; 0x8544 <puts>
    4dd2:	80 ed       	ldi	r24, 0xD0	; 208
    4dd4:	97 e0       	ldi	r25, 0x07	; 7
    4dd6:	0e 94 a3 33 	call	0x6746	; 0x6746 <spi_MT_flash_udelay>
    4dda:	80 e0       	ldi	r24, 0x00	; 0
    4ddc:	90 e0       	ldi	r25, 0x00	; 0
    4dde:	62 96       	adiw	r28, 0x12	; 18
    4de0:	0f b6       	in	r0, 0x3f	; 63
    4de2:	f8 94       	cli
    4de4:	de bf       	out	0x3e, r29	; 62
    4de6:	0f be       	out	0x3f, r0	; 63
    4de8:	cd bf       	out	0x3d, r28	; 61
    4dea:	df 91       	pop	r29
    4dec:	cf 91       	pop	r28
    4dee:	08 95       	ret

00004df0 <spi_nand_detect_onfi>:
    4df0:	4f 92       	push	r4
    4df2:	5f 92       	push	r5
    4df4:	6f 92       	push	r6
    4df6:	7f 92       	push	r7
    4df8:	8f 92       	push	r8
    4dfa:	9f 92       	push	r9
    4dfc:	af 92       	push	r10
    4dfe:	bf 92       	push	r11
    4e00:	cf 92       	push	r12
    4e02:	df 92       	push	r13
    4e04:	ef 92       	push	r14
    4e06:	ff 92       	push	r15
    4e08:	0f 93       	push	r16
    4e0a:	1f 93       	push	r17
    4e0c:	cf 93       	push	r28
    4e0e:	df 93       	push	r29
    4e10:	ec 01       	movw	r28, r24
    4e12:	80 e0       	ldi	r24, 0x00	; 0
    4e14:	93 e0       	ldi	r25, 0x03	; 3
    4e16:	0e 94 44 33 	call	0x6688	; 0x6688 <spi_MT_flash_allocate_mem>
    4e1a:	5c 01       	movw	r10, r24
    4e1c:	61 e0       	ldi	r22, 0x01	; 1
    4e1e:	ce 01       	movw	r24, r28
    4e20:	0e 94 27 1a 	call	0x344e	; 0x344e <spi_nand_change_mode>
    4e24:	41 e0       	ldi	r20, 0x01	; 1
    4e26:	50 e0       	ldi	r21, 0x00	; 0
    4e28:	60 e0       	ldi	r22, 0x00	; 0
    4e2a:	70 e0       	ldi	r23, 0x00	; 0
    4e2c:	ce 01       	movw	r24, r28
    4e2e:	0e 94 7f 17 	call	0x2efe	; 0x2efe <spi_nand_read_page_to_cache>
    4e32:	60 e0       	ldi	r22, 0x00	; 0
    4e34:	70 e0       	ldi	r23, 0x00	; 0
    4e36:	ce 01       	movw	r24, r28
    4e38:	0e 94 aa 1a 	call	0x3554	; 0x3554 <spi_nand_wait>
    4e3c:	9e 80       	ldd	r9, Y+6	; 0x06
    4e3e:	83 e0       	ldi	r24, 0x03	; 3
    4e40:	8e 83       	std	Y+6, r24	; 0x06
    4e42:	65 01       	movw	r12, r10
    4e44:	0f 2e       	mov	r0, r31
    4e46:	e1 2c       	mov	r14, r1
    4e48:	f3 e0       	ldi	r31, 0x03	; 3
    4e4a:	ff 2e       	mov	r15, r31
    4e4c:	f0 2d       	mov	r31, r0
    4e4e:	00 e0       	ldi	r16, 0x00	; 0
    4e50:	10 e0       	ldi	r17, 0x00	; 0
    4e52:	98 01       	movw	r18, r16
    4e54:	41 e0       	ldi	r20, 0x01	; 1
    4e56:	50 e0       	ldi	r21, 0x00	; 0
    4e58:	60 e0       	ldi	r22, 0x00	; 0
    4e5a:	70 e0       	ldi	r23, 0x00	; 0
    4e5c:	ce 01       	movw	r24, r28
    4e5e:	0e 94 e6 17 	call	0x2fcc	; 0x2fcc <spi_nand_read_from_cache>
    4e62:	9e 82       	std	Y+6, r9	; 0x06
    4e64:	60 e0       	ldi	r22, 0x00	; 0
    4e66:	ce 01       	movw	r24, r28
    4e68:	0e 94 27 1a 	call	0x344e	; 0x344e <spi_nand_change_mode>
    4e6c:	1f c0       	rjmp	.+62     	; 0x4eac <spi_nand_detect_onfi+0xbc>
    4e6e:	f5 01       	movw	r30, r10
    4e70:	80 81       	ld	r24, Z
    4e72:	8f 34       	cpi	r24, 0x4F	; 79
    4e74:	c1 f4       	brne	.+48     	; 0x4ea6 <spi_nand_detect_onfi+0xb6>
    4e76:	81 81       	ldd	r24, Z+1	; 0x01
    4e78:	8e 34       	cpi	r24, 0x4E	; 78
    4e7a:	a9 f4       	brne	.+42     	; 0x4ea6 <spi_nand_detect_onfi+0xb6>
    4e7c:	82 81       	ldd	r24, Z+2	; 0x02
    4e7e:	86 34       	cpi	r24, 0x46	; 70
    4e80:	91 f4       	brne	.+36     	; 0x4ea6 <spi_nand_detect_onfi+0xb6>
    4e82:	83 81       	ldd	r24, Z+3	; 0x03
    4e84:	89 34       	cpi	r24, 0x49	; 73
    4e86:	79 f4       	brne	.+30     	; 0x4ea6 <spi_nand_detect_onfi+0xb6>
    4e88:	4e ef       	ldi	r20, 0xFE	; 254
    4e8a:	50 e0       	ldi	r21, 0x00	; 0
    4e8c:	b5 01       	movw	r22, r10
    4e8e:	8e e4       	ldi	r24, 0x4E	; 78
    4e90:	9f e4       	ldi	r25, 0x4F	; 79
    4e92:	0e 94 0c 17 	call	0x2e18	; 0x2e18 <onfi_crc16>
    4e96:	f5 01       	movw	r30, r10
    4e98:	e2 50       	subi	r30, 0x02	; 2
    4e9a:	ff 4f       	sbci	r31, 0xFF	; 255
    4e9c:	20 81       	ld	r18, Z
    4e9e:	31 81       	ldd	r19, Z+1	; 0x01
    4ea0:	82 17       	cp	r24, r18
    4ea2:	93 07       	cpc	r25, r19
    4ea4:	31 f0       	breq	.+12     	; 0x4eb2 <spi_nand_detect_onfi+0xc2>
    4ea6:	0f 5f       	subi	r16, 0xFF	; 255
    4ea8:	1f 4f       	sbci	r17, 0xFF	; 255
    4eaa:	b3 94       	inc	r11
    4eac:	03 30       	cpi	r16, 0x03	; 3
    4eae:	11 05       	cpc	r17, r1
    4eb0:	f4 f2       	brlt	.-68     	; 0x4e6e <spi_nand_detect_onfi+0x7e>
    4eb2:	03 30       	cpi	r16, 0x03	; 3
    4eb4:	11 05       	cpc	r17, r1
    4eb6:	39 f4       	brne	.+14     	; 0x4ec6 <spi_nand_detect_onfi+0xd6>
    4eb8:	89 e9       	ldi	r24, 0x99	; 153
    4eba:	9d e0       	ldi	r25, 0x0D	; 13
    4ebc:	0e 94 a2 42 	call	0x8544	; 0x8544 <puts>
    4ec0:	80 e0       	ldi	r24, 0x00	; 0
    4ec2:	90 e0       	ldi	r25, 0x00	; 0
    4ec4:	82 c0       	rjmp	.+260    	; 0x4fca <spi_nand_detect_onfi+0x1da>
    4ec6:	80 e0       	ldi	r24, 0x00	; 0
    4ec8:	f5 01       	movw	r30, r10
    4eca:	8e 01       	movw	r16, r28
    4ecc:	04 5d       	subi	r16, 0xD4	; 212
    4ece:	1f 4f       	sbci	r17, 0xFF	; 255
    4ed0:	d8 01       	movw	r26, r16
    4ed2:	01 90       	ld	r0, Z+
    4ed4:	0d 92       	st	X+, r0
    4ed6:	8a 95       	dec	r24
    4ed8:	e1 f7       	brne	.-8      	; 0x4ed2 <spi_nand_detect_onfi+0xe2>
    4eda:	6c e0       	ldi	r22, 0x0C	; 12
    4edc:	70 e0       	ldi	r23, 0x00	; 0
    4ede:	c8 01       	movw	r24, r16
    4ee0:	80 96       	adiw	r24, 0x20	; 32
    4ee2:	0e 94 35 17 	call	0x2e6a	; 0x2e6a <sanitize_string>
    4ee6:	04 5d       	subi	r16, 0xD4	; 212
    4ee8:	1f 4f       	sbci	r17, 0xFF	; 255
    4eea:	64 e1       	ldi	r22, 0x14	; 20
    4eec:	70 e0       	ldi	r23, 0x00	; 0
    4eee:	c8 01       	movw	r24, r16
    4ef0:	0e 94 35 17 	call	0x2e6a	; 0x2e6a <sanitize_string>
    4ef4:	19 83       	std	Y+1, r17	; 0x01
    4ef6:	08 83       	st	Y, r16
    4ef8:	fe 01       	movw	r30, r28
    4efa:	e4 58       	subi	r30, 0x84	; 132
    4efc:	ff 4f       	sbci	r31, 0xFF	; 255
    4efe:	c0 80       	ld	r12, Z
    4f00:	d1 80       	ldd	r13, Z+1	; 0x01
    4f02:	e2 80       	ldd	r14, Z+2	; 0x02
    4f04:	f3 80       	ldd	r15, Z+3	; 0x03
    4f06:	3c 96       	adiw	r30, 0x0c	; 12
    4f08:	60 81       	ld	r22, Z
    4f0a:	71 81       	ldd	r23, Z+1	; 0x01
    4f0c:	82 81       	ldd	r24, Z+2	; 0x02
    4f0e:	93 81       	ldd	r25, Z+3	; 0x03
    4f10:	a7 01       	movw	r20, r14
    4f12:	96 01       	movw	r18, r12
    4f14:	0e 94 f5 3f 	call	0x7fea	; 0x7fea <__mulsi3>
    4f18:	2b 01       	movw	r4, r22
    4f1a:	3c 01       	movw	r6, r24
    4f1c:	34 96       	adiw	r30, 0x04	; 4
    4f1e:	60 81       	ld	r22, Z
    4f20:	71 81       	ldd	r23, Z+1	; 0x01
    4f22:	82 81       	ldd	r24, Z+2	; 0x02
    4f24:	93 81       	ldd	r25, Z+3	; 0x03
    4f26:	a3 01       	movw	r20, r6
    4f28:	92 01       	movw	r18, r4
    4f2a:	0e 94 f5 3f 	call	0x7fea	; 0x7fea <__mulsi3>
    4f2e:	4b 01       	movw	r8, r22
    4f30:	5c 01       	movw	r10, r24
    4f32:	34 96       	adiw	r30, 0x04	; 4
    4f34:	a0 81       	ld	r26, Z
    4f36:	b0 e0       	ldi	r27, 0x00	; 0
    4f38:	9b 01       	movw	r18, r22
    4f3a:	ac 01       	movw	r20, r24
    4f3c:	0e 94 35 40 	call	0x806a	; 0x806a <__muluhisi3>
    4f40:	8b 01       	movw	r16, r22
    4f42:	9c 01       	movw	r18, r24
    4f44:	0b 87       	std	Y+11, r16	; 0x0b
    4f46:	1c 87       	std	Y+12, r17	; 0x0c
    4f48:	2d 87       	std	Y+13, r18	; 0x0d
    4f4a:	3e 87       	std	Y+14, r19	; 0x0e
    4f4c:	1f 86       	std	Y+15, r1	; 0x0f
    4f4e:	18 8a       	std	Y+16, r1	; 0x10
    4f50:	19 8a       	std	Y+17, r1	; 0x11
    4f52:	1a 8a       	std	Y+18, r1	; 0x12
    4f54:	4b 8a       	std	Y+19, r4	; 0x13
    4f56:	5c 8a       	std	Y+20, r5	; 0x14
    4f58:	6d 8a       	std	Y+21, r6	; 0x15
    4f5a:	7e 8a       	std	Y+22, r7	; 0x16
    4f5c:	d8 8e       	std	Y+24, r13	; 0x18
    4f5e:	cf 8a       	std	Y+23, r12	; 0x17
    4f60:	70 97       	sbiw	r30, 0x10	; 16
    4f62:	80 81       	ld	r24, Z
    4f64:	91 81       	ldd	r25, Z+1	; 0x01
    4f66:	9a 8f       	std	Y+26, r25	; 0x1a
    4f68:	89 8f       	std	Y+25, r24	; 0x19
    4f6a:	c5 01       	movw	r24, r10
    4f6c:	b4 01       	movw	r22, r8
    4f6e:	0e 94 dd 15 	call	0x2bba	; 0x2bba <ilog2>
    4f72:	8b 8f       	std	Y+27, r24	; 0x1b
    4f74:	fe 01       	movw	r30, r28
    4f76:	ee 52       	subi	r30, 0x2E	; 46
    4f78:	ff 4f       	sbci	r31, 0xFF	; 255
    4f7a:	80 81       	ld	r24, Z
    4f7c:	88 23       	and	r24, r24
    4f7e:	49 f0       	breq	.+18     	; 0x4f92 <spi_nand_detect_onfi+0x1a2>
    4f80:	88 a1       	ldd	r24, Y+32	; 0x20
    4f82:	99 a1       	ldd	r25, Y+33	; 0x21
    4f84:	aa a1       	ldd	r26, Y+34	; 0x22
    4f86:	bb a1       	ldd	r27, Y+35	; 0x23
    4f88:	81 60       	ori	r24, 0x01	; 1
    4f8a:	88 a3       	std	Y+32, r24	; 0x20
    4f8c:	99 a3       	std	Y+33, r25	; 0x21
    4f8e:	aa a3       	std	Y+34, r26	; 0x22
    4f90:	bb a3       	std	Y+35, r27	; 0x23
    4f92:	fe 01       	movw	r30, r28
    4f94:	eb 5d       	subi	r30, 0xDB	; 219
    4f96:	fe 4f       	sbci	r31, 0xFE	; 254
    4f98:	80 81       	ld	r24, Z
    4f9a:	88 23       	and	r24, r24
    4f9c:	49 f0       	breq	.+18     	; 0x4fb0 <spi_nand_detect_onfi+0x1c0>
    4f9e:	88 a1       	ldd	r24, Y+32	; 0x20
    4fa0:	99 a1       	ldd	r25, Y+33	; 0x21
    4fa2:	aa a1       	ldd	r26, Y+34	; 0x22
    4fa4:	bb a1       	ldd	r27, Y+35	; 0x23
    4fa6:	82 60       	ori	r24, 0x02	; 2
    4fa8:	88 a3       	std	Y+32, r24	; 0x20
    4faa:	99 a3       	std	Y+33, r25	; 0x21
    4fac:	aa a3       	std	Y+34, r26	; 0x22
    4fae:	bb a3       	std	Y+35, r27	; 0x23
    4fb0:	fe 01       	movw	r30, r28
    4fb2:	ec 5d       	subi	r30, 0xDC	; 220
    4fb4:	fe 4f       	sbci	r31, 0xFE	; 254
    4fb6:	80 81       	ld	r24, Z
    4fb8:	90 e0       	ldi	r25, 0x00	; 0
    4fba:	a0 e0       	ldi	r26, 0x00	; 0
    4fbc:	b0 e0       	ldi	r27, 0x00	; 0
    4fbe:	8c a3       	std	Y+36, r24	; 0x24
    4fc0:	9d a3       	std	Y+37, r25	; 0x25
    4fc2:	ae a3       	std	Y+38, r26	; 0x26
    4fc4:	bf a3       	std	Y+39, r27	; 0x27
    4fc6:	81 e0       	ldi	r24, 0x01	; 1
    4fc8:	90 e0       	ldi	r25, 0x00	; 0
    4fca:	df 91       	pop	r29
    4fcc:	cf 91       	pop	r28
    4fce:	1f 91       	pop	r17
    4fd0:	0f 91       	pop	r16
    4fd2:	ff 90       	pop	r15
    4fd4:	ef 90       	pop	r14
    4fd6:	df 90       	pop	r13
    4fd8:	cf 90       	pop	r12
    4fda:	bf 90       	pop	r11
    4fdc:	af 90       	pop	r10
    4fde:	9f 90       	pop	r9
    4fe0:	8f 90       	pop	r8
    4fe2:	7f 90       	pop	r7
    4fe4:	6f 90       	pop	r6
    4fe6:	5f 90       	pop	r5
    4fe8:	4f 90       	pop	r4
    4fea:	08 95       	ret

00004fec <spi_nand_lock_block>:
    4fec:	cf 93       	push	r28
    4fee:	df 93       	push	r29
    4ff0:	1f 92       	push	r1
    4ff2:	cd b7       	in	r28, 0x3d	; 61
    4ff4:	de b7       	in	r29, 0x3e	; 62
    4ff6:	69 83       	std	Y+1, r22	; 0x01
    4ff8:	ae 01       	movw	r20, r28
    4ffa:	4f 5f       	subi	r20, 0xFF	; 255
    4ffc:	5f 4f       	sbci	r21, 0xFF	; 255
    4ffe:	60 ea       	ldi	r22, 0xA0	; 160
    5000:	0e 94 29 19 	call	0x3252	; 0x3252 <spi_nand_write_reg>
    5004:	0f 90       	pop	r0
    5006:	df 91       	pop	r29
    5008:	cf 91       	pop	r28
    500a:	08 95       	ret

0000500c <spi_nand_read>:
    500c:	9f 92       	push	r9
    500e:	af 92       	push	r10
    5010:	bf 92       	push	r11
    5012:	cf 92       	push	r12
    5014:	df 92       	push	r13
    5016:	ef 92       	push	r14
    5018:	ff 92       	push	r15
    501a:	0f 93       	push	r16
    501c:	1f 93       	push	r17
    501e:	cf 93       	push	r28
    5020:	df 93       	push	r29
    5022:	cd b7       	in	r28, 0x3d	; 61
    5024:	de b7       	in	r29, 0x3e	; 62
    5026:	62 97       	sbiw	r28, 0x12	; 18
    5028:	0f b6       	in	r0, 0x3f	; 63
    502a:	f8 94       	cli
    502c:	de bf       	out	0x3e, r29	; 62
    502e:	0f be       	out	0x3f, r0	; 63
    5030:	cd bf       	out	0x3d, r28	; 61
    5032:	fe 01       	movw	r30, r28
    5034:	31 96       	adiw	r30, 0x01	; 1
    5036:	0f 2e       	mov	r0, r31
    5038:	f2 e1       	ldi	r31, 0x12	; 18
    503a:	9f 2e       	mov	r9, r31
    503c:	f0 2d       	mov	r31, r0
    503e:	df 01       	movw	r26, r30
    5040:	1d 92       	st	X+, r1
    5042:	9a 94       	dec	r9
    5044:	e9 f7       	brne	.-6      	; 0x5040 <spi_nand_read+0x34>
    5046:	fc 82       	std	Y+4, r15	; 0x04
    5048:	eb 82       	std	Y+3, r14	; 0x03
    504a:	b8 8a       	std	Y+16, r11	; 0x10
    504c:	af 86       	std	Y+15, r10	; 0x0f
    504e:	7f 01       	movw	r14, r30
    5050:	f9 d8       	rcall	.-3598   	; 0x4244 <spi_nand_do_read_ops>
    5052:	2d 81       	ldd	r18, Y+5	; 0x05
    5054:	3e 81       	ldd	r19, Y+6	; 0x06
    5056:	f6 01       	movw	r30, r12
    5058:	31 83       	std	Z+1, r19	; 0x01
    505a:	20 83       	st	Z, r18
    505c:	62 96       	adiw	r28, 0x12	; 18
    505e:	0f b6       	in	r0, 0x3f	; 63
    5060:	f8 94       	cli
    5062:	de bf       	out	0x3e, r29	; 62
    5064:	0f be       	out	0x3f, r0	; 63
    5066:	cd bf       	out	0x3d, r28	; 61
    5068:	df 91       	pop	r29
    506a:	cf 91       	pop	r28
    506c:	1f 91       	pop	r17
    506e:	0f 91       	pop	r16
    5070:	ff 90       	pop	r15
    5072:	ef 90       	pop	r14
    5074:	df 90       	pop	r13
    5076:	cf 90       	pop	r12
    5078:	bf 90       	pop	r11
    507a:	af 90       	pop	r10
    507c:	9f 90       	pop	r9
    507e:	08 95       	ret

00005080 <spi_nand_write>:
    5080:	9f 92       	push	r9
    5082:	af 92       	push	r10
    5084:	bf 92       	push	r11
    5086:	cf 92       	push	r12
    5088:	df 92       	push	r13
    508a:	ef 92       	push	r14
    508c:	ff 92       	push	r15
    508e:	0f 93       	push	r16
    5090:	1f 93       	push	r17
    5092:	cf 93       	push	r28
    5094:	df 93       	push	r29
    5096:	cd b7       	in	r28, 0x3d	; 61
    5098:	de b7       	in	r29, 0x3e	; 62
    509a:	62 97       	sbiw	r28, 0x12	; 18
    509c:	0f b6       	in	r0, 0x3f	; 63
    509e:	f8 94       	cli
    50a0:	de bf       	out	0x3e, r29	; 62
    50a2:	0f be       	out	0x3f, r0	; 63
    50a4:	cd bf       	out	0x3d, r28	; 61
    50a6:	fe 01       	movw	r30, r28
    50a8:	31 96       	adiw	r30, 0x01	; 1
    50aa:	0f 2e       	mov	r0, r31
    50ac:	f2 e1       	ldi	r31, 0x12	; 18
    50ae:	9f 2e       	mov	r9, r31
    50b0:	f0 2d       	mov	r31, r0
    50b2:	df 01       	movw	r26, r30
    50b4:	1d 92       	st	X+, r1
    50b6:	9a 94       	dec	r9
    50b8:	e9 f7       	brne	.-6      	; 0x50b4 <spi_nand_write+0x34>
    50ba:	fc 82       	std	Y+4, r15	; 0x04
    50bc:	eb 82       	std	Y+3, r14	; 0x03
    50be:	b8 8a       	std	Y+16, r11	; 0x10
    50c0:	af 86       	std	Y+15, r10	; 0x0f
    50c2:	7f 01       	movw	r14, r30
    50c4:	be db       	rcall	.-2180   	; 0x4842 <spi_nand_do_write_ops>
    50c6:	2d 81       	ldd	r18, Y+5	; 0x05
    50c8:	3e 81       	ldd	r19, Y+6	; 0x06
    50ca:	f6 01       	movw	r30, r12
    50cc:	31 83       	std	Z+1, r19	; 0x01
    50ce:	20 83       	st	Z, r18
    50d0:	62 96       	adiw	r28, 0x12	; 18
    50d2:	0f b6       	in	r0, 0x3f	; 63
    50d4:	f8 94       	cli
    50d6:	de bf       	out	0x3e, r29	; 62
    50d8:	0f be       	out	0x3f, r0	; 63
    50da:	cd bf       	out	0x3d, r28	; 61
    50dc:	df 91       	pop	r29
    50de:	cf 91       	pop	r28
    50e0:	1f 91       	pop	r17
    50e2:	0f 91       	pop	r16
    50e4:	ff 90       	pop	r15
    50e6:	ef 90       	pop	r14
    50e8:	df 90       	pop	r13
    50ea:	cf 90       	pop	r12
    50ec:	bf 90       	pop	r11
    50ee:	af 90       	pop	r10
    50f0:	9f 90       	pop	r9
    50f2:	08 95       	ret

000050f4 <spi_nand_init>:
 * spi_nand_init - [Interface] Init SPI-NAND device driver
 * @spi: spi device structure
 * @chip_ptr: pointer point to spi nand device structure pointer
 */
int spi_nand_init(struct spi_slave *spi, struct spi_nand_chip **chip_ptr)
{
    50f4:	cf 92       	push	r12
    50f6:	df 92       	push	r13
    50f8:	ef 92       	push	r14
    50fa:	ff 92       	push	r15
    50fc:	0f 93       	push	r16
    50fe:	1f 93       	push	r17
    5100:	cf 93       	push	r28
    5102:	df 93       	push	r29
    5104:	1f 92       	push	r1
    5106:	1f 92       	push	r1
    5108:	cd b7       	in	r28, 0x3d	; 61
    510a:	de b7       	in	r29, 0x3e	; 62
    510c:	6c 01       	movw	r12, r24
    510e:	7b 01       	movw	r14, r22
	u8 id[SPINAND_MAX_ID_LEN] = {0};
    5110:	1a 82       	std	Y+2, r1	; 0x02
    5112:	19 82       	std	Y+1, r1	; 0x01
	return;
}
/* MUST IMPLEMENT */
static inline void *malloc(size_t size)
{
	return spi_MT_flash_allocate_mem(size);
    5114:	8c e2       	ldi	r24, 0x2C	; 44
    5116:	91 e0       	ldi	r25, 0x01	; 1
    5118:	0e 94 44 33 	call	0x6688	; 0x6688 <spi_MT_flash_allocate_mem>
    511c:	8c 01       	movw	r16, r24
	struct spi_nand_chip *chip = NULL;

	chip = malloc(sizeof(struct spi_nand_chip));
	if (!chip)
    511e:	89 2b       	or	r24, r25
    5120:	09 f4       	brne	.+2      	; 0x5124 <spi_nand_init+0x30>
    5122:	a4 c0       	rjmp	.+328    	; 0x526c <spi_nand_init+0x178>
		return -ENOMEM;

	memset(chip, 0, sizeof(struct spi_nand_chip));
    5124:	8c e2       	ldi	r24, 0x2C	; 44
    5126:	91 e0       	ldi	r25, 0x01	; 1
    5128:	f8 01       	movw	r30, r16
    512a:	9c 01       	movw	r18, r24
    512c:	11 92       	st	Z+, r1
    512e:	21 50       	subi	r18, 0x01	; 1
    5130:	30 40       	sbci	r19, 0x00	; 0
    5132:	e1 f7       	brne	.-8      	; 0x512c <spi_nand_init+0x38>
	chip->spi = spi;
    5134:	f8 01       	movw	r30, r16
    5136:	d3 82       	std	Z+3, r13	; 0x03
    5138:	c2 82       	std	Z+2, r12	; 0x02

	spi_nand_set_rd_wr_op(chip);
    513a:	c8 01       	movw	r24, r16
    513c:	0e 94 61 17 	call	0x2ec2	; 0x2ec2 <spi_nand_set_rd_wr_op>
	spi_nand_reset(chip);
    5140:	c8 01       	movw	r24, r16
    5142:	2c de       	rcall	.-936    	; 0x4d9c <spi_nand_reset>
	spi_nand_read_id(chip, id);
    5144:	be 01       	movw	r22, r28
    5146:	6f 5f       	subi	r22, 0xFF	; 255
    5148:	7f 4f       	sbci	r23, 0xFF	; 255
    514a:	c8 01       	movw	r24, r16
    514c:	0e 94 fc 18 	call	0x31f8	; 0x31f8 <spi_nand_read_id>

	if (spi_nand_scan_id_table(chip, id))
    5150:	be 01       	movw	r22, r28
    5152:	6f 5f       	subi	r22, 0xFF	; 255
    5154:	7f 4f       	sbci	r23, 0xFF	; 255
    5156:	c8 01       	movw	r24, r16
    5158:	0e 94 f8 15 	call	0x2bf0	; 0x2bf0 <spi_nand_scan_id_table>
    515c:	89 2b       	or	r24, r25
    515e:	b9 f4       	brne	.+46     	; 0x518e <spi_nand_init+0x9a>
		goto ident_done;
	spi_nand_info("SPI-NAND type mfr_id: %x, dev_id: %x is not in id table.\n",
    5160:	9a 81       	ldd	r25, Y+2	; 0x02
    5162:	89 81       	ldd	r24, Y+1	; 0x01
    5164:	1f 92       	push	r1
    5166:	9f 93       	push	r25
    5168:	1f 92       	push	r1
    516a:	8f 93       	push	r24
    516c:	84 ee       	ldi	r24, 0xE4	; 228
    516e:	9e e0       	ldi	r25, 0x0E	; 14
    5170:	9f 93       	push	r25
    5172:	8f 93       	push	r24
    5174:	0e 94 63 42 	call	0x84c6	; 0x84c6 <printf>
				id[0], id[1]);

	if (spi_nand_detect_onfi(chip))
    5178:	c8 01       	movw	r24, r16
    517a:	3a de       	rcall	.-908    	; 0x4df0 <spi_nand_detect_onfi>
    517c:	0f 90       	pop	r0
    517e:	0f 90       	pop	r0
    5180:	0f 90       	pop	r0
    5182:	0f 90       	pop	r0
    5184:	0f 90       	pop	r0
    5186:	0f 90       	pop	r0
    5188:	89 2b       	or	r24, r25
    518a:	09 f4       	brne	.+2      	; 0x518e <spi_nand_init+0x9a>
    518c:	72 c0       	rjmp	.+228    	; 0x5272 <spi_nand_init+0x17e>
		goto ident_done;

	return -ENODEV;

ident_done:
	spi_nand_info("SPI-NAND: %s is found.\n", chip->name);
    518e:	f8 01       	movw	r30, r16
    5190:	81 81       	ldd	r24, Z+1	; 0x01
    5192:	8f 93       	push	r24
    5194:	80 81       	ld	r24, Z
    5196:	8f 93       	push	r24
    5198:	8e e1       	ldi	r24, 0x1E	; 30
    519a:	9f e0       	ldi	r25, 0x0F	; 15
    519c:	9f 93       	push	r25
    519e:	8f 93       	push	r24
    51a0:	0e 94 63 42 	call	0x84c6	; 0x84c6 <printf>

	chip->mfr_id = id[0];
    51a4:	89 81       	ldd	r24, Y+1	; 0x01
    51a6:	f8 01       	movw	r30, r16
    51a8:	84 83       	std	Z+4, r24	; 0x04
	chip->dev_id = id[1];
    51aa:	8a 81       	ldd	r24, Y+2	; 0x02
    51ac:	85 83       	std	Z+5, r24	; 0x05
	chip->block_shift = ilog2(chip->block_size);
    51ae:	63 89       	ldd	r22, Z+19	; 0x13
    51b0:	74 89       	ldd	r23, Z+20	; 0x14
    51b2:	85 89       	ldd	r24, Z+21	; 0x15
    51b4:	96 89       	ldd	r25, Z+22	; 0x16
    51b6:	0e 94 dd 15 	call	0x2bba	; 0x2bba <ilog2>
    51ba:	f8 01       	movw	r30, r16
    51bc:	84 8f       	std	Z+28, r24	; 0x1c
	chip->page_shift = ilog2(chip->page_size);
    51be:	c7 88       	ldd	r12, Z+23	; 0x17
    51c0:	d0 8c       	ldd	r13, Z+24	; 0x18
    51c2:	b6 01       	movw	r22, r12
    51c4:	80 e0       	ldi	r24, 0x00	; 0
    51c6:	90 e0       	ldi	r25, 0x00	; 0
    51c8:	0e 94 dd 15 	call	0x2bba	; 0x2bba <ilog2>
    51cc:	f8 01       	movw	r30, r16
    51ce:	85 8f       	std	Z+29, r24	; 0x1d
	chip->page_mask = chip->page_size - 1;
    51d0:	f1 e0       	ldi	r31, 0x01	; 1
    51d2:	cf 1a       	sub	r12, r31
    51d4:	d1 08       	sbc	r13, r1
    51d6:	f8 01       	movw	r30, r16
    51d8:	d7 8e       	std	Z+31, r13	; 0x1f
    51da:	c6 8e       	std	Z+30, r12	; 0x1e
	chip->lun = 0;
    51dc:	11 a6       	std	Z+41, r1	; 0x29
    51de:	81 8d       	ldd	r24, Z+25	; 0x19
    51e0:	92 8d       	ldd	r25, Z+26	; 0x1a
    51e2:	0e 94 44 33 	call	0x6688	; 0x6688 <spi_MT_flash_allocate_mem>

	chip->oobbuf = malloc(chip->oob_size);
    51e6:	f8 01       	movw	r30, r16
    51e8:	92 87       	std	Z+10, r25	; 0x0a
    51ea:	81 87       	std	Z+9, r24	; 0x09
	if (!chip->oobbuf)
    51ec:	0f 90       	pop	r0
    51ee:	0f 90       	pop	r0
    51f0:	0f 90       	pop	r0
    51f2:	0f 90       	pop	r0
    51f4:	89 2b       	or	r24, r25
    51f6:	09 f4       	brne	.+2      	; 0x51fa <spi_nand_init+0x106>
    51f8:	3f c0       	rjmp	.+126    	; 0x5278 <spi_nand_init+0x184>
		return -ENOMEM;

	if (chip->oob_size == 64)
    51fa:	81 8d       	ldd	r24, Z+25	; 0x19
    51fc:	92 8d       	ldd	r25, Z+26	; 0x1a
    51fe:	80 34       	cpi	r24, 0x40	; 64
    5200:	91 05       	cpc	r25, r1
    5202:	29 f4       	brne	.+10     	; 0x520e <spi_nand_init+0x11a>
		chip->ecclayout = &micron_ecc_layout_64;
    5204:	89 e0       	ldi	r24, 0x09	; 9
    5206:	94 e0       	ldi	r25, 0x04	; 4
    5208:	93 a7       	std	Z+43, r25	; 0x2b
    520a:	82 a7       	std	Z+42, r24	; 0x2a
    520c:	08 c0       	rjmp	.+16     	; 0x521e <spi_nand_init+0x12a>
	else if (chip->oob_size == 128)
    520e:	80 38       	cpi	r24, 0x80	; 128
    5210:	91 05       	cpc	r25, r1
    5212:	29 f4       	brne	.+10     	; 0x521e <spi_nand_init+0x12a>
		chip->ecclayout = &micron_ecc_layout_128;
    5214:	81 e0       	ldi	r24, 0x01	; 1
    5216:	92 e0       	ldi	r25, 0x02	; 2
    5218:	f8 01       	movw	r30, r16
    521a:	93 a7       	std	Z+43, r25	; 0x2b
    521c:	82 a7       	std	Z+42, r24	; 0x2a

	chip->refresh_threshold = (chip->ecc_strength * 3 + 3) / 4;
    521e:	f8 01       	movw	r30, r16
    5220:	84 a1       	ldd	r24, Z+36	; 0x24
    5222:	95 a1       	ldd	r25, Z+37	; 0x25
    5224:	a6 a1       	ldd	r26, Z+38	; 0x26
    5226:	b7 a1       	ldd	r27, Z+39	; 0x27
    5228:	01 96       	adiw	r24, 0x01	; 1
    522a:	a1 1d       	adc	r26, r1
    522c:	b1 1d       	adc	r27, r1
    522e:	ac 01       	movw	r20, r24
    5230:	bd 01       	movw	r22, r26
    5232:	44 0f       	add	r20, r20
    5234:	55 1f       	adc	r21, r21
    5236:	66 1f       	adc	r22, r22
    5238:	77 1f       	adc	r23, r23
    523a:	84 0f       	add	r24, r20
    523c:	95 1f       	adc	r25, r21
    523e:	a6 1f       	adc	r26, r22
    5240:	b7 1f       	adc	r27, r23
    5242:	b6 95       	lsr	r27
    5244:	a7 95       	ror	r26
    5246:	97 95       	ror	r25
    5248:	87 95       	ror	r24
    524a:	b6 95       	lsr	r27
    524c:	a7 95       	ror	r26
    524e:	97 95       	ror	r25
    5250:	87 95       	ror	r24
    5252:	80 a7       	std	Z+40, r24	; 0x28

	spi_nand_lock_block(chip, BL_ALL_UNLOCKED);
    5254:	60 e0       	ldi	r22, 0x00	; 0
    5256:	c8 01       	movw	r24, r16
    5258:	c9 de       	rcall	.-622    	; 0x4fec <spi_nand_lock_block>
	spi_nand_enable_ecc(chip);
    525a:	c8 01       	movw	r24, r16
    525c:	0e 94 07 1a 	call	0x340e	; 0x340e <spi_nand_enable_ecc>
	*chip_ptr = chip;
    5260:	f7 01       	movw	r30, r14
    5262:	11 83       	std	Z+1, r17	; 0x01
    5264:	00 83       	st	Z, r16

	return 0;
    5266:	80 e0       	ldi	r24, 0x00	; 0
    5268:	90 e0       	ldi	r25, 0x00	; 0
    526a:	08 c0       	rjmp	.+16     	; 0x527c <spi_nand_init+0x188>
	u8 id[SPINAND_MAX_ID_LEN] = {0};
	struct spi_nand_chip *chip = NULL;

	chip = malloc(sizeof(struct spi_nand_chip));
	if (!chip)
		return -ENOMEM;
    526c:	84 ef       	ldi	r24, 0xF4	; 244
    526e:	9f ef       	ldi	r25, 0xFF	; 255
    5270:	05 c0       	rjmp	.+10     	; 0x527c <spi_nand_init+0x188>
				id[0], id[1]);

	if (spi_nand_detect_onfi(chip))
		goto ident_done;

	return -ENODEV;
    5272:	8d ee       	ldi	r24, 0xED	; 237
    5274:	9f ef       	ldi	r25, 0xFF	; 255
    5276:	02 c0       	rjmp	.+4      	; 0x527c <spi_nand_init+0x188>
	chip->page_mask = chip->page_size - 1;
	chip->lun = 0;

	chip->oobbuf = malloc(chip->oob_size);
	if (!chip->oobbuf)
		return -ENOMEM;
    5278:	84 ef       	ldi	r24, 0xF4	; 244
    527a:	9f ef       	ldi	r25, 0xFF	; 255
	spi_nand_lock_block(chip, BL_ALL_UNLOCKED);
	spi_nand_enable_ecc(chip);
	*chip_ptr = chip;

	return 0;
}
    527c:	0f 90       	pop	r0
    527e:	0f 90       	pop	r0
    5280:	df 91       	pop	r29
    5282:	cf 91       	pop	r28
    5284:	1f 91       	pop	r17
    5286:	0f 91       	pop	r16
    5288:	ff 90       	pop	r15
    528a:	ef 90       	pop	r14
    528c:	df 90       	pop	r13
    528e:	cf 90       	pop	r12
    5290:	08 95       	ret

00005292 <spi_nand_lookup_cmd_cfg_table>:
	{SPINAND_CMD_END},
};

static struct spi_nand_cmd_cfg *spi_nand_lookup_cmd_cfg_table(u8 opcode,
				struct spi_nand_cmd_cfg *table)
{
    5292:	fb 01       	movw	r30, r22
	struct spi_nand_cmd_cfg *index = table;

	for (; index->opcode != SPINAND_CMD_END; index++) {
    5294:	03 c0       	rjmp	.+6      	; 0x529c <spi_nand_lookup_cmd_cfg_table+0xa>
		if (index->opcode == opcode)
    5296:	98 17       	cp	r25, r24
    5298:	99 f0       	breq	.+38     	; 0x52c0 <spi_nand_lookup_cmd_cfg_table+0x2e>
static struct spi_nand_cmd_cfg *spi_nand_lookup_cmd_cfg_table(u8 opcode,
				struct spi_nand_cmd_cfg *table)
{
	struct spi_nand_cmd_cfg *index = table;

	for (; index->opcode != SPINAND_CMD_END; index++) {
    529a:	35 96       	adiw	r30, 0x05	; 5
    529c:	90 81       	ld	r25, Z
    529e:	91 11       	cpse	r25, r1
    52a0:	fa cf       	rjmp	.-12     	; 0x5296 <spi_nand_lookup_cmd_cfg_table+0x4>
		if (index->opcode == opcode)
			return index;
	}

	printf("Invalid spi nand opcode %x\n", opcode);
    52a2:	1f 92       	push	r1
    52a4:	8f 93       	push	r24
    52a6:	81 eb       	ldi	r24, 0xB1	; 177
    52a8:	9f e0       	ldi	r25, 0x0F	; 15
    52aa:	9f 93       	push	r25
    52ac:	8f 93       	push	r24
    52ae:	0e 94 63 42 	call	0x84c6	; 0x84c6 <printf>

	return NULL;
    52b2:	0f 90       	pop	r0
    52b4:	0f 90       	pop	r0
    52b6:	0f 90       	pop	r0
    52b8:	0f 90       	pop	r0
    52ba:	80 e0       	ldi	r24, 0x00	; 0
    52bc:	90 e0       	ldi	r25, 0x00	; 0
    52be:	08 95       	ret
{
	struct spi_nand_cmd_cfg *index = table;

	for (; index->opcode != SPINAND_CMD_END; index++) {
		if (index->opcode == opcode)
			return index;
    52c0:	8e 2f       	mov	r24, r30
    52c2:	9f 2f       	mov	r25, r31
	}

	printf("Invalid spi nand opcode %x\n", opcode);

	return NULL;
}
    52c4:	08 95       	ret

000052c6 <spi_nand_xfer>:


static int spi_nand_xfer(struct spi_slave *slave, unsigned int bitlen, u8 bits,
			const void *dout, void *din, unsigned long flags)
{
    52c6:	cf 92       	push	r12
    52c8:	df 92       	push	r13
    52ca:	ef 92       	push	r14
    52cc:	ff 92       	push	r15
    52ce:	0f 93       	push	r16
    52d0:	1f 93       	push	r17
    52d2:	a9 01       	movw	r20, r18
    52d4:	98 01       	movw	r18, r16
 * @flags: flags for SPI transfer
 */
static inline int spi_xfer(struct spi_slave *slave, unsigned int bitlen,
		const void *dout, void *din, unsigned long flags)
{
	return spi_MT_flash_xfer(slave, bitlen, dout, din, flags);
    52d6:	87 01       	movw	r16, r14
    52d8:	76 01       	movw	r14, r12
    52da:	0e 94 bd 32 	call	0x657a	; 0x657a <spi_MT_flash_xfer>
		flags |= SPI_XFER_QUAD;
	else if (bits == 2)
		flags |= SPI_XFER_DUAL;

	return spi_xfer(slave, bitlen, dout, din, flags);
}
    52de:	1f 91       	pop	r17
    52e0:	0f 91       	pop	r16
    52e2:	ff 90       	pop	r15
    52e4:	ef 90       	pop	r14
    52e6:	df 90       	pop	r13
    52e8:	cf 90       	pop	r12
    52ea:	08 95       	ret

000052ec <spi_nand_issue_cmd>:
 *
 *    Set up the command buffer to send to the SPI controller.
 *    The command buffer has to initialized to 0.
 */
int spi_nand_issue_cmd(struct spi_nand_chip *chip, struct spi_nand_cmd *cmd)
{
    52ec:	6f 92       	push	r6
    52ee:	7f 92       	push	r7
    52f0:	8f 92       	push	r8
    52f2:	9f 92       	push	r9
    52f4:	af 92       	push	r10
    52f6:	bf 92       	push	r11
    52f8:	cf 92       	push	r12
    52fa:	df 92       	push	r13
    52fc:	ef 92       	push	r14
    52fe:	ff 92       	push	r15
    5300:	0f 93       	push	r16
    5302:	1f 93       	push	r17
    5304:	cf 93       	push	r28
    5306:	df 93       	push	r29
    5308:	00 d0       	rcall	.+0      	; 0x530a <spi_nand_issue_cmd+0x1e>
    530a:	1f 92       	push	r1
    530c:	cd b7       	in	r28, 0x3d	; 61
    530e:	de b7       	in	r29, 0x3e	; 62
    5310:	5b 01       	movw	r10, r22
	struct spi_nand_cmd_cfg *cmd_cfg = NULL;
	struct spi_slave *spi = chip->spi;
    5312:	fc 01       	movw	r30, r24
    5314:	62 80       	ldd	r6, Z+2	; 0x02
    5316:	73 80       	ldd	r7, Z+3	; 0x03
	int flags = SPI_XFER_BEGIN;
	u8 buf[SPINAND_MAX_ADDR_LEN];

	cmd_cfg = spi_nand_lookup_cmd_cfg_table(cmd->cmd, micron_cmd_cfg_table);
    5318:	61 eb       	ldi	r22, 0xB1	; 177
    531a:	76 e0       	ldi	r23, 0x06	; 6
    531c:	f5 01       	movw	r30, r10
    531e:	80 81       	ld	r24, Z
    5320:	b8 df       	rcall	.-144    	; 0x5292 <spi_nand_lookup_cmd_cfg_table>
    5322:	4c 01       	movw	r8, r24

	if (!cmd_cfg)
    5324:	89 2b       	or	r24, r25
    5326:	09 f4       	brne	.+2      	; 0x532a <spi_nand_issue_cmd+0x3e>
    5328:	d1 c0       	rjmp	.+418    	; 0x54cc <spi_nand_issue_cmd+0x1e0>
		return -EINVAL;

	if (cmd->n_tx == 0 && cmd->n_rx == 0 && cmd_cfg->addr_bytes == 0 && cmd_cfg->dummy_bytes == 0)
    532a:	f5 01       	movw	r30, r10
    532c:	86 81       	ldd	r24, Z+6	; 0x06
    532e:	97 81       	ldd	r25, Z+7	; 0x07
    5330:	a0 85       	ldd	r26, Z+8	; 0x08
    5332:	b1 85       	ldd	r27, Z+9	; 0x09
    5334:	89 2b       	or	r24, r25
    5336:	8a 2b       	or	r24, r26
    5338:	8b 2b       	or	r24, r27
    533a:	91 f4       	brne	.+36     	; 0x5360 <spi_nand_issue_cmd+0x74>
    533c:	84 85       	ldd	r24, Z+12	; 0x0c
    533e:	95 85       	ldd	r25, Z+13	; 0x0d
    5340:	a6 85       	ldd	r26, Z+14	; 0x0e
    5342:	b7 85       	ldd	r27, Z+15	; 0x0f
    5344:	89 2b       	or	r24, r25
    5346:	8a 2b       	or	r24, r26
    5348:	8b 2b       	or	r24, r27
    534a:	69 f4       	brne	.+26     	; 0x5366 <spi_nand_issue_cmd+0x7a>
    534c:	f4 01       	movw	r30, r8
    534e:	81 81       	ldd	r24, Z+1	; 0x01
    5350:	81 11       	cpse	r24, r1
    5352:	0c c0       	rjmp	.+24     	; 0x536c <spi_nand_issue_cmd+0x80>
    5354:	83 81       	ldd	r24, Z+3	; 0x03
    5356:	88 23       	and	r24, r24
    5358:	61 f0       	breq	.+24     	; 0x5372 <spi_nand_issue_cmd+0x86>
 */
int spi_nand_issue_cmd(struct spi_nand_chip *chip, struct spi_nand_cmd *cmd)
{
	struct spi_nand_cmd_cfg *cmd_cfg = NULL;
	struct spi_slave *spi = chip->spi;
	int flags = SPI_XFER_BEGIN;
    535a:	81 e0       	ldi	r24, 0x01	; 1
    535c:	90 e0       	ldi	r25, 0x00	; 0
    535e:	0b c0       	rjmp	.+22     	; 0x5376 <spi_nand_issue_cmd+0x8a>
    5360:	81 e0       	ldi	r24, 0x01	; 1
    5362:	90 e0       	ldi	r25, 0x00	; 0
    5364:	08 c0       	rjmp	.+16     	; 0x5376 <spi_nand_issue_cmd+0x8a>
    5366:	81 e0       	ldi	r24, 0x01	; 1
    5368:	90 e0       	ldi	r25, 0x00	; 0
    536a:	05 c0       	rjmp	.+10     	; 0x5376 <spi_nand_issue_cmd+0x8a>
    536c:	81 e0       	ldi	r24, 0x01	; 1
    536e:	90 e0       	ldi	r25, 0x00	; 0
    5370:	02 c0       	rjmp	.+4      	; 0x5376 <spi_nand_issue_cmd+0x8a>

	if (!cmd_cfg)
		return -EINVAL;

	if (cmd->n_tx == 0 && cmd->n_rx == 0 && cmd_cfg->addr_bytes == 0 && cmd_cfg->dummy_bytes == 0)
		flags |= SPI_XFER_END;
    5372:	83 e0       	ldi	r24, 0x03	; 3
    5374:	90 e0       	ldi	r25, 0x00	; 0

	spi_nand_xfer(spi, 8, 1, &cmd->cmd, NULL, flags);
    5376:	6c 01       	movw	r12, r24
    5378:	99 0f       	add	r25, r25
    537a:	ee 08       	sbc	r14, r14
    537c:	ff 08       	sbc	r15, r15
    537e:	00 e0       	ldi	r16, 0x00	; 0
    5380:	10 e0       	ldi	r17, 0x00	; 0
    5382:	95 01       	movw	r18, r10
    5384:	41 e0       	ldi	r20, 0x01	; 1
    5386:	68 e0       	ldi	r22, 0x08	; 8
    5388:	70 e0       	ldi	r23, 0x00	; 0
    538a:	c3 01       	movw	r24, r6
    538c:	9c df       	rcall	.-200    	; 0x52c6 <spi_nand_xfer>
	if (cmd_cfg->addr_bytes || cmd_cfg->dummy_bytes) {
    538e:	f4 01       	movw	r30, r8
    5390:	81 81       	ldd	r24, Z+1	; 0x01
    5392:	81 11       	cpse	r24, r1
    5394:	04 c0       	rjmp	.+8      	; 0x539e <spi_nand_issue_cmd+0xb2>
    5396:	93 81       	ldd	r25, Z+3	; 0x03
    5398:	99 23       	and	r25, r25
    539a:	09 f4       	brne	.+2      	; 0x539e <spi_nand_issue_cmd+0xb2>
    539c:	57 c0       	rjmp	.+174    	; 0x544c <spi_nand_issue_cmd+0x160>
		flags = 0;
		if (cmd->n_tx == 0 && cmd->n_rx == 0)
    539e:	f5 01       	movw	r30, r10
    53a0:	46 81       	ldd	r20, Z+6	; 0x06
    53a2:	57 81       	ldd	r21, Z+7	; 0x07
    53a4:	60 85       	ldd	r22, Z+8	; 0x08
    53a6:	71 85       	ldd	r23, Z+9	; 0x09
    53a8:	45 2b       	or	r20, r21
    53aa:	46 2b       	or	r20, r22
    53ac:	47 2b       	or	r20, r23
    53ae:	59 f4       	brne	.+22     	; 0x53c6 <spi_nand_issue_cmd+0xda>
    53b0:	44 85       	ldd	r20, Z+12	; 0x0c
    53b2:	55 85       	ldd	r21, Z+13	; 0x0d
    53b4:	66 85       	ldd	r22, Z+14	; 0x0e
    53b6:	77 85       	ldd	r23, Z+15	; 0x0f
    53b8:	45 2b       	or	r20, r21
    53ba:	46 2b       	or	r20, r22
    53bc:	47 2b       	or	r20, r23
    53be:	31 f0       	breq	.+12     	; 0x53cc <spi_nand_issue_cmd+0xe0>
	if (cmd->n_tx == 0 && cmd->n_rx == 0 && cmd_cfg->addr_bytes == 0 && cmd_cfg->dummy_bytes == 0)
		flags |= SPI_XFER_END;

	spi_nand_xfer(spi, 8, 1, &cmd->cmd, NULL, flags);
	if (cmd_cfg->addr_bytes || cmd_cfg->dummy_bytes) {
		flags = 0;
    53c0:	c1 2c       	mov	r12, r1
    53c2:	d1 2c       	mov	r13, r1
    53c4:	07 c0       	rjmp	.+14     	; 0x53d4 <spi_nand_issue_cmd+0xe8>
    53c6:	c1 2c       	mov	r12, r1
    53c8:	d1 2c       	mov	r13, r1
    53ca:	04 c0       	rjmp	.+8      	; 0x53d4 <spi_nand_issue_cmd+0xe8>
		if (cmd->n_tx == 0 && cmd->n_rx == 0)
			flags |= SPI_XFER_END;
    53cc:	68 94       	set
    53ce:	cc 24       	eor	r12, r12
    53d0:	c1 f8       	bld	r12, 1
    53d2:	d1 2c       	mov	r13, r1
		if (cmd_cfg->addr_bytes > cmd->n_addr) {
    53d4:	f5 01       	movw	r30, r10
    53d6:	41 81       	ldd	r20, Z+1	; 0x01
    53d8:	48 17       	cp	r20, r24
    53da:	00 f5       	brcc	.+64     	; 0x541c <spi_nand_issue_cmd+0x130>
			memcpy(buf, cmd->addr, cmd->n_addr);
    53dc:	50 e0       	ldi	r21, 0x00	; 0
    53de:	75 01       	movw	r14, r10
    53e0:	f2 e0       	ldi	r31, 0x02	; 2
    53e2:	ef 0e       	add	r14, r31
    53e4:	f1 1c       	adc	r15, r1
    53e6:	b7 01       	movw	r22, r14
    53e8:	ce 01       	movw	r24, r28
    53ea:	01 96       	adiw	r24, 0x01	; 1
    53ec:	0e 94 f2 41 	call	0x83e4	; 0x83e4 <memcpy>
			memset(cmd->addr, 0, cmd->n_addr);
    53f0:	f5 01       	movw	r30, r10
    53f2:	01 81       	ldd	r16, Z+1	; 0x01
    53f4:	10 e0       	ldi	r17, 0x00	; 0
    53f6:	a8 01       	movw	r20, r16
    53f8:	60 e0       	ldi	r22, 0x00	; 0
    53fa:	70 e0       	ldi	r23, 0x00	; 0
    53fc:	c7 01       	movw	r24, r14
    53fe:	0e 94 fb 41 	call	0x83f6	; 0x83f6 <memset>
			memcpy(cmd->addr + cmd_cfg->addr_bytes - cmd->n_addr, buf, cmd->n_addr);
    5402:	f4 01       	movw	r30, r8
    5404:	81 81       	ldd	r24, Z+1	; 0x01
    5406:	90 e0       	ldi	r25, 0x00	; 0
    5408:	80 1b       	sub	r24, r16
    540a:	91 0b       	sbc	r25, r17
    540c:	a8 01       	movw	r20, r16
    540e:	be 01       	movw	r22, r28
    5410:	6f 5f       	subi	r22, 0xFF	; 255
    5412:	7f 4f       	sbci	r23, 0xFF	; 255
    5414:	8e 0d       	add	r24, r14
    5416:	9f 1d       	adc	r25, r15
    5418:	0e 94 f2 41 	call	0x83e4	; 0x83e4 <memcpy>
		}
		spi_nand_xfer(spi, (cmd_cfg->addr_bytes + cmd_cfg->dummy_bytes) * 8, cmd_cfg->addr_bits,
    541c:	f4 01       	movw	r30, r8
    541e:	81 81       	ldd	r24, Z+1	; 0x01
    5420:	63 81       	ldd	r22, Z+3	; 0x03
    5422:	70 e0       	ldi	r23, 0x00	; 0
    5424:	68 0f       	add	r22, r24
    5426:	71 1d       	adc	r23, r1
    5428:	66 0f       	add	r22, r22
    542a:	77 1f       	adc	r23, r23
    542c:	66 0f       	add	r22, r22
    542e:	77 1f       	adc	r23, r23
    5430:	66 0f       	add	r22, r22
    5432:	77 1f       	adc	r23, r23
    5434:	0d 2c       	mov	r0, r13
    5436:	00 0c       	add	r0, r0
    5438:	ee 08       	sbc	r14, r14
    543a:	ff 08       	sbc	r15, r15
    543c:	00 e0       	ldi	r16, 0x00	; 0
    543e:	10 e0       	ldi	r17, 0x00	; 0
    5440:	95 01       	movw	r18, r10
    5442:	2e 5f       	subi	r18, 0xFE	; 254
    5444:	3f 4f       	sbci	r19, 0xFF	; 255
    5446:	42 81       	ldd	r20, Z+2	; 0x02
    5448:	c3 01       	movw	r24, r6
    544a:	3d df       	rcall	.-390    	; 0x52c6 <spi_nand_xfer>
				cmd->addr, NULL, flags);
	}

	if (cmd->n_tx) {
    544c:	f5 01       	movw	r30, r10
    544e:	86 81       	ldd	r24, Z+6	; 0x06
    5450:	97 81       	ldd	r25, Z+7	; 0x07
    5452:	a0 85       	ldd	r26, Z+8	; 0x08
    5454:	b1 85       	ldd	r27, Z+9	; 0x09
    5456:	00 97       	sbiw	r24, 0x00	; 0
    5458:	a1 05       	cpc	r26, r1
    545a:	b1 05       	cpc	r27, r1
    545c:	b9 f0       	breq	.+46     	; 0x548c <spi_nand_issue_cmd+0x1a0>
		spi_nand_xfer(spi, cmd->n_tx * 8, cmd_cfg->data_bits, cmd->tx_buf, NULL, SPI_XFER_END);
    545e:	22 85       	ldd	r18, Z+10	; 0x0a
    5460:	33 85       	ldd	r19, Z+11	; 0x0b
    5462:	bc 01       	movw	r22, r24
    5464:	66 0f       	add	r22, r22
    5466:	77 1f       	adc	r23, r23
    5468:	66 0f       	add	r22, r22
    546a:	77 1f       	adc	r23, r23
    546c:	66 0f       	add	r22, r22
    546e:	77 1f       	adc	r23, r23
    5470:	c1 2c       	mov	r12, r1
    5472:	d1 2c       	mov	r13, r1
    5474:	76 01       	movw	r14, r12
    5476:	68 94       	set
    5478:	c1 f8       	bld	r12, 1
    547a:	00 e0       	ldi	r16, 0x00	; 0
    547c:	10 e0       	ldi	r17, 0x00	; 0
    547e:	f4 01       	movw	r30, r8
    5480:	44 81       	ldd	r20, Z+4	; 0x04
    5482:	c3 01       	movw	r24, r6
    5484:	20 df       	rcall	.-448    	; 0x52c6 <spi_nand_xfer>
	} else if (cmd->n_rx) {
		spi_nand_xfer(spi, cmd->n_rx * 8, cmd_cfg->data_bits, NULL, cmd->rx_buf, SPI_XFER_END);
	}

	return 0;
    5486:	80 e0       	ldi	r24, 0x00	; 0
    5488:	90 e0       	ldi	r25, 0x00	; 0
    548a:	25 c0       	rjmp	.+74     	; 0x54d6 <spi_nand_issue_cmd+0x1ea>
				cmd->addr, NULL, flags);
	}

	if (cmd->n_tx) {
		spi_nand_xfer(spi, cmd->n_tx * 8, cmd_cfg->data_bits, cmd->tx_buf, NULL, SPI_XFER_END);
	} else if (cmd->n_rx) {
    548c:	f5 01       	movw	r30, r10
    548e:	84 85       	ldd	r24, Z+12	; 0x0c
    5490:	95 85       	ldd	r25, Z+13	; 0x0d
    5492:	a6 85       	ldd	r26, Z+14	; 0x0e
    5494:	b7 85       	ldd	r27, Z+15	; 0x0f
    5496:	00 97       	sbiw	r24, 0x00	; 0
    5498:	a1 05       	cpc	r26, r1
    549a:	b1 05       	cpc	r27, r1
    549c:	d1 f0       	breq	.+52     	; 0x54d2 <spi_nand_issue_cmd+0x1e6>
		spi_nand_xfer(spi, cmd->n_rx * 8, cmd_cfg->data_bits, NULL, cmd->rx_buf, SPI_XFER_END);
    549e:	00 89       	ldd	r16, Z+16	; 0x10
    54a0:	11 89       	ldd	r17, Z+17	; 0x11
    54a2:	bc 01       	movw	r22, r24
    54a4:	66 0f       	add	r22, r22
    54a6:	77 1f       	adc	r23, r23
    54a8:	66 0f       	add	r22, r22
    54aa:	77 1f       	adc	r23, r23
    54ac:	66 0f       	add	r22, r22
    54ae:	77 1f       	adc	r23, r23
    54b0:	c1 2c       	mov	r12, r1
    54b2:	d1 2c       	mov	r13, r1
    54b4:	76 01       	movw	r14, r12
    54b6:	68 94       	set
    54b8:	c1 f8       	bld	r12, 1
    54ba:	20 e0       	ldi	r18, 0x00	; 0
    54bc:	30 e0       	ldi	r19, 0x00	; 0
    54be:	f4 01       	movw	r30, r8
    54c0:	44 81       	ldd	r20, Z+4	; 0x04
    54c2:	c3 01       	movw	r24, r6
    54c4:	00 df       	rcall	.-512    	; 0x52c6 <spi_nand_xfer>
	}

	return 0;
    54c6:	80 e0       	ldi	r24, 0x00	; 0
    54c8:	90 e0       	ldi	r25, 0x00	; 0
    54ca:	05 c0       	rjmp	.+10     	; 0x54d6 <spi_nand_issue_cmd+0x1ea>
	u8 buf[SPINAND_MAX_ADDR_LEN];

	cmd_cfg = spi_nand_lookup_cmd_cfg_table(cmd->cmd, micron_cmd_cfg_table);

	if (!cmd_cfg)
		return -EINVAL;
    54cc:	8a ee       	ldi	r24, 0xEA	; 234
    54ce:	9f ef       	ldi	r25, 0xFF	; 255
    54d0:	02 c0       	rjmp	.+4      	; 0x54d6 <spi_nand_issue_cmd+0x1ea>
		spi_nand_xfer(spi, cmd->n_tx * 8, cmd_cfg->data_bits, cmd->tx_buf, NULL, SPI_XFER_END);
	} else if (cmd->n_rx) {
		spi_nand_xfer(spi, cmd->n_rx * 8, cmd_cfg->data_bits, NULL, cmd->rx_buf, SPI_XFER_END);
	}

	return 0;
    54d2:	80 e0       	ldi	r24, 0x00	; 0
    54d4:	90 e0       	ldi	r25, 0x00	; 0
}
    54d6:	0f 90       	pop	r0
    54d8:	0f 90       	pop	r0
    54da:	0f 90       	pop	r0
    54dc:	0f 90       	pop	r0
    54de:	df 91       	pop	r29
    54e0:	cf 91       	pop	r28
    54e2:	1f 91       	pop	r17
    54e4:	0f 91       	pop	r16
    54e6:	ff 90       	pop	r15
    54e8:	ef 90       	pop	r14
    54ea:	df 90       	pop	r13
    54ec:	cf 90       	pop	r12
    54ee:	bf 90       	pop	r11
    54f0:	af 90       	pop	r10
    54f2:	9f 90       	pop	r9
    54f4:	8f 90       	pop	r8
    54f6:	7f 90       	pop	r7
    54f8:	6f 90       	pop	r6
    54fa:	08 95       	ret

000054fc <readDiff_CH>:
	printf("flowc = %d", npaFlow.muxChannel );
}
void readAbs_CH(void)
{
	printf("abs ch = %d", npaAbsP.muxChannel );
}
    54fc:	80 91 c8 13 	lds	r24, 0x13C8	; 0x8013c8 <npaFlow+0x5>
    5500:	1f 92       	push	r1
    5502:	8f 93       	push	r24
    5504:	8d ec       	ldi	r24, 0xCD	; 205
    5506:	9f e0       	ldi	r25, 0x0F	; 15
    5508:	9f 93       	push	r25
    550a:	8f 93       	push	r24
    550c:	0e 94 63 42 	call	0x84c6	; 0x84c6 <printf>
    5510:	0f 90       	pop	r0
    5512:	0f 90       	pop	r0
    5514:	0f 90       	pop	r0
    5516:	0f 90       	pop	r0
    5518:	08 95       	ret

0000551a <readNPA700>:
*   Arguments: None
*
*      Return: None
******************************************************************************/
uint8_t readNPA700(npa700 sensor)
{
    551a:	cf 92       	push	r12
    551c:	df 92       	push	r13
    551e:	ff 92       	push	r15
    5520:	0f 93       	push	r16
    5522:	1f 93       	push	r17
    5524:	cf 93       	push	r28
    5526:	df 93       	push	r29
    5528:	cd b7       	in	r28, 0x3d	; 61
    552a:	de b7       	in	r29, 0x3e	; 62
    552c:	2a 97       	sbiw	r28, 0x0a	; 10
    552e:	0f b6       	in	r0, 0x3f	; 63
    5530:	f8 94       	cli
    5532:	de bf       	out	0x3e, r29	; 62
    5534:	0f be       	out	0x3f, r0	; 63
    5536:	cd bf       	out	0x3d, r28	; 61
	uint8_t b[4] = {0, 0, 0, 0};
    5538:	19 82       	std	Y+1, r1	; 0x01
    553a:	1a 82       	std	Y+2, r1	; 0x02
    553c:	1b 82       	std	Y+3, r1	; 0x03
    553e:	1c 82       	std	Y+4, r1	; 0x04
//	if ( !((which==ABS_PRESS) || (which==DIFF_PRESS)) )
//	{
//		printf_P(PSTR("sensor unknown\n"));
//		return RETURN_ERROR;
//	}
	printf ("muxChannel = %d \n", sensor.muxChannel);
    5540:	f9 2e       	mov	r15, r25
    5542:	c9 2e       	mov	r12, r25
    5544:	d1 2c       	mov	r13, r1
    5546:	1f 92       	push	r1
    5548:	9f 93       	push	r25
    554a:	04 ee       	ldi	r16, 0xE4	; 228
    554c:	1f e0       	ldi	r17, 0x0F	; 15
    554e:	1f 93       	push	r17
    5550:	0f 93       	push	r16
    5552:	0e 94 63 42 	call	0x84c6	; 0x84c6 <printf>
	setI2Cmux(sensor.muxChannel);  
    5556:	8f 2d       	mov	r24, r15
    5558:	0e 94 6b 36 	call	0x6cd6	; 0x6cd6 <setI2Cmux>
	printf ("muxChannel = %d \n", sensor.muxChannel);
    555c:	1f 92       	push	r1
    555e:	ff 92       	push	r15
    5560:	1f 93       	push	r17
    5562:	0f 93       	push	r16
    5564:	0e 94 63 42 	call	0x84c6	; 0x84c6 <printf>
	twi_read_bytes(NPA700_I2C_ADDR  , b, 4);
    5568:	44 e0       	ldi	r20, 0x04	; 4
    556a:	50 e0       	ldi	r21, 0x00	; 0
    556c:	be 01       	movw	r22, r28
    556e:	6f 5f       	subi	r22, 0xFF	; 255
    5570:	7f 4f       	sbci	r23, 0xFF	; 255
    5572:	88 e2       	ldi	r24, 0x28	; 40
    5574:	0e 94 e0 37 	call	0x6fc0	; 0x6fc0 <twi_read_bytes>


	uint8_t diagnostic_bits = b[0]>>6;						  // and 2 MSBs of b[0] are diagnostic bits
    5578:	89 81       	ldd	r24, Y+1	; 0x01
    557a:	98 2f       	mov	r25, r24
    557c:	92 95       	swap	r25
    557e:	96 95       	lsr	r25
    5580:	96 95       	lsr	r25
    5582:	93 70       	andi	r25, 0x03	; 3
	
	if (diagnostic_bits)        {
    5584:	0f b6       	in	r0, 0x3f	; 63
    5586:	f8 94       	cli
    5588:	de bf       	out	0x3e, r29	; 62
    558a:	0f be       	out	0x3f, r0	; 63
    558c:	cd bf       	out	0x3d, r28	; 61
    558e:	c9 f1       	breq	.+114    	; 0x5602 <readNPA700+0xe8>
		if 	    (diagnostic_bits == 1)  printf_P(PSTR("\nSensor %d in Programming Mode\n"),sensor.muxChannel -1);  // 
    5590:	91 30       	cpi	r25, 0x01	; 1
    5592:	89 f4       	brne	.+34     	; 0x55b6 <readNPA700+0x9c>
    5594:	31 e0       	ldi	r19, 0x01	; 1
    5596:	c3 1a       	sub	r12, r19
    5598:	d1 08       	sbc	r13, r1
    559a:	df 92       	push	r13
    559c:	cf 92       	push	r12
    559e:	86 ea       	ldi	r24, 0xA6	; 166
    55a0:	92 e0       	ldi	r25, 0x02	; 2
    55a2:	9f 93       	push	r25
    55a4:	8f 93       	push	r24
    55a6:	0e 94 76 42 	call	0x84ec	; 0x84ec <printf_P>
    55aa:	0f 90       	pop	r0
    55ac:	0f 90       	pop	r0
    55ae:	0f 90       	pop	r0
    55b0:	0f 90       	pop	r0
		else if (diagnostic_bits == 2)  printf_P(PSTR("\nStale Pressure Reading %d\n"),sensor.muxChannel -1);
		else if (diagnostic_bits == 3)  printf_P(PSTR("\nStale Pressure Internal Fault %d\n"),sensor.muxChannel -1);
		return RETURN_ERROR;
    55b2:	81 e0       	ldi	r24, 0x01	; 1
    55b4:	4e c0       	rjmp	.+156    	; 0x5652 <readNPA700+0x138>

	uint8_t diagnostic_bits = b[0]>>6;						  // and 2 MSBs of b[0] are diagnostic bits
	
	if (diagnostic_bits)        {
		if 	    (diagnostic_bits == 1)  printf_P(PSTR("\nSensor %d in Programming Mode\n"),sensor.muxChannel -1);  // 
		else if (diagnostic_bits == 2)  printf_P(PSTR("\nStale Pressure Reading %d\n"),sensor.muxChannel -1);
    55b6:	92 30       	cpi	r25, 0x02	; 2
    55b8:	89 f4       	brne	.+34     	; 0x55dc <readNPA700+0xc2>
    55ba:	81 e0       	ldi	r24, 0x01	; 1
    55bc:	c8 1a       	sub	r12, r24
    55be:	d1 08       	sbc	r13, r1
    55c0:	df 92       	push	r13
    55c2:	cf 92       	push	r12
    55c4:	8a e8       	ldi	r24, 0x8A	; 138
    55c6:	92 e0       	ldi	r25, 0x02	; 2
    55c8:	9f 93       	push	r25
    55ca:	8f 93       	push	r24
    55cc:	0e 94 76 42 	call	0x84ec	; 0x84ec <printf_P>
    55d0:	0f 90       	pop	r0
    55d2:	0f 90       	pop	r0
    55d4:	0f 90       	pop	r0
    55d6:	0f 90       	pop	r0
		else if (diagnostic_bits == 3)  printf_P(PSTR("\nStale Pressure Internal Fault %d\n"),sensor.muxChannel -1);
		return RETURN_ERROR;
    55d8:	81 e0       	ldi	r24, 0x01	; 1
    55da:	3b c0       	rjmp	.+118    	; 0x5652 <readNPA700+0x138>
	uint8_t diagnostic_bits = b[0]>>6;						  // and 2 MSBs of b[0] are diagnostic bits
	
	if (diagnostic_bits)        {
		if 	    (diagnostic_bits == 1)  printf_P(PSTR("\nSensor %d in Programming Mode\n"),sensor.muxChannel -1);  // 
		else if (diagnostic_bits == 2)  printf_P(PSTR("\nStale Pressure Reading %d\n"),sensor.muxChannel -1);
		else if (diagnostic_bits == 3)  printf_P(PSTR("\nStale Pressure Internal Fault %d\n"),sensor.muxChannel -1);
    55dc:	93 30       	cpi	r25, 0x03	; 3
    55de:	c1 f5       	brne	.+112    	; 0x5650 <readNPA700+0x136>
    55e0:	21 e0       	ldi	r18, 0x01	; 1
    55e2:	c2 1a       	sub	r12, r18
    55e4:	d1 08       	sbc	r13, r1
    55e6:	df 92       	push	r13
    55e8:	cf 92       	push	r12
    55ea:	87 e6       	ldi	r24, 0x67	; 103
    55ec:	92 e0       	ldi	r25, 0x02	; 2
    55ee:	9f 93       	push	r25
    55f0:	8f 93       	push	r24
    55f2:	0e 94 76 42 	call	0x84ec	; 0x84ec <printf_P>
    55f6:	0f 90       	pop	r0
    55f8:	0f 90       	pop	r0
    55fa:	0f 90       	pop	r0
    55fc:	0f 90       	pop	r0
		return RETURN_ERROR;
    55fe:	81 e0       	ldi	r24, 0x01	; 1
    5600:	28 c0       	rjmp	.+80     	; 0x5652 <readNPA700+0x138>
	}
	else{
		uint16_t pressureCounts = ( ((b[0] & 0x3F) << 8))  + b[1];  // pressure counts are 14 LSBs of b[0] & b[1],
    5602:	8f 73       	andi	r24, 0x3F	; 63
    5604:	90 e0       	ldi	r25, 0x00	; 0
    5606:	98 2f       	mov	r25, r24
    5608:	88 27       	eor	r24, r24
    560a:	2a 81       	ldd	r18, Y+2	; 0x02
    560c:	82 0f       	add	r24, r18
    560e:	91 1d       	adc	r25, r1
		uint16_t tempCounts     =  ( (uint16_t)b[2] << 3) + (b[3]>>5); // temperature counts are 11 MSBs of b[2] & b[3]
    5610:	2b 81       	ldd	r18, Y+3	; 0x03
    5612:	30 e0       	ldi	r19, 0x00	; 0
    5614:	22 0f       	add	r18, r18
    5616:	33 1f       	adc	r19, r19
    5618:	22 0f       	add	r18, r18
    561a:	33 1f       	adc	r19, r19
    561c:	22 0f       	add	r18, r18
    561e:	33 1f       	adc	r19, r19
    5620:	4c 81       	ldd	r20, Y+4	; 0x04
    5622:	42 95       	swap	r20
    5624:	46 95       	lsr	r20
    5626:	47 70       	andi	r20, 0x07	; 7
    5628:	24 0f       	add	r18, r20
    562a:	31 1d       	adc	r19, r1
		printf("%u %u\n", pressureCounts, tempCounts);
    562c:	3f 93       	push	r19
    562e:	2f 93       	push	r18
    5630:	9f 93       	push	r25
    5632:	8f 93       	push	r24
    5634:	86 ef       	ldi	r24, 0xF6	; 246
    5636:	9f e0       	ldi	r25, 0x0F	; 15
    5638:	9f 93       	push	r25
    563a:	8f 93       	push	r24
    563c:	0e 94 63 42 	call	0x84c6	; 0x84c6 <printf>
		
	}	
	
	return RETURN_OK;
    5640:	0f 90       	pop	r0
    5642:	0f 90       	pop	r0
    5644:	0f 90       	pop	r0
    5646:	0f 90       	pop	r0
    5648:	0f 90       	pop	r0
    564a:	0f 90       	pop	r0
    564c:	80 e0       	ldi	r24, 0x00	; 0
    564e:	01 c0       	rjmp	.+2      	; 0x5652 <readNPA700+0x138>
	
	if (diagnostic_bits)        {
		if 	    (diagnostic_bits == 1)  printf_P(PSTR("\nSensor %d in Programming Mode\n"),sensor.muxChannel -1);  // 
		else if (diagnostic_bits == 2)  printf_P(PSTR("\nStale Pressure Reading %d\n"),sensor.muxChannel -1);
		else if (diagnostic_bits == 3)  printf_P(PSTR("\nStale Pressure Internal Fault %d\n"),sensor.muxChannel -1);
		return RETURN_ERROR;
    5650:	81 e0       	ldi	r24, 0x01	; 1
		printf("%u %u\n", pressureCounts, tempCounts);
		
	}	
	
	return RETURN_OK;
}
    5652:	2a 96       	adiw	r28, 0x0a	; 10
    5654:	0f b6       	in	r0, 0x3f	; 63
    5656:	f8 94       	cli
    5658:	de bf       	out	0x3e, r29	; 62
    565a:	0f be       	out	0x3f, r0	; 63
    565c:	cd bf       	out	0x3d, r28	; 61
    565e:	df 91       	pop	r29
    5660:	cf 91       	pop	r28
    5662:	1f 91       	pop	r17
    5664:	0f 91       	pop	r16
    5666:	ff 90       	pop	r15
    5668:	df 90       	pop	r13
    566a:	cf 90       	pop	r12
    566c:	08 95       	ret

0000566e <initPressureSensors>:

uint8_t readNPA700(npa700 sensor);


void initPressureSensors(void)
{
    566e:	cf 93       	push	r28
	npaFlow.pressureType = DIFF_1PSI;
    5670:	e3 ec       	ldi	r30, 0xC3	; 195
    5672:	f3 e1       	ldi	r31, 0x13	; 19
    5674:	c1 e0       	ldi	r28, 0x01	; 1
    5676:	c4 83       	std	Z+4, r28	; 0x04
	npaFlow.muxChannel = MUX_CH_DIFF_1PSI;
    5678:	82 e0       	ldi	r24, 0x02	; 2
    567a:	85 83       	std	Z+5, r24	; 0x05
	readDiff_CH();
    567c:	3f df       	rcall	.-386    	; 0x54fc <readDiff_CH>

	npaAbsP.muxChannel = MUX_CH_ABS;	
    567e:	ed eb       	ldi	r30, 0xBD	; 189
    5680:	f3 e1       	ldi	r31, 0x13	; 19
    5682:	c5 83       	std	Z+5, r28	; 0x05
	npaAbsP.pressureType = ABS_15PSI; 
    5684:	14 82       	std	Z+4, r1	; 0x04

	npaU47.muxChannel= MUX_CH_U47;
    5686:	e7 eb       	ldi	r30, 0xB7	; 183
    5688:	f3 e1       	ldi	r31, 0x13	; 19
    568a:	83 e0       	ldi	r24, 0x03	; 3
    568c:	85 83       	std	Z+5, r24	; 0x05
	npaU47.pressureType = DIFF_1PSI;
    568e:	c4 83       	std	Z+4, r28	; 0x04
		
		
	//setI2Cmux(MUX_SENSOR2_PRESSURE);
	readNPA700(npaFlow);
    5690:	40 91 c3 13 	lds	r20, 0x13C3	; 0x8013c3 <npaFlow>
    5694:	50 91 c4 13 	lds	r21, 0x13C4	; 0x8013c4 <npaFlow+0x1>
    5698:	60 91 c5 13 	lds	r22, 0x13C5	; 0x8013c5 <npaFlow+0x2>
    569c:	70 91 c6 13 	lds	r23, 0x13C6	; 0x8013c6 <npaFlow+0x3>
    56a0:	80 91 c7 13 	lds	r24, 0x13C7	; 0x8013c7 <npaFlow+0x4>
    56a4:	90 91 c8 13 	lds	r25, 0x13C8	; 0x8013c8 <npaFlow+0x5>
    56a8:	38 df       	rcall	.-400    	; 0x551a <readNPA700>
    milliseconds can be achieved.
 */
void
_delay_loop_2(uint16_t __count)
{
	__asm__ volatile (
    56aa:	83 e0       	ldi	r24, 0x03	; 3
    56ac:	98 e4       	ldi	r25, 0x48	; 72
    56ae:	fc 01       	movw	r30, r24
    56b0:	31 97       	sbiw	r30, 0x01	; 1
    56b2:	f1 f7       	brne	.-4      	; 0x56b0 <initPressureSensors+0x42>
    56b4:	fc 01       	movw	r30, r24
    56b6:	31 97       	sbiw	r30, 0x01	; 1
    56b8:	f1 f7       	brne	.-4      	; 0x56b6 <initPressureSensors+0x48>
    56ba:	fc 01       	movw	r30, r24
    56bc:	31 97       	sbiw	r30, 0x01	; 1
    56be:	f1 f7       	brne	.-4      	; 0x56bc <initPressureSensors+0x4e>
    56c0:	fc 01       	movw	r30, r24
    56c2:	31 97       	sbiw	r30, 0x01	; 1
    56c4:	f1 f7       	brne	.-4      	; 0x56c2 <initPressureSensors+0x54>
    56c6:	fc 01       	movw	r30, r24
    56c8:	31 97       	sbiw	r30, 0x01	; 1
    56ca:	f1 f7       	brne	.-4      	; 0x56c8 <initPressureSensors+0x5a>
    56cc:	fc 01       	movw	r30, r24
    56ce:	31 97       	sbiw	r30, 0x01	; 1
    56d0:	f1 f7       	brne	.-4      	; 0x56ce <initPressureSensors+0x60>
    56d2:	01 97       	sbiw	r24, 0x01	; 1
    56d4:	f1 f7       	brne	.-4      	; 0x56d2 <initPressureSensors+0x64>
 	DELAY_5ms; 	DELAY_5ms; 	DELAY_5ms; 	DELAY_5ms; 	DELAY_5ms; 	DELAY_5ms; 	DELAY_5ms;
	readNPA700(npaAbsP);
    56d6:	40 91 bd 13 	lds	r20, 0x13BD	; 0x8013bd <npaAbsP>
    56da:	50 91 be 13 	lds	r21, 0x13BE	; 0x8013be <npaAbsP+0x1>
    56de:	60 91 bf 13 	lds	r22, 0x13BF	; 0x8013bf <npaAbsP+0x2>
    56e2:	70 91 c0 13 	lds	r23, 0x13C0	; 0x8013c0 <npaAbsP+0x3>
    56e6:	80 91 c1 13 	lds	r24, 0x13C1	; 0x8013c1 <npaAbsP+0x4>
    56ea:	90 91 c2 13 	lds	r25, 0x13C2	; 0x8013c2 <npaAbsP+0x5>
    56ee:	15 df       	rcall	.-470    	; 0x551a <readNPA700>
}
    56f0:	cf 91       	pop	r28
    56f2:	08 95       	ret

000056f4 <readDiffPress>:
}


void readDiffPress(void)
{
	readNPA700(npaFlow);		
    56f4:	40 91 c3 13 	lds	r20, 0x13C3	; 0x8013c3 <npaFlow>
    56f8:	50 91 c4 13 	lds	r21, 0x13C4	; 0x8013c4 <npaFlow+0x1>
    56fc:	60 91 c5 13 	lds	r22, 0x13C5	; 0x8013c5 <npaFlow+0x2>
    5700:	70 91 c6 13 	lds	r23, 0x13C6	; 0x8013c6 <npaFlow+0x3>
    5704:	80 91 c7 13 	lds	r24, 0x13C7	; 0x8013c7 <npaFlow+0x4>
    5708:	90 91 c8 13 	lds	r25, 0x13C8	; 0x8013c8 <npaFlow+0x5>
    570c:	06 cf       	rjmp	.-500    	; 0x551a <readNPA700>
    570e:	08 95       	ret

00005710 <readABSPress>:
}

void readABSPress(void)
{
	readNPA700(npaAbsP);
    5710:	40 91 bd 13 	lds	r20, 0x13BD	; 0x8013bd <npaAbsP>
    5714:	50 91 be 13 	lds	r21, 0x13BE	; 0x8013be <npaAbsP+0x1>
    5718:	60 91 bf 13 	lds	r22, 0x13BF	; 0x8013bf <npaAbsP+0x2>
    571c:	70 91 c0 13 	lds	r23, 0x13C0	; 0x8013c0 <npaAbsP+0x3>
    5720:	80 91 c1 13 	lds	r24, 0x13C1	; 0x8013c1 <npaAbsP+0x4>
    5724:	90 91 c2 13 	lds	r25, 0x13C2	; 0x8013c2 <npaAbsP+0x5>
    5728:	f8 ce       	rjmp	.-528    	; 0x551a <readNPA700>
    572a:	08 95       	ret

0000572c <readU47>:
}

void readU47(void)
{
	readNPA700(npaU47);
    572c:	40 91 b7 13 	lds	r20, 0x13B7	; 0x8013b7 <npaU47>
    5730:	50 91 b8 13 	lds	r21, 0x13B8	; 0x8013b8 <npaU47+0x1>
    5734:	60 91 b9 13 	lds	r22, 0x13B9	; 0x8013b9 <npaU47+0x2>
    5738:	70 91 ba 13 	lds	r23, 0x13BA	; 0x8013ba <npaU47+0x3>
    573c:	80 91 bb 13 	lds	r24, 0x13BB	; 0x8013bb <npaU47+0x4>
    5740:	90 91 bc 13 	lds	r25, 0x13BC	; 0x8013bc <npaU47+0x5>
    5744:	ea ce       	rjmp	.-556    	; 0x551a <readNPA700>
    5746:	08 95       	ret

00005748 <startRH_T_conversion>:
}


void startRH_T_conversion()
{
	if (twi_write_bytes(HUMIDITY_ADD, (void *)NULL,0) == RETURN_OK) {    //write zero bites to address NULL to start conversion
    5748:	40 e0       	ldi	r20, 0x00	; 0
    574a:	60 e0       	ldi	r22, 0x00	; 0
    574c:	70 e0       	ldi	r23, 0x00	; 0
    574e:	87 e2       	ldi	r24, 0x27	; 39
    5750:	0e 94 69 37 	call	0x6ed2	; 0x6ed2 <twi_write_bytes>
    5754:	89 2b       	or	r24, r25
    5756:	41 f4       	brne	.+16     	; 0x5768 <startRH_T_conversion+0x20>
		rhStarted = 1;
    5758:	81 e0       	ldi	r24, 0x01	; 1
    575a:	80 93 c9 13 	sts	0x13C9, r24	; 0x8013c9 <rhStarted>
		printf("started RH_T Conversion\n");
    575e:	8d ef       	ldi	r24, 0xFD	; 253
    5760:	9f e0       	ldi	r25, 0x0F	; 15
    5762:	0c 94 a2 42 	jmp	0x8544	; 0x8544 <puts>
    5766:	08 95       	ret
	}
	else 
		printf("RH_T Start Failed\n");
    5768:	85 e1       	ldi	r24, 0x15	; 21
    576a:	90 e1       	ldi	r25, 0x10	; 16
    576c:	0c 94 a2 42 	jmp	0x8544	; 0x8544 <puts>
    5770:	08 95       	ret

00005772 <readRH_T>:
}

void readRH_T(void)
{
    5772:	cf 92       	push	r12
    5774:	df 92       	push	r13
    5776:	ef 92       	push	r14
    5778:	ff 92       	push	r15
    577a:	cf 93       	push	r28
    577c:	df 93       	push	r29
    577e:	00 d0       	rcall	.+0      	; 0x5780 <readRH_T+0xe>
    5780:	1f 92       	push	r1
    5782:	cd b7       	in	r28, 0x3d	; 61
    5784:	de b7       	in	r29, 0x3e	; 62
	uint8_t buf[4] = {0,0,0,0};
    5786:	19 82       	std	Y+1, r1	; 0x01
    5788:	1a 82       	std	Y+2, r1	; 0x02
    578a:	1b 82       	std	Y+3, r1	; 0x03
    578c:	1c 82       	std	Y+4, r1	; 0x04
	int32_t rawRH, rawT;


	if ( rhStarted ) {
    578e:	80 91 c9 13 	lds	r24, 0x13C9	; 0x8013c9 <rhStarted>
    5792:	88 23       	and	r24, r24
    5794:	09 f4       	brne	.+2      	; 0x5798 <readRH_T+0x26>
    5796:	63 c0       	rjmp	.+198    	; 0x585e <readRH_T+0xec>
		rhStarted = 0;
    5798:	10 92 c9 13 	sts	0x13C9, r1	; 0x8013c9 <rhStarted>
		if (twi_read_bytes(HUMIDITY_ADD, buf,4) != RETURN_OK) {
    579c:	44 e0       	ldi	r20, 0x04	; 4
    579e:	50 e0       	ldi	r21, 0x00	; 0
    57a0:	be 01       	movw	r22, r28
    57a2:	6f 5f       	subi	r22, 0xFF	; 255
    57a4:	7f 4f       	sbci	r23, 0xFF	; 255
    57a6:	87 e2       	ldi	r24, 0x27	; 39
    57a8:	0e 94 e0 37 	call	0x6fc0	; 0x6fc0 <twi_read_bytes>
    57ac:	89 2b       	or	r24, r25
    57ae:	29 f0       	breq	.+10     	; 0x57ba <readRH_T+0x48>
			printf("RH_T Start Failed\n");
    57b0:	85 e1       	ldi	r24, 0x15	; 21
    57b2:	90 e1       	ldi	r25, 0x10	; 16
    57b4:	0e 94 a2 42 	call	0x8544	; 0x8544 <puts>
			return;
    57b8:	52 c0       	rjmp	.+164    	; 0x585e <readRH_T+0xec>
	else {
		return;
	}
	
	
	if (buf[0] >> 6 != 0) {
    57ba:	a9 81       	ldd	r26, Y+1	; 0x01
    57bc:	8a 2f       	mov	r24, r26
    57be:	82 95       	swap	r24
    57c0:	86 95       	lsr	r24
    57c2:	86 95       	lsr	r24
    57c4:	83 70       	andi	r24, 0x03	; 3
    57c6:	29 f0       	breq	.+10     	; 0x57d2 <readRH_T+0x60>
		printf("RH_T Stale Data\n");
    57c8:	87 e2       	ldi	r24, 0x27	; 39
    57ca:	90 e1       	ldi	r25, 0x10	; 16
    57cc:	0e 94 a2 42 	call	0x8544	; 0x8544 <puts>
    57d0:	46 c0       	rjmp	.+140    	; 0x585e <readRH_T+0xec>
	}
	else
	{
		rawRH = ((buf[0] & 0x3F) << 8) | buf[1];  // 14 bit code
    57d2:	af 73       	andi	r26, 0x3F	; 63
    57d4:	b0 e0       	ldi	r27, 0x00	; 0
    57d6:	ba 2f       	mov	r27, r26
    57d8:	aa 27       	eor	r26, r26
    57da:	8a 81       	ldd	r24, Y+2	; 0x02
    57dc:	a8 2b       	or	r26, r24
		// Relative Humidity in percent is (14-bitCode / 2^14 -2) * 100
		printf("RH = %ld (Tenths of a Percent)\n", (rawRH * 1000) / 16382);  //  relative humidity in tenths of a percent
    57de:	28 ee       	ldi	r18, 0xE8	; 232
    57e0:	33 e0       	ldi	r19, 0x03	; 3
    57e2:	0e 94 2f 40 	call	0x805e	; 0x805e <__usmulhisi3>
    57e6:	0f 2e       	mov	r0, r31
    57e8:	fe ef       	ldi	r31, 0xFE	; 254
    57ea:	cf 2e       	mov	r12, r31
    57ec:	ff e3       	ldi	r31, 0x3F	; 63
    57ee:	df 2e       	mov	r13, r31
    57f0:	e1 2c       	mov	r14, r1
    57f2:	f1 2c       	mov	r15, r1
    57f4:	f0 2d       	mov	r31, r0
    57f6:	a7 01       	movw	r20, r14
    57f8:	96 01       	movw	r18, r12
    57fa:	0e 94 04 40 	call	0x8008	; 0x8008 <__divmodsi4>
    57fe:	5f 93       	push	r21
    5800:	4f 93       	push	r20
    5802:	3f 93       	push	r19
    5804:	2f 93       	push	r18
    5806:	87 e3       	ldi	r24, 0x37	; 55
    5808:	90 e1       	ldi	r25, 0x10	; 16
    580a:	9f 93       	push	r25
    580c:	8f 93       	push	r24
    580e:	0e 94 63 42 	call	0x84c6	; 0x84c6 <printf>
		
		rawT = (((int16_t)buf[2]) <<6) | (buf[3]>>2);  // 14 bit code
    5812:	ab 81       	ldd	r26, Y+3	; 0x03
    5814:	80 e4       	ldi	r24, 0x40	; 64
    5816:	a8 9f       	mul	r26, r24
    5818:	d0 01       	movw	r26, r0
    581a:	11 24       	eor	r1, r1
    581c:	8c 81       	ldd	r24, Y+4	; 0x04
    581e:	86 95       	lsr	r24
    5820:	86 95       	lsr	r24
    5822:	a8 2b       	or	r26, r24
		printf("T = %ld (hundreths of a Degree)\n", (rawT * 16500) / ((1<<14)-2) - 4000);// input Temperature in Hundreths of a degC
    5824:	24 e7       	ldi	r18, 0x74	; 116
    5826:	30 e4       	ldi	r19, 0x40	; 64
    5828:	0e 94 2f 40 	call	0x805e	; 0x805e <__usmulhisi3>
    582c:	a7 01       	movw	r20, r14
    582e:	96 01       	movw	r18, r12
    5830:	0e 94 04 40 	call	0x8008	; 0x8008 <__divmodsi4>
    5834:	da 01       	movw	r26, r20
    5836:	c9 01       	movw	r24, r18
    5838:	80 5a       	subi	r24, 0xA0	; 160
    583a:	9f 40       	sbci	r25, 0x0F	; 15
    583c:	a1 09       	sbc	r26, r1
    583e:	b1 09       	sbc	r27, r1
    5840:	bf 93       	push	r27
    5842:	af 93       	push	r26
    5844:	9f 93       	push	r25
    5846:	8f 93       	push	r24
    5848:	87 e5       	ldi	r24, 0x57	; 87
    584a:	90 e1       	ldi	r25, 0x10	; 16
    584c:	9f 93       	push	r25
    584e:	8f 93       	push	r24
    5850:	0e 94 63 42 	call	0x84c6	; 0x84c6 <printf>
    5854:	0f b6       	in	r0, 0x3f	; 63
    5856:	f8 94       	cli
    5858:	de bf       	out	0x3e, r29	; 62
    585a:	0f be       	out	0x3f, r0	; 63
    585c:	cd bf       	out	0x3d, r28	; 61
	}
    585e:	0f 90       	pop	r0
    5860:	0f 90       	pop	r0
    5862:	0f 90       	pop	r0
    5864:	0f 90       	pop	r0
    5866:	df 91       	pop	r29
    5868:	cf 91       	pop	r28
    586a:	ff 90       	pop	r15
    586c:	ef 90       	pop	r14
    586e:	df 90       	pop	r13
    5870:	cf 90       	pop	r12
    5872:	08 95       	ret

00005874 <ADC_RegisterWrite>:
// BOR  -- Brown out reset--set on power cycle or by writing 1 to _BV(BOR)  in register XXXXXXXX


  // THIS IS A 24BYTE SEQUENCE
void ADC_RegisterWrite(uint8_t addr,  uint8_t data)
{
    5874:	cf 93       	push	r28
    5876:	df 93       	push	r29
    5878:	d8 2f       	mov	r29, r24
    587a:	c6 2f       	mov	r28, r22
	selectADC2518();
    587c:	93 d0       	rcall	.+294    	; 0x59a4 <selectADC2518>
	spiTransferByte(REG_WR);
    587e:	88 e0       	ldi	r24, 0x08	; 8
    5880:	0e 94 42 34 	call	0x6884	; 0x6884 <spiTransferByte>
	spiTransferByte(addr);
    5884:	8d 2f       	mov	r24, r29
    5886:	fe d7       	rcall	.+4092   	; 0x6884 <spiTransferByte>
	spiTransferByte(data);
    5888:	8c 2f       	mov	r24, r28
    588a:	fc d7       	rcall	.+4088   	; 0x6884 <spiTransferByte>
	deSelectADC2518();
    588c:	91 d0       	rcall	.+290    	; 0x59b0 <deSelectADC2518>
    588e:	df 91       	pop	r29
}
    5890:	cf 91       	pop	r28
    5892:	08 95       	ret

00005894 <ADC_RegisterRead>:
    5894:	cf 93       	push	r28

uint8_t ADC_RegisterRead(uint8_t addr,  uint8_t data)
{
    5896:	df 93       	push	r29
    5898:	d8 2f       	mov	r29, r24
    589a:	c6 2f       	mov	r28, r22
	uint8_t sDataOut;
	selectADC2518();
    589c:	83 d0       	rcall	.+262    	; 0x59a4 <selectADC2518>
	spiTransferByte(REG_RD);
    589e:	80 e1       	ldi	r24, 0x10	; 16
    58a0:	f1 d7       	rcall	.+4066   	; 0x6884 <spiTransferByte>
	spiTransferByte(addr);
    58a2:	8d 2f       	mov	r24, r29
    58a4:	ef d7       	rcall	.+4062   	; 0x6884 <spiTransferByte>
	spiTransferByte(data);
    58a6:	8c 2f       	mov	r24, r28
    58a8:	ed d7       	rcall	.+4058   	; 0x6884 <spiTransferByte>
	deSelectADC2518();
    58aa:	82 d0       	rcall	.+260    	; 0x59b0 <deSelectADC2518>
	selectADC2518();
    58ac:	7b d0       	rcall	.+246    	; 0x59a4 <selectADC2518>
	sDataOut = spiTransferByte(REG_RD);
    58ae:	80 e1       	ldi	r24, 0x10	; 16
    58b0:	e9 d7       	rcall	.+4050   	; 0x6884 <spiTransferByte>
    58b2:	c8 2f       	mov	r28, r24
	spiTransferByte(DUMMY_DATA);
    58b4:	80 e0       	ldi	r24, 0x00	; 0
    58b6:	e6 d7       	rcall	.+4044   	; 0x6884 <spiTransferByte>
    58b8:	80 e0       	ldi	r24, 0x00	; 0
	spiTransferByte(DUMMY_DATA);
    58ba:	e4 d7       	rcall	.+4040   	; 0x6884 <spiTransferByte>
    58bc:	8c 2f       	mov	r24, r28
    58be:	df 91       	pop	r29
	return sDataOut;
}
    58c0:	cf 91       	pop	r28
    58c2:	08 95       	ret

000058c4 <ADC_RegisterReadWrite>:
    58c4:	0f 93       	push	r16
    58c6:	1f 93       	push	r17


// to read data
uint16_t ADC_RegisterReadWrite(uint8_t addr,  uint8_t data)
{
    58c8:	cf 93       	push	r28
    58ca:	df 93       	push	r29
    58cc:	08 2f       	mov	r16, r24
    58ce:	16 2f       	mov	r17, r22
	uint16_t ret=0;
	uint8_t  dog=0;
	selectADC2518();
    58d0:	69 d0       	rcall	.+210    	; 0x59a4 <selectADC2518>
	ret = spiTransferByte(REG_WR)<<8;
    58d2:	88 e0       	ldi	r24, 0x08	; 8
    58d4:	d7 d7       	rcall	.+4014   	; 0x6884 <spiTransferByte>
    58d6:	90 e0       	ldi	r25, 0x00	; 0
    58d8:	c9 2f       	mov	r28, r25
    58da:	d8 2f       	mov	r29, r24
	ret += spiTransferByte(addr);
    58dc:	80 2f       	mov	r24, r16
    58de:	d2 d7       	rcall	.+4004   	; 0x6884 <spiTransferByte>
    58e0:	c8 0f       	add	r28, r24
    58e2:	d1 1d       	adc	r29, r1
	dog += spiTransferByte(data);
    58e4:	81 2f       	mov	r24, r17
    58e6:	ce d7       	rcall	.+3996   	; 0x6884 <spiTransferByte>
    58e8:	18 2f       	mov	r17, r24
	deSelectADC2518();
    58ea:	62 d0       	rcall	.+196    	; 0x59b0 <deSelectADC2518>
    58ec:	1f 92       	push	r1
	printf("adc2518 = 0x%4X%02X\n", ret,dog);
    58ee:	1f 93       	push	r17
    58f0:	df 93       	push	r29
    58f2:	cf 93       	push	r28
    58f4:	88 e7       	ldi	r24, 0x78	; 120
    58f6:	90 e1       	ldi	r25, 0x10	; 16
    58f8:	9f 93       	push	r25
    58fa:	8f 93       	push	r24
    58fc:	0e 94 63 42 	call	0x84c6	; 0x84c6 <printf>
    5900:	0f 90       	pop	r0
	return ret;
    5902:	0f 90       	pop	r0
    5904:	0f 90       	pop	r0
    5906:	0f 90       	pop	r0
    5908:	0f 90       	pop	r0
    590a:	0f 90       	pop	r0
    590c:	ce 01       	movw	r24, r28
    590e:	df 91       	pop	r29
    5910:	cf 91       	pop	r28
    5912:	1f 91       	pop	r17
    5914:	0f 91       	pop	r16
    5916:	08 95       	ret

00005918 <enableBuck014>:
    5918:	61 e0       	ldi	r22, 0x01	; 1
void powerDownWickSensor(void)	{  	PORTE |=   _BV(WICK_SENSOR_POWER);		}	


void toggleHeartBeat()		{	PORTL ^=  _BV(HEARTBEAT_LED);			} 
void HeartBeatOn()			{	PORTL |=  _BV(HEARTBEAT_LED);			}
void HeartBeatOff()			{	PORTL &= ~_BV(HEARTBEAT_LED);			}
    591a:	70 e0       	ldi	r23, 0x00	; 0
    591c:	86 e0       	ldi	r24, 0x06	; 6
    591e:	90 e0       	ldi	r25, 0x00	; 0
    5920:	0c 94 af 13 	jmp	0x275e	; 0x275e <ADC_wrGPO>
    5924:	08 95       	ret

00005926 <disableBuck014>:
    5926:	60 e0       	ldi	r22, 0x00	; 0
    5928:	70 e0       	ldi	r23, 0x00	; 0
    592a:	86 e0       	ldi	r24, 0x06	; 6
    592c:	90 e0       	ldi	r25, 0x00	; 0
    592e:	0c 94 af 13 	jmp	0x275e	; 0x275e <ADC_wrGPO>
    5932:	08 95       	ret

00005934 <enableBuck2>:
    5934:	84 b3       	in	r24, 0x14	; 20
    5936:	81 60       	ori	r24, 0x01	; 1
    5938:	84 bb       	out	0x14, r24	; 20
    593a:	08 95       	ret

0000593c <disableBuck2>:
    593c:	84 b3       	in	r24, 0x14	; 20
    593e:	8e 7f       	andi	r24, 0xFE	; 254
    5940:	84 bb       	out	0x14, r24	; 20
    5942:	08 95       	ret

00005944 <enableBuck3>:
    5944:	84 b3       	in	r24, 0x14	; 20
    5946:	82 60       	ori	r24, 0x02	; 2
    5948:	84 bb       	out	0x14, r24	; 20
    594a:	08 95       	ret

0000594c <disableBuck3>:
    594c:	84 b3       	in	r24, 0x14	; 20
    594e:	8d 7f       	andi	r24, 0xFD	; 253
    5950:	84 bb       	out	0x14, r24	; 20
    5952:	08 95       	ret

00005954 <enableBuck5>:
    5954:	eb e0       	ldi	r30, 0x0B	; 11
    5956:	f1 e0       	ldi	r31, 0x01	; 1
    5958:	80 81       	ld	r24, Z
    595a:	80 68       	ori	r24, 0x80	; 128
    595c:	80 83       	st	Z, r24
    595e:	08 95       	ret

00005960 <disableBuck5>:
    5960:	eb e0       	ldi	r30, 0x0B	; 11
    5962:	f1 e0       	ldi	r31, 0x01	; 1
    5964:	80 81       	ld	r24, Z
    5966:	8f 77       	andi	r24, 0x7F	; 127
    5968:	80 83       	st	Z, r24
    596a:	08 95       	ret

0000596c <powerUpWickSensor>:
    596c:	8e b1       	in	r24, 0x0e	; 14
    596e:	8b 7f       	andi	r24, 0xFB	; 251
    5970:	8e b9       	out	0x0e, r24	; 14
    5972:	08 95       	ret

00005974 <powerDownWickSensor>:
    5974:	8e b1       	in	r24, 0x0e	; 14
    5976:	84 60       	ori	r24, 0x04	; 4
    5978:	8e b9       	out	0x0e, r24	; 14
    597a:	08 95       	ret

0000597c <selectFRAM>:

   /* SPI  CHIP SELECTS-- Active Low EXCEPT for SD CARD!! */
void selectFRAM()			{	PORTB &= ~_BV(SPI_CS_FRAM);				}
    597c:	85 b1       	in	r24, 0x05	; 5
    597e:	8e 7f       	andi	r24, 0xFE	; 254
    5980:	85 b9       	out	0x05, r24	; 5
    5982:	08 95       	ret

00005984 <deSelectFRAM>:
void deSelectFRAM()			{	PORTB |=  _BV(SPI_CS_FRAM);				}
    5984:	85 b1       	in	r24, 0x05	; 5
    5986:	81 60       	ori	r24, 0x01	; 1
    5988:	85 b9       	out	0x05, r24	; 5
    598a:	08 95       	ret

0000598c <selectOpticsDAC>:

void selectOpticsDAC()		{	PORTH &= ~_BV(SPI_CS_OPTICS_DAC);		}
    598c:	e2 e0       	ldi	r30, 0x02	; 2
    598e:	f1 e0       	ldi	r31, 0x01	; 1
    5990:	80 81       	ld	r24, Z
    5992:	8e 7f       	andi	r24, 0xFE	; 254
    5994:	80 83       	st	Z, r24
    5996:	08 95       	ret

00005998 <deSelectOpticsDAC>:
void deSelectOpticsDAC() 	{	PORTH |=  _BV(SPI_CS_OPTICS_DAC);		} 
    5998:	e2 e0       	ldi	r30, 0x02	; 2
    599a:	f1 e0       	ldi	r31, 0x01	; 1
    599c:	80 81       	ld	r24, Z
    599e:	81 60       	ori	r24, 0x01	; 1
    59a0:	80 83       	st	Z, r24
    59a2:	08 95       	ret

000059a4 <selectADC2518>:

void selectADC2518()	    {	PORTH &= ~_BV(SPI_CS_CURRENT_ADC);		}
    59a4:	e2 e0       	ldi	r30, 0x02	; 2
    59a6:	f1 e0       	ldi	r31, 0x01	; 1
    59a8:	80 81       	ld	r24, Z
    59aa:	8d 7f       	andi	r24, 0xFD	; 253
    59ac:	80 83       	st	Z, r24
    59ae:	08 95       	ret

000059b0 <deSelectADC2518>:
void deSelectADC2518()	{	PORTH |=  _BV(SPI_CS_CURRENT_ADC);		}
    59b0:	e2 e0       	ldi	r30, 0x02	; 2
    59b2:	f1 e0       	ldi	r31, 0x01	; 1
    59b4:	80 81       	ld	r24, Z
    59b6:	82 60       	ori	r24, 0x02	; 2
    59b8:	80 83       	st	Z, r24
    59ba:	08 95       	ret

000059bc <selectBuckCtrlDAC>:

void selectBuckCtrlDAC()	{	PORTH &= ~_BV(SPI_CS_BUCK_CTRL_DAC);	}
    59bc:	e2 e0       	ldi	r30, 0x02	; 2
    59be:	f1 e0       	ldi	r31, 0x01	; 1
    59c0:	80 81       	ld	r24, Z
    59c2:	8b 7f       	andi	r24, 0xFB	; 251
    59c4:	80 83       	st	Z, r24
    59c6:	08 95       	ret

000059c8 <deSelectBuckCtrlDAC>:
void deSelectBuckCtrlDAC()	{	PORTH |=  _BV(SPI_CS_BUCK_CTRL_DAC);	}
    59c8:	e2 e0       	ldi	r30, 0x02	; 2
    59ca:	f1 e0       	ldi	r31, 0x01	; 1
    59cc:	80 81       	ld	r24, Z
    59ce:	84 60       	ori	r24, 0x04	; 4
    59d0:	80 83       	st	Z, r24
    59d2:	08 95       	ret

000059d4 <selectFlash>:

void selectFlash()			{	PORTH &= ~_BV(SPI_CS_FLASH);			}
    59d4:	e2 e0       	ldi	r30, 0x02	; 2
    59d6:	f1 e0       	ldi	r31, 0x01	; 1
    59d8:	80 81       	ld	r24, Z
    59da:	87 7f       	andi	r24, 0xF7	; 247
    59dc:	80 83       	st	Z, r24
    59de:	08 95       	ret

000059e0 <deSelectFlash>:
void deSelectFlash()		{	PORTH |=  _BV(SPI_CS_FLASH);			}
    59e0:	e2 e0       	ldi	r30, 0x02	; 2
    59e2:	f1 e0       	ldi	r31, 0x01	; 1
    59e4:	80 81       	ld	r24, Z
    59e6:	88 60       	ori	r24, 0x08	; 8
    59e8:	80 83       	st	Z, r24
    59ea:	08 95       	ret

000059ec <deSelectRTC>:

void deSelectRTC()			{	PORTH |=  _BV(SPI_CS_RTC);				}
    59ec:	e2 e0       	ldi	r30, 0x02	; 2
    59ee:	f1 e0       	ldi	r31, 0x01	; 1
    59f0:	80 81       	ld	r24, Z
    59f2:	80 61       	ori	r24, 0x10	; 16
    59f4:	80 83       	st	Z, r24
    59f6:	08 95       	ret

000059f8 <selectRTC>:
void selectRTC()			{	PORTH &= ~_BV(SPI_CS_RTC);				}
    59f8:	e2 e0       	ldi	r30, 0x02	; 2
    59fa:	f1 e0       	ldi	r31, 0x01	; 1
    59fc:	80 81       	ld	r24, Z
    59fe:	8f 7e       	andi	r24, 0xEF	; 239
    5a00:	80 83       	st	Z, r24
    5a02:	08 95       	ret

00005a04 <selectSDcard>:


void selectSDcard()			{	PORTH |=  _BV(SPI_CS_SDCARD);			}         // SD is active hi!
    5a04:	e2 e0       	ldi	r30, 0x02	; 2
    5a06:	f1 e0       	ldi	r31, 0x01	; 1
    5a08:	80 81       	ld	r24, Z
    5a0a:	80 62       	ori	r24, 0x20	; 32
    5a0c:	80 83       	st	Z, r24
    5a0e:	08 95       	ret

00005a10 <deSelectSDcard>:
void deSelectSDcard()		{	PORTH &= ~_BV(SPI_CS_SDCARD);			}		  // SD is active hi!
    5a10:	e2 e0       	ldi	r30, 0x02	; 2
    5a12:	f1 e0       	ldi	r31, 0x01	; 1
    5a14:	80 81       	ld	r24, Z
    5a16:	8f 7d       	andi	r24, 0xDF	; 223
    5a18:	80 83       	st	Z, r24
    5a1a:	08 95       	ret

00005a1c <spi_FlashInitialize>:
	else
		printf_P(PSTR("spi_FlashReadFromPage: buffer crosses page boundary\n"));
	return ret;
}

uint8_t spi_FlashReadFromPage(uint32_t paddress, uint16_t address, uint8_t* buffer, uint8_t nbytes)
    5a1c:	cf 93       	push	r28
    5a1e:	df 93       	push	r29
    5a20:	00 d0       	rcall	.+0      	; 0x5a22 <spi_FlashInitialize+0x6>
    5a22:	cd b7       	in	r28, 0x3d	; 61
    5a24:	de b7       	in	r29, 0x3e	; 62
    5a26:	19 82       	std	Y+1, r1	; 0x01
    5a28:	1b 82       	std	Y+3, r1	; 0x03
    5a2a:	1a 82       	std	Y+2, r1	; 0x02
    5a2c:	6a ed       	ldi	r22, 0xDA	; 218
    5a2e:	73 e1       	ldi	r23, 0x13	; 19
    5a30:	8a ec       	ldi	r24, 0xCA	; 202
    5a32:	93 e1       	ldi	r25, 0x13	; 19
    5a34:	5f db       	rcall	.-2370   	; 0x50f4 <spi_nand_init>
    5a36:	9b 83       	std	Y+3, r25	; 0x03
    5a38:	8a 83       	std	Y+2, r24	; 0x02
    5a3a:	89 81       	ldd	r24, Y+1	; 0x01
    5a3c:	0f 90       	pop	r0
    5a3e:	0f 90       	pop	r0
    5a40:	0f 90       	pop	r0
    5a42:	df 91       	pop	r29
    5a44:	cf 91       	pop	r28
    5a46:	08 95       	ret

00005a48 <spi_FlashDelay>:
    5a48:	cf 93       	push	r28
    5a4a:	df 93       	push	r29
    5a4c:	00 d0       	rcall	.+0      	; 0x5a4e <spi_FlashDelay+0x6>
    5a4e:	00 d0       	rcall	.+0      	; 0x5a50 <spi_FlashDelay+0x8>
    5a50:	cd b7       	in	r28, 0x3d	; 61
    5a52:	de b7       	in	r29, 0x3e	; 62
    5a54:	9e 83       	std	Y+6, r25	; 0x06
    5a56:	8d 83       	std	Y+5, r24	; 0x05
    5a58:	4d 81       	ldd	r20, Y+5	; 0x05
    5a5a:	5e 81       	ldd	r21, Y+6	; 0x06
    5a5c:	28 ee       	ldi	r18, 0xE8	; 232
    5a5e:	33 e0       	ldi	r19, 0x03	; 3
    5a60:	42 9f       	mul	r20, r18
    5a62:	c0 01       	movw	r24, r0
    5a64:	43 9f       	mul	r20, r19
    5a66:	90 0d       	add	r25, r0
    5a68:	52 9f       	mul	r21, r18
    5a6a:	90 0d       	add	r25, r0
    5a6c:	11 24       	eor	r1, r1
    5a6e:	cc 01       	movw	r24, r24
    5a70:	a0 e0       	ldi	r26, 0x00	; 0
    5a72:	b0 e0       	ldi	r27, 0x00	; 0
    5a74:	89 83       	std	Y+1, r24	; 0x01
    5a76:	9a 83       	std	Y+2, r25	; 0x02
    5a78:	ab 83       	std	Y+3, r26	; 0x03
    5a7a:	bc 83       	std	Y+4, r27	; 0x04
    5a7c:	00 00       	nop
    5a7e:	89 81       	ldd	r24, Y+1	; 0x01
    5a80:	9a 81       	ldd	r25, Y+2	; 0x02
    5a82:	ab 81       	ldd	r26, Y+3	; 0x03
    5a84:	bc 81       	ldd	r27, Y+4	; 0x04
    5a86:	9c 01       	movw	r18, r24
    5a88:	ad 01       	movw	r20, r26
    5a8a:	21 50       	subi	r18, 0x01	; 1
    5a8c:	31 09       	sbc	r19, r1
    5a8e:	41 09       	sbc	r20, r1
    5a90:	51 09       	sbc	r21, r1
    5a92:	29 83       	std	Y+1, r18	; 0x01
    5a94:	3a 83       	std	Y+2, r19	; 0x02
    5a96:	4b 83       	std	Y+3, r20	; 0x03
    5a98:	5c 83       	std	Y+4, r21	; 0x04
    5a9a:	89 2b       	or	r24, r25
    5a9c:	8a 2b       	or	r24, r26
    5a9e:	8b 2b       	or	r24, r27
    5aa0:	71 f7       	brne	.-36     	; 0x5a7e <spi_FlashDelay+0x36>
    5aa2:	00 00       	nop
    5aa4:	26 96       	adiw	r28, 0x06	; 6
    5aa6:	0f b6       	in	r0, 0x3f	; 63
    5aa8:	f8 94       	cli
    5aaa:	de bf       	out	0x3e, r29	; 62
    5aac:	0f be       	out	0x3f, r0	; 63
    5aae:	cd bf       	out	0x3d, r28	; 61
    5ab0:	df 91       	pop	r29
    5ab2:	cf 91       	pop	r28
    5ab4:	08 95       	ret

00005ab6 <spi_FlashReadID>:
    5ab6:	cf 93       	push	r28
    5ab8:	df 93       	push	r29
    5aba:	1f 92       	push	r1
    5abc:	1f 92       	push	r1
    5abe:	cd b7       	in	r28, 0x3d	; 61
    5ac0:	de b7       	in	r29, 0x3e	; 62
    5ac2:	88 df       	rcall	.-240    	; 0x59d4 <selectFlash>
    5ac4:	8f e9       	ldi	r24, 0x9F	; 159
    5ac6:	de d6       	rcall	.+3516   	; 0x6884 <spiTransferByte>
    5ac8:	80 e0       	ldi	r24, 0x00	; 0
    5aca:	dc d6       	rcall	.+3512   	; 0x6884 <spiTransferByte>
    5acc:	80 e0       	ldi	r24, 0x00	; 0
    5ace:	da d6       	rcall	.+3508   	; 0x6884 <spiTransferByte>
    5ad0:	89 83       	std	Y+1, r24	; 0x01
    5ad2:	80 e0       	ldi	r24, 0x00	; 0
    5ad4:	d7 d6       	rcall	.+3502   	; 0x6884 <spiTransferByte>
    5ad6:	8a 83       	std	Y+2, r24	; 0x02
    5ad8:	83 df       	rcall	.-250    	; 0x59e0 <deSelectFlash>
    5ada:	8a 81       	ldd	r24, Y+2	; 0x02
    5adc:	28 2f       	mov	r18, r24
    5ade:	30 e0       	ldi	r19, 0x00	; 0
    5ae0:	89 81       	ldd	r24, Y+1	; 0x01
    5ae2:	88 2f       	mov	r24, r24
    5ae4:	90 e0       	ldi	r25, 0x00	; 0
    5ae6:	43 2f       	mov	r20, r19
    5ae8:	4f 93       	push	r20
    5aea:	2f 93       	push	r18
    5aec:	29 2f       	mov	r18, r25
    5aee:	2f 93       	push	r18
    5af0:	8f 93       	push	r24
    5af2:	84 e6       	ldi	r24, 0x64	; 100
    5af4:	99 e0       	ldi	r25, 0x09	; 9
    5af6:	89 2f       	mov	r24, r25
    5af8:	8f 93       	push	r24
    5afa:	84 e6       	ldi	r24, 0x64	; 100
    5afc:	99 e0       	ldi	r25, 0x09	; 9
    5afe:	8f 93       	push	r24
    5b00:	0e 94 63 42 	call	0x84c6	; 0x84c6 <printf>
    5b04:	0f 90       	pop	r0
    5b06:	0f 90       	pop	r0
    5b08:	0f 90       	pop	r0
    5b0a:	0f 90       	pop	r0
    5b0c:	0f 90       	pop	r0
    5b0e:	0f 90       	pop	r0
    5b10:	00 00       	nop
    5b12:	0f 90       	pop	r0
    5b14:	0f 90       	pop	r0
    5b16:	df 91       	pop	r29
    5b18:	cf 91       	pop	r28
    5b1a:	08 95       	ret

00005b1c <spi_FlashWaitUntilReady>:
    5b1c:	cf 93       	push	r28
    5b1e:	df 93       	push	r29
    5b20:	1f 92       	push	r1
    5b22:	cd b7       	in	r28, 0x3d	; 61
    5b24:	de b7       	in	r29, 0x3e	; 62
    5b26:	8a e0       	ldi	r24, 0x0A	; 10
    5b28:	89 83       	std	Y+1, r24	; 0x01
    5b2a:	06 c0       	rjmp	.+12     	; 0x5b38 <spi_FlashWaitUntilReady+0x1c>
    5b2c:	81 e0       	ldi	r24, 0x01	; 1
    5b2e:	90 e0       	ldi	r25, 0x00	; 0
    5b30:	8b df       	rcall	.-234    	; 0x5a48 <spi_FlashDelay>
    5b32:	89 81       	ldd	r24, Y+1	; 0x01
    5b34:	81 50       	subi	r24, 0x01	; 1
    5b36:	89 83       	std	Y+1, r24	; 0x01
    5b38:	0e d0       	rcall	.+28     	; 0x5b56 <spi_FlashIsBusy>
    5b3a:	88 23       	and	r24, r24
    5b3c:	19 f0       	breq	.+6      	; 0x5b44 <spi_FlashWaitUntilReady+0x28>
    5b3e:	89 81       	ldd	r24, Y+1	; 0x01
    5b40:	88 23       	and	r24, r24
    5b42:	a1 f7       	brne	.-24     	; 0x5b2c <spi_FlashWaitUntilReady+0x10>
    5b44:	81 e0       	ldi	r24, 0x01	; 1
    5b46:	99 81       	ldd	r25, Y+1	; 0x01
    5b48:	99 23       	and	r25, r25
    5b4a:	09 f4       	brne	.+2      	; 0x5b4e <spi_FlashWaitUntilReady+0x32>
    5b4c:	80 e0       	ldi	r24, 0x00	; 0
    5b4e:	0f 90       	pop	r0
    5b50:	df 91       	pop	r29
    5b52:	cf 91       	pop	r28
    5b54:	08 95       	ret

00005b56 <spi_FlashIsBusy>:
    5b56:	cf 93       	push	r28
    5b58:	df 93       	push	r29
    5b5a:	1f 92       	push	r1
    5b5c:	1f 92       	push	r1
    5b5e:	cd b7       	in	r28, 0x3d	; 61
    5b60:	de b7       	in	r29, 0x3e	; 62
    5b62:	19 82       	std	Y+1, r1	; 0x01
    5b64:	23 d0       	rcall	.+70     	; 0x5bac <spi_FlashGetStatusRegister>
    5b66:	8a 83       	std	Y+2, r24	; 0x02
    5b68:	89 81       	ldd	r24, Y+1	; 0x01
    5b6a:	88 2f       	mov	r24, r24
    5b6c:	90 e0       	ldi	r25, 0x00	; 0
    5b6e:	29 2f       	mov	r18, r25
    5b70:	2f 93       	push	r18
    5b72:	8f 93       	push	r24
    5b74:	85 e7       	ldi	r24, 0x75	; 117
    5b76:	99 e0       	ldi	r25, 0x09	; 9
    5b78:	89 2f       	mov	r24, r25
    5b7a:	8f 93       	push	r24
    5b7c:	85 e7       	ldi	r24, 0x75	; 117
    5b7e:	99 e0       	ldi	r25, 0x09	; 9
    5b80:	8f 93       	push	r24
    5b82:	0e 94 63 42 	call	0x84c6	; 0x84c6 <printf>
    5b86:	0f 90       	pop	r0
    5b88:	0f 90       	pop	r0
    5b8a:	0f 90       	pop	r0
    5b8c:	0f 90       	pop	r0
    5b8e:	8a 81       	ldd	r24, Y+2	; 0x02
    5b90:	88 2f       	mov	r24, r24
    5b92:	90 e0       	ldi	r25, 0x00	; 0
    5b94:	81 78       	andi	r24, 0x81	; 129
    5b96:	99 27       	eor	r25, r25
    5b98:	89 2b       	or	r24, r25
    5b9a:	11 f0       	breq	.+4      	; 0x5ba0 <spi_FlashIsBusy+0x4a>
    5b9c:	81 e0       	ldi	r24, 0x01	; 1
    5b9e:	89 83       	std	Y+1, r24	; 0x01
    5ba0:	89 81       	ldd	r24, Y+1	; 0x01
    5ba2:	0f 90       	pop	r0
    5ba4:	0f 90       	pop	r0
    5ba6:	df 91       	pop	r29
    5ba8:	cf 91       	pop	r28
    5baa:	08 95       	ret

00005bac <spi_FlashGetStatusRegister>:
    5bac:	cf 93       	push	r28
    5bae:	df 93       	push	r29
    5bb0:	cd b7       	in	r28, 0x3d	; 61
    5bb2:	de b7       	in	r29, 0x3e	; 62
    5bb4:	80 ec       	ldi	r24, 0xC0	; 192
    5bb6:	5b d0       	rcall	.+182    	; 0x5c6e <spi_FlashGetFeatures>
    5bb8:	df 91       	pop	r29
    5bba:	cf 91       	pop	r28
    5bbc:	08 95       	ret

00005bbe <spi_FlashDisplayFeatureRegisters>:
    5bbe:	cf 93       	push	r28
    5bc0:	df 93       	push	r29
    5bc2:	cd b7       	in	r28, 0x3d	; 61
    5bc4:	de b7       	in	r29, 0x3e	; 62
    5bc6:	80 ea       	ldi	r24, 0xA0	; 160
    5bc8:	52 d0       	rcall	.+164    	; 0x5c6e <spi_FlashGetFeatures>
    5bca:	88 2f       	mov	r24, r24
    5bcc:	90 e0       	ldi	r25, 0x00	; 0
    5bce:	29 2f       	mov	r18, r25
    5bd0:	2f 93       	push	r18
    5bd2:	8f 93       	push	r24
    5bd4:	8e e8       	ldi	r24, 0x8E	; 142
    5bd6:	99 e0       	ldi	r25, 0x09	; 9
    5bd8:	89 2f       	mov	r24, r25
    5bda:	8f 93       	push	r24
    5bdc:	8e e8       	ldi	r24, 0x8E	; 142
    5bde:	99 e0       	ldi	r25, 0x09	; 9
    5be0:	8f 93       	push	r24
    5be2:	0e 94 63 42 	call	0x84c6	; 0x84c6 <printf>
    5be6:	0f 90       	pop	r0
    5be8:	0f 90       	pop	r0
    5bea:	0f 90       	pop	r0
    5bec:	0f 90       	pop	r0
    5bee:	80 eb       	ldi	r24, 0xB0	; 176
    5bf0:	3e d0       	rcall	.+124    	; 0x5c6e <spi_FlashGetFeatures>
    5bf2:	88 2f       	mov	r24, r24
    5bf4:	90 e0       	ldi	r25, 0x00	; 0
    5bf6:	29 2f       	mov	r18, r25
    5bf8:	2f 93       	push	r18
    5bfa:	8f 93       	push	r24
    5bfc:	8a ea       	ldi	r24, 0xAA	; 170
    5bfe:	99 e0       	ldi	r25, 0x09	; 9
    5c00:	89 2f       	mov	r24, r25
    5c02:	8f 93       	push	r24
    5c04:	8a ea       	ldi	r24, 0xAA	; 170
    5c06:	99 e0       	ldi	r25, 0x09	; 9
    5c08:	8f 93       	push	r24
    5c0a:	0e 94 63 42 	call	0x84c6	; 0x84c6 <printf>
    5c0e:	0f 90       	pop	r0
    5c10:	0f 90       	pop	r0
    5c12:	0f 90       	pop	r0
    5c14:	0f 90       	pop	r0
    5c16:	80 ec       	ldi	r24, 0xC0	; 192
    5c18:	2a d0       	rcall	.+84     	; 0x5c6e <spi_FlashGetFeatures>
    5c1a:	88 2f       	mov	r24, r24
    5c1c:	90 e0       	ldi	r25, 0x00	; 0
    5c1e:	29 2f       	mov	r18, r25
    5c20:	2f 93       	push	r18
    5c22:	8f 93       	push	r24
    5c24:	86 ec       	ldi	r24, 0xC6	; 198
    5c26:	99 e0       	ldi	r25, 0x09	; 9
    5c28:	89 2f       	mov	r24, r25
    5c2a:	8f 93       	push	r24
    5c2c:	86 ec       	ldi	r24, 0xC6	; 198
    5c2e:	99 e0       	ldi	r25, 0x09	; 9
    5c30:	8f 93       	push	r24
    5c32:	0e 94 63 42 	call	0x84c6	; 0x84c6 <printf>
    5c36:	0f 90       	pop	r0
    5c38:	0f 90       	pop	r0
    5c3a:	0f 90       	pop	r0
    5c3c:	0f 90       	pop	r0
    5c3e:	80 ed       	ldi	r24, 0xD0	; 208
    5c40:	16 d0       	rcall	.+44     	; 0x5c6e <spi_FlashGetFeatures>
    5c42:	88 2f       	mov	r24, r24
    5c44:	90 e0       	ldi	r25, 0x00	; 0
    5c46:	29 2f       	mov	r18, r25
    5c48:	2f 93       	push	r18
    5c4a:	8f 93       	push	r24
    5c4c:	82 ee       	ldi	r24, 0xE2	; 226
    5c4e:	99 e0       	ldi	r25, 0x09	; 9
    5c50:	89 2f       	mov	r24, r25
    5c52:	8f 93       	push	r24
    5c54:	82 ee       	ldi	r24, 0xE2	; 226
    5c56:	99 e0       	ldi	r25, 0x09	; 9
    5c58:	8f 93       	push	r24
    5c5a:	0e 94 63 42 	call	0x84c6	; 0x84c6 <printf>
    5c5e:	0f 90       	pop	r0
    5c60:	0f 90       	pop	r0
    5c62:	0f 90       	pop	r0
    5c64:	0f 90       	pop	r0
    5c66:	00 00       	nop
    5c68:	df 91       	pop	r29
    5c6a:	cf 91       	pop	r28
    5c6c:	08 95       	ret

00005c6e <spi_FlashGetFeatures>:
    5c6e:	cf 93       	push	r28
    5c70:	df 93       	push	r29
    5c72:	1f 92       	push	r1
    5c74:	1f 92       	push	r1
    5c76:	cd b7       	in	r28, 0x3d	; 61
    5c78:	de b7       	in	r29, 0x3e	; 62
    5c7a:	8a 83       	std	Y+2, r24	; 0x02
    5c7c:	ab de       	rcall	.-682    	; 0x59d4 <selectFlash>
    5c7e:	8f e0       	ldi	r24, 0x0F	; 15
    5c80:	01 d6       	rcall	.+3074   	; 0x6884 <spiTransferByte>
    5c82:	8a 81       	ldd	r24, Y+2	; 0x02
    5c84:	ff d5       	rcall	.+3070   	; 0x6884 <spiTransferByte>
    5c86:	80 e0       	ldi	r24, 0x00	; 0
    5c88:	fd d5       	rcall	.+3066   	; 0x6884 <spiTransferByte>
    5c8a:	89 83       	std	Y+1, r24	; 0x01
    5c8c:	a9 de       	rcall	.-686    	; 0x59e0 <deSelectFlash>
    5c8e:	89 81       	ldd	r24, Y+1	; 0x01
    5c90:	0f 90       	pop	r0
    5c92:	0f 90       	pop	r0
    5c94:	df 91       	pop	r29
    5c96:	cf 91       	pop	r28
    5c98:	08 95       	ret

00005c9a <spi_FlashSetFeatures>:
    5c9a:	cf 93       	push	r28
    5c9c:	df 93       	push	r29
    5c9e:	1f 92       	push	r1
    5ca0:	1f 92       	push	r1
    5ca2:	cd b7       	in	r28, 0x3d	; 61
    5ca4:	de b7       	in	r29, 0x3e	; 62
    5ca6:	89 83       	std	Y+1, r24	; 0x01
    5ca8:	6a 83       	std	Y+2, r22	; 0x02
    5caa:	94 de       	rcall	.-728    	; 0x59d4 <selectFlash>
    5cac:	8f e1       	ldi	r24, 0x1F	; 31
    5cae:	ea d5       	rcall	.+3028   	; 0x6884 <spiTransferByte>
    5cb0:	89 81       	ldd	r24, Y+1	; 0x01
    5cb2:	e8 d5       	rcall	.+3024   	; 0x6884 <spiTransferByte>
    5cb4:	8a 81       	ldd	r24, Y+2	; 0x02
    5cb6:	e6 d5       	rcall	.+3020   	; 0x6884 <spiTransferByte>
    5cb8:	93 de       	rcall	.-730    	; 0x59e0 <deSelectFlash>
    5cba:	89 81       	ldd	r24, Y+1	; 0x01
    5cbc:	d8 df       	rcall	.-80     	; 0x5c6e <spi_FlashGetFeatures>
    5cbe:	0f 90       	pop	r0
    5cc0:	0f 90       	pop	r0
    5cc2:	df 91       	pop	r29
    5cc4:	cf 91       	pop	r28
    5cc6:	08 95       	ret

00005cc8 <spi_FlashUnlockAllBlocks>:
    5cc8:	cf 93       	push	r28
    5cca:	df 93       	push	r29
    5ccc:	1f 92       	push	r1
    5cce:	cd b7       	in	r28, 0x3d	; 61
    5cd0:	de b7       	in	r29, 0x3e	; 62
    5cd2:	60 e0       	ldi	r22, 0x00	; 0
    5cd4:	80 ea       	ldi	r24, 0xA0	; 160
    5cd6:	e1 df       	rcall	.-62     	; 0x5c9a <spi_FlashSetFeatures>
    5cd8:	80 ea       	ldi	r24, 0xA0	; 160
    5cda:	c9 df       	rcall	.-110    	; 0x5c6e <spi_FlashGetFeatures>
    5cdc:	89 83       	std	Y+1, r24	; 0x01
    5cde:	89 81       	ldd	r24, Y+1	; 0x01
    5ce0:	88 2f       	mov	r24, r24
    5ce2:	90 e0       	ldi	r25, 0x00	; 0
    5ce4:	29 2f       	mov	r18, r25
    5ce6:	2f 93       	push	r18
    5ce8:	8f 93       	push	r24
    5cea:	8e ef       	ldi	r24, 0xFE	; 254
    5cec:	99 e0       	ldi	r25, 0x09	; 9
    5cee:	89 2f       	mov	r24, r25
    5cf0:	8f 93       	push	r24
    5cf2:	8e ef       	ldi	r24, 0xFE	; 254
    5cf4:	99 e0       	ldi	r25, 0x09	; 9
    5cf6:	8f 93       	push	r24
    5cf8:	0e 94 63 42 	call	0x84c6	; 0x84c6 <printf>
    5cfc:	0f 90       	pop	r0
    5cfe:	0f 90       	pop	r0
    5d00:	0f 90       	pop	r0
    5d02:	0f 90       	pop	r0
    5d04:	00 00       	nop
    5d06:	0f 90       	pop	r0
    5d08:	df 91       	pop	r29
    5d0a:	cf 91       	pop	r28
    5d0c:	08 95       	ret

00005d0e <spi_FlashEnableWrite>:
    5d0e:	cf 93       	push	r28
    5d10:	df 93       	push	r29
    5d12:	1f 92       	push	r1
    5d14:	cd b7       	in	r28, 0x3d	; 61
    5d16:	de b7       	in	r29, 0x3e	; 62
    5d18:	5d de       	rcall	.-838    	; 0x59d4 <selectFlash>
    5d1a:	86 e0       	ldi	r24, 0x06	; 6
    5d1c:	b3 d5       	rcall	.+2918   	; 0x6884 <spiTransferByte>
    5d1e:	60 de       	rcall	.-832    	; 0x59e0 <deSelectFlash>
    5d20:	45 df       	rcall	.-374    	; 0x5bac <spi_FlashGetStatusRegister>
    5d22:	89 83       	std	Y+1, r24	; 0x01
    5d24:	89 81       	ldd	r24, Y+1	; 0x01
    5d26:	88 2f       	mov	r24, r24
    5d28:	90 e0       	ldi	r25, 0x00	; 0
    5d2a:	82 70       	andi	r24, 0x02	; 2
    5d2c:	99 27       	eor	r25, r25
    5d2e:	21 e0       	ldi	r18, 0x01	; 1
    5d30:	89 2b       	or	r24, r25
    5d32:	09 f4       	brne	.+2      	; 0x5d36 <spi_FlashEnableWrite+0x28>
    5d34:	20 e0       	ldi	r18, 0x00	; 0
    5d36:	82 2f       	mov	r24, r18
    5d38:	0f 90       	pop	r0
    5d3a:	df 91       	pop	r29
    5d3c:	cf 91       	pop	r28
    5d3e:	08 95       	ret

00005d40 <spi_FlashDisableWrite>:
    5d40:	cf 93       	push	r28
    5d42:	df 93       	push	r29
    5d44:	1f 92       	push	r1
    5d46:	cd b7       	in	r28, 0x3d	; 61
    5d48:	de b7       	in	r29, 0x3e	; 62
    5d4a:	44 de       	rcall	.-888    	; 0x59d4 <selectFlash>
    5d4c:	84 e0       	ldi	r24, 0x04	; 4
    5d4e:	9a d5       	rcall	.+2868   	; 0x6884 <spiTransferByte>
    5d50:	47 de       	rcall	.-882    	; 0x59e0 <deSelectFlash>
    5d52:	2c df       	rcall	.-424    	; 0x5bac <spi_FlashGetStatusRegister>
    5d54:	89 83       	std	Y+1, r24	; 0x01
    5d56:	89 81       	ldd	r24, Y+1	; 0x01
    5d58:	88 2f       	mov	r24, r24
    5d5a:	90 e0       	ldi	r25, 0x00	; 0
    5d5c:	82 70       	andi	r24, 0x02	; 2
    5d5e:	99 27       	eor	r25, r25
    5d60:	21 e0       	ldi	r18, 0x01	; 1
    5d62:	89 2b       	or	r24, r25
    5d64:	09 f0       	breq	.+2      	; 0x5d68 <spi_FlashDisableWrite+0x28>
    5d66:	20 e0       	ldi	r18, 0x00	; 0
    5d68:	82 2f       	mov	r24, r18
    5d6a:	0f 90       	pop	r0
    5d6c:	df 91       	pop	r29
    5d6e:	cf 91       	pop	r28
    5d70:	08 95       	ret

00005d72 <spi_FlashWriteToPage>:
    5d72:	2f 92       	push	r2
    5d74:	3f 92       	push	r3
    5d76:	4f 92       	push	r4
    5d78:	5f 92       	push	r5
    5d7a:	6f 92       	push	r6
    5d7c:	7f 92       	push	r7
    5d7e:	8f 92       	push	r8
    5d80:	9f 92       	push	r9
    5d82:	af 92       	push	r10
    5d84:	bf 92       	push	r11
    5d86:	cf 92       	push	r12
    5d88:	df 92       	push	r13
    5d8a:	ef 92       	push	r14
    5d8c:	ff 92       	push	r15
    5d8e:	0f 93       	push	r16
    5d90:	1f 93       	push	r17
    5d92:	cf 93       	push	r28
    5d94:	df 93       	push	r29
    5d96:	cd b7       	in	r28, 0x3d	; 61
    5d98:	de b7       	in	r29, 0x3e	; 62
    5d9a:	65 97       	sbiw	r28, 0x15	; 21
    5d9c:	0f b6       	in	r0, 0x3f	; 63
    5d9e:	f8 94       	cli
    5da0:	de bf       	out	0x3e, r29	; 62
    5da2:	0f be       	out	0x3f, r0	; 63
    5da4:	cd bf       	out	0x3d, r28	; 61
    5da6:	6d 87       	std	Y+13, r22	; 0x0d
    5da8:	7e 87       	std	Y+14, r23	; 0x0e
    5daa:	8f 87       	std	Y+15, r24	; 0x0f
    5dac:	98 8b       	std	Y+16, r25	; 0x10
    5dae:	5a 8b       	std	Y+18, r21	; 0x12
    5db0:	49 8b       	std	Y+17, r20	; 0x11
    5db2:	3c 8b       	std	Y+20, r19	; 0x14
    5db4:	2b 8b       	std	Y+19, r18	; 0x13
    5db6:	0d 8b       	std	Y+21, r16	; 0x15
    5db8:	8d 85       	ldd	r24, Y+13	; 0x0d
    5dba:	9e 85       	ldd	r25, Y+14	; 0x0e
    5dbc:	af 85       	ldd	r26, Y+15	; 0x0f
    5dbe:	b8 89       	ldd	r27, Y+16	; 0x10
    5dc0:	9c 01       	movw	r18, r24
    5dc2:	ad 01       	movw	r20, r26
    5dc4:	01 2e       	mov	r0, r17
    5dc6:	1b e0       	ldi	r17, 0x0B	; 11
    5dc8:	22 0f       	add	r18, r18
    5dca:	33 1f       	adc	r19, r19
    5dcc:	44 1f       	adc	r20, r20
    5dce:	55 1f       	adc	r21, r21
    5dd0:	1a 95       	dec	r17
    5dd2:	d1 f7       	brne	.-12     	; 0x5dc8 <spi_FlashWriteToPage+0x56>
    5dd4:	10 2d       	mov	r17, r0
    5dd6:	89 89       	ldd	r24, Y+17	; 0x11
    5dd8:	9a 89       	ldd	r25, Y+18	; 0x12
    5dda:	cc 01       	movw	r24, r24
    5ddc:	a0 e0       	ldi	r26, 0x00	; 0
    5dde:	b0 e0       	ldi	r27, 0x00	; 0
    5de0:	82 0f       	add	r24, r18
    5de2:	93 1f       	adc	r25, r19
    5de4:	a4 1f       	adc	r26, r20
    5de6:	b5 1f       	adc	r27, r21
    5de8:	9c 01       	movw	r18, r24
    5dea:	ad 01       	movw	r20, r26
    5dec:	60 e0       	ldi	r22, 0x00	; 0
    5dee:	70 e0       	ldi	r23, 0x00	; 0
    5df0:	cb 01       	movw	r24, r22
    5df2:	29 83       	std	Y+1, r18	; 0x01
    5df4:	3a 83       	std	Y+2, r19	; 0x02
    5df6:	4b 83       	std	Y+3, r20	; 0x03
    5df8:	5c 83       	std	Y+4, r21	; 0x04
    5dfa:	6d 83       	std	Y+5, r22	; 0x05
    5dfc:	7e 83       	std	Y+6, r23	; 0x06
    5dfe:	8f 83       	std	Y+7, r24	; 0x07
    5e00:	98 87       	std	Y+8, r25	; 0x08
    5e02:	8d 89       	ldd	r24, Y+21	; 0x15
    5e04:	28 2f       	mov	r18, r24
    5e06:	30 e0       	ldi	r19, 0x00	; 0
    5e08:	29 80       	ldd	r2, Y+1	; 0x01
    5e0a:	3a 80       	ldd	r3, Y+2	; 0x02
    5e0c:	4b 80       	ldd	r4, Y+3	; 0x03
    5e0e:	5c 80       	ldd	r5, Y+4	; 0x04
    5e10:	6d 80       	ldd	r6, Y+5	; 0x05
    5e12:	7e 80       	ldd	r7, Y+6	; 0x06
    5e14:	8f 80       	ldd	r8, Y+7	; 0x07
    5e16:	98 84       	ldd	r9, Y+8	; 0x08
    5e18:	80 91 da 13 	lds	r24, 0x13DA	; 0x8013da <flash_chip_ptr>
    5e1c:	90 91 db 13 	lds	r25, 0x13DB	; 0x8013db <flash_chip_ptr+0x1>
    5e20:	6b 89       	ldd	r22, Y+19	; 0x13
    5e22:	7c 89       	ldd	r23, Y+20	; 0x14
    5e24:	ae 01       	movw	r20, r28
    5e26:	45 5f       	subi	r20, 0xF5	; 245
    5e28:	5f 4f       	sbci	r21, 0xFF	; 255
    5e2a:	5b 01       	movw	r10, r22
    5e2c:	6a 01       	movw	r12, r20
    5e2e:	79 01       	movw	r14, r18
    5e30:	02 2d       	mov	r16, r2
    5e32:	13 2d       	mov	r17, r3
    5e34:	24 2d       	mov	r18, r4
    5e36:	35 2d       	mov	r19, r5
    5e38:	46 2d       	mov	r20, r6
    5e3a:	57 2d       	mov	r21, r7
    5e3c:	68 2d       	mov	r22, r8
    5e3e:	79 2d       	mov	r23, r9
    5e40:	1f d9       	rcall	.-3522   	; 0x5080 <spi_nand_write>
    5e42:	9a 87       	std	Y+10, r25	; 0x0a
    5e44:	89 87       	std	Y+9, r24	; 0x09
    5e46:	89 85       	ldd	r24, Y+9	; 0x09
    5e48:	65 96       	adiw	r28, 0x15	; 21
    5e4a:	0f b6       	in	r0, 0x3f	; 63
    5e4c:	f8 94       	cli
    5e4e:	de bf       	out	0x3e, r29	; 62
    5e50:	0f be       	out	0x3f, r0	; 63
    5e52:	cd bf       	out	0x3d, r28	; 61
    5e54:	df 91       	pop	r29
    5e56:	cf 91       	pop	r28
    5e58:	1f 91       	pop	r17
    5e5a:	0f 91       	pop	r16
    5e5c:	ff 90       	pop	r15
    5e5e:	ef 90       	pop	r14
    5e60:	df 90       	pop	r13
    5e62:	cf 90       	pop	r12
    5e64:	bf 90       	pop	r11
    5e66:	af 90       	pop	r10
    5e68:	9f 90       	pop	r9
    5e6a:	8f 90       	pop	r8
    5e6c:	7f 90       	pop	r7
    5e6e:	6f 90       	pop	r6
    5e70:	5f 90       	pop	r5
    5e72:	4f 90       	pop	r4
    5e74:	3f 90       	pop	r3
    5e76:	2f 90       	pop	r2
    5e78:	08 95       	ret

00005e7a <spi_FlashMapAddress>:
    5e7a:	cf 93       	push	r28
    5e7c:	df 93       	push	r29
    5e7e:	cd b7       	in	r28, 0x3d	; 61
    5e80:	de b7       	in	r29, 0x3e	; 62
    5e82:	29 97       	sbiw	r28, 0x09	; 9
    5e84:	0f b6       	in	r0, 0x3f	; 63
    5e86:	f8 94       	cli
    5e88:	de bf       	out	0x3e, r29	; 62
    5e8a:	0f be       	out	0x3f, r0	; 63
    5e8c:	cd bf       	out	0x3d, r28	; 61
    5e8e:	6a 83       	std	Y+2, r22	; 0x02
    5e90:	7b 83       	std	Y+3, r23	; 0x03
    5e92:	8c 83       	std	Y+4, r24	; 0x04
    5e94:	9d 83       	std	Y+5, r25	; 0x05
    5e96:	5f 83       	std	Y+7, r21	; 0x07
    5e98:	4e 83       	std	Y+6, r20	; 0x06
    5e9a:	39 87       	std	Y+9, r19	; 0x09
    5e9c:	28 87       	std	Y+8, r18	; 0x08
    5e9e:	19 82       	std	Y+1, r1	; 0x01
    5ea0:	34 d0       	rcall	.+104    	; 0x5f0a <spi_FlashMaxAddress>
    5ea2:	9b 01       	movw	r18, r22
    5ea4:	ac 01       	movw	r20, r24
    5ea6:	8a 81       	ldd	r24, Y+2	; 0x02
    5ea8:	9b 81       	ldd	r25, Y+3	; 0x03
    5eaa:	ac 81       	ldd	r26, Y+4	; 0x04
    5eac:	bd 81       	ldd	r27, Y+5	; 0x05
    5eae:	82 17       	cp	r24, r18
    5eb0:	93 07       	cpc	r25, r19
    5eb2:	a4 07       	cpc	r26, r20
    5eb4:	b5 07       	cpc	r27, r21
    5eb6:	f8 f4       	brcc	.+62     	; 0x5ef6 <spi_FlashMapAddress+0x7c>
    5eb8:	8a 81       	ldd	r24, Y+2	; 0x02
    5eba:	9b 81       	ldd	r25, Y+3	; 0x03
    5ebc:	ac 81       	ldd	r26, Y+4	; 0x04
    5ebe:	bd 81       	ldd	r27, Y+5	; 0x05
    5ec0:	07 2e       	mov	r0, r23
    5ec2:	7b e0       	ldi	r23, 0x0B	; 11
    5ec4:	b6 95       	lsr	r27
    5ec6:	a7 95       	ror	r26
    5ec8:	97 95       	ror	r25
    5eca:	87 95       	ror	r24
    5ecc:	7a 95       	dec	r23
    5ece:	d1 f7       	brne	.-12     	; 0x5ec4 <spi_FlashMapAddress+0x4a>
    5ed0:	70 2d       	mov	r23, r0
    5ed2:	2e 81       	ldd	r18, Y+6	; 0x06
    5ed4:	3f 81       	ldd	r19, Y+7	; 0x07
    5ed6:	f9 01       	movw	r30, r18
    5ed8:	80 83       	st	Z, r24
    5eda:	91 83       	std	Z+1, r25	; 0x01
    5edc:	a2 83       	std	Z+2, r26	; 0x02
    5ede:	b3 83       	std	Z+3, r27	; 0x03
    5ee0:	8a 81       	ldd	r24, Y+2	; 0x02
    5ee2:	9b 81       	ldd	r25, Y+3	; 0x03
    5ee4:	9c 01       	movw	r18, r24
    5ee6:	37 70       	andi	r19, 0x07	; 7
    5ee8:	88 85       	ldd	r24, Y+8	; 0x08
    5eea:	99 85       	ldd	r25, Y+9	; 0x09
    5eec:	fc 01       	movw	r30, r24
    5eee:	31 83       	std	Z+1, r19	; 0x01
    5ef0:	20 83       	st	Z, r18
    5ef2:	81 e0       	ldi	r24, 0x01	; 1
    5ef4:	89 83       	std	Y+1, r24	; 0x01
    5ef6:	89 81       	ldd	r24, Y+1	; 0x01
    5ef8:	29 96       	adiw	r28, 0x09	; 9
    5efa:	0f b6       	in	r0, 0x3f	; 63
    5efc:	f8 94       	cli
    5efe:	de bf       	out	0x3e, r29	; 62
    5f00:	0f be       	out	0x3f, r0	; 63
    5f02:	cd bf       	out	0x3d, r28	; 61
    5f04:	df 91       	pop	r29
    5f06:	cf 91       	pop	r28
    5f08:	08 95       	ret

00005f0a <spi_FlashMaxAddress>:
    5f0a:	cf 93       	push	r28
    5f0c:	df 93       	push	r29
    5f0e:	00 d0       	rcall	.+0      	; 0x5f10 <spi_FlashMaxAddress+0x6>
    5f10:	1f 92       	push	r1
    5f12:	cd b7       	in	r28, 0x3d	; 61
    5f14:	de b7       	in	r29, 0x3e	; 62
    5f16:	80 e0       	ldi	r24, 0x00	; 0
    5f18:	98 e0       	ldi	r25, 0x08	; 8
    5f1a:	a0 e0       	ldi	r26, 0x00	; 0
    5f1c:	b0 e0       	ldi	r27, 0x00	; 0
    5f1e:	89 83       	std	Y+1, r24	; 0x01
    5f20:	9a 83       	std	Y+2, r25	; 0x02
    5f22:	ab 83       	std	Y+3, r26	; 0x03
    5f24:	bc 83       	std	Y+4, r27	; 0x04
    5f26:	89 81       	ldd	r24, Y+1	; 0x01
    5f28:	9a 81       	ldd	r25, Y+2	; 0x02
    5f2a:	ab 81       	ldd	r26, Y+3	; 0x03
    5f2c:	bc 81       	ldd	r27, Y+4	; 0x04
    5f2e:	88 0f       	add	r24, r24
    5f30:	99 1f       	adc	r25, r25
    5f32:	aa 1f       	adc	r26, r26
    5f34:	bb 1f       	adc	r27, r27
    5f36:	88 0f       	add	r24, r24
    5f38:	99 1f       	adc	r25, r25
    5f3a:	aa 1f       	adc	r26, r26
    5f3c:	bb 1f       	adc	r27, r27
    5f3e:	88 0f       	add	r24, r24
    5f40:	99 1f       	adc	r25, r25
    5f42:	aa 1f       	adc	r26, r26
    5f44:	bb 1f       	adc	r27, r27
    5f46:	88 0f       	add	r24, r24
    5f48:	99 1f       	adc	r25, r25
    5f4a:	aa 1f       	adc	r26, r26
    5f4c:	bb 1f       	adc	r27, r27
    5f4e:	88 0f       	add	r24, r24
    5f50:	99 1f       	adc	r25, r25
    5f52:	aa 1f       	adc	r26, r26
    5f54:	bb 1f       	adc	r27, r27
    5f56:	88 0f       	add	r24, r24
    5f58:	99 1f       	adc	r25, r25
    5f5a:	aa 1f       	adc	r26, r26
    5f5c:	bb 1f       	adc	r27, r27
    5f5e:	89 83       	std	Y+1, r24	; 0x01
    5f60:	9a 83       	std	Y+2, r25	; 0x02
    5f62:	ab 83       	std	Y+3, r26	; 0x03
    5f64:	bc 83       	std	Y+4, r27	; 0x04
    5f66:	89 81       	ldd	r24, Y+1	; 0x01
    5f68:	9a 81       	ldd	r25, Y+2	; 0x02
    5f6a:	ab 81       	ldd	r26, Y+3	; 0x03
    5f6c:	bc 81       	ldd	r27, Y+4	; 0x04
    5f6e:	07 2e       	mov	r0, r23
    5f70:	7b e0       	ldi	r23, 0x0B	; 11
    5f72:	88 0f       	add	r24, r24
    5f74:	99 1f       	adc	r25, r25
    5f76:	aa 1f       	adc	r26, r26
    5f78:	bb 1f       	adc	r27, r27
    5f7a:	7a 95       	dec	r23
    5f7c:	d1 f7       	brne	.-12     	; 0x5f72 <spi_FlashMaxAddress+0x68>
    5f7e:	70 2d       	mov	r23, r0
    5f80:	89 83       	std	Y+1, r24	; 0x01
    5f82:	9a 83       	std	Y+2, r25	; 0x02
    5f84:	ab 83       	std	Y+3, r26	; 0x03
    5f86:	bc 83       	std	Y+4, r27	; 0x04
    5f88:	89 81       	ldd	r24, Y+1	; 0x01
    5f8a:	9a 81       	ldd	r25, Y+2	; 0x02
    5f8c:	ab 81       	ldd	r26, Y+3	; 0x03
    5f8e:	bc 81       	ldd	r27, Y+4	; 0x04
    5f90:	bc 01       	movw	r22, r24
    5f92:	cd 01       	movw	r24, r26
    5f94:	0f 90       	pop	r0
    5f96:	0f 90       	pop	r0
    5f98:	0f 90       	pop	r0
    5f9a:	0f 90       	pop	r0
    5f9c:	df 91       	pop	r29
    5f9e:	cf 91       	pop	r28
    5fa0:	08 95       	ret

00005fa2 <spi_FlashWrite>:
    5fa2:	0f 93       	push	r16
    5fa4:	cf 93       	push	r28
    5fa6:	df 93       	push	r29
    5fa8:	cd b7       	in	r28, 0x3d	; 61
    5faa:	de b7       	in	r29, 0x3e	; 62
    5fac:	60 97       	sbiw	r28, 0x10	; 16
    5fae:	0f b6       	in	r0, 0x3f	; 63
    5fb0:	f8 94       	cli
    5fb2:	de bf       	out	0x3e, r29	; 62
    5fb4:	0f be       	out	0x3f, r0	; 63
    5fb6:	cd bf       	out	0x3d, r28	; 61
    5fb8:	6a 87       	std	Y+10, r22	; 0x0a
    5fba:	7b 87       	std	Y+11, r23	; 0x0b
    5fbc:	8c 87       	std	Y+12, r24	; 0x0c
    5fbe:	9d 87       	std	Y+13, r25	; 0x0d
    5fc0:	5f 87       	std	Y+15, r21	; 0x0f
    5fc2:	4e 87       	std	Y+14, r20	; 0x0e
    5fc4:	28 8b       	std	Y+16, r18	; 0x10
    5fc6:	19 82       	std	Y+1, r1	; 0x01
    5fc8:	1b 82       	std	Y+3, r1	; 0x03
    5fca:	86 ec       	ldi	r24, 0xC6	; 198
    5fcc:	92 e0       	ldi	r25, 0x02	; 2
    5fce:	2f 85       	ldd	r18, Y+15	; 0x0f
    5fd0:	2f 93       	push	r18
    5fd2:	2e 85       	ldd	r18, Y+14	; 0x0e
    5fd4:	2f 93       	push	r18
    5fd6:	2d 85       	ldd	r18, Y+13	; 0x0d
    5fd8:	2f 93       	push	r18
    5fda:	2c 85       	ldd	r18, Y+12	; 0x0c
    5fdc:	2f 93       	push	r18
    5fde:	2b 85       	ldd	r18, Y+11	; 0x0b
    5fe0:	2f 93       	push	r18
    5fe2:	2a 85       	ldd	r18, Y+10	; 0x0a
    5fe4:	2f 93       	push	r18
    5fe6:	29 2f       	mov	r18, r25
    5fe8:	2f 93       	push	r18
    5fea:	8f 93       	push	r24
    5fec:	0e 94 76 42 	call	0x84ec	; 0x84ec <printf_P>
    5ff0:	6d b7       	in	r22, 0x3d	; 61
    5ff2:	7e b7       	in	r23, 0x3e	; 62
    5ff4:	68 5f       	subi	r22, 0xF8	; 248
    5ff6:	7f 4f       	sbci	r23, 0xFF	; 255
    5ff8:	0f b6       	in	r0, 0x3f	; 63
    5ffa:	f8 94       	cli
    5ffc:	de bf       	out	0x3e, r29	; 62
    5ffe:	0f be       	out	0x3f, r0	; 63
    6000:	cd bf       	out	0x3d, r28	; 61
    6002:	9e 01       	movw	r18, r28
    6004:	28 5f       	subi	r18, 0xF8	; 248
    6006:	3f 4f       	sbci	r19, 0xFF	; 255
    6008:	ae 01       	movw	r20, r28
    600a:	4c 5f       	subi	r20, 0xFC	; 252
    600c:	5f 4f       	sbci	r21, 0xFF	; 255
    600e:	8a 85       	ldd	r24, Y+10	; 0x0a
    6010:	9b 85       	ldd	r25, Y+11	; 0x0b
    6012:	ac 85       	ldd	r26, Y+12	; 0x0c
    6014:	bd 85       	ldd	r27, Y+13	; 0x0d
    6016:	bc 01       	movw	r22, r24
    6018:	cd 01       	movw	r24, r26
    601a:	2f df       	rcall	.-418    	; 0x5e7a <spi_FlashMapAddress>
    601c:	88 23       	and	r24, r24
    601e:	09 f4       	brne	.+2      	; 0x6022 <spi_FlashWrite+0x80>
    6020:	87 c0       	rjmp	.+270    	; 0x6130 <spi_FlashWrite+0x18e>
    6022:	88 89       	ldd	r24, Y+16	; 0x10
    6024:	28 2f       	mov	r18, r24
    6026:	30 e0       	ldi	r19, 0x00	; 0
    6028:	88 85       	ldd	r24, Y+8	; 0x08
    602a:	99 85       	ldd	r25, Y+9	; 0x09
    602c:	82 0f       	add	r24, r18
    602e:	93 1f       	adc	r25, r19
    6030:	81 30       	cpi	r24, 0x01	; 1
    6032:	98 40       	sbci	r25, 0x08	; 8
    6034:	38 f0       	brcs	.+14     	; 0x6044 <spi_FlashWrite+0xa2>
    6036:	88 85       	ldd	r24, Y+8	; 0x08
    6038:	99 85       	ldd	r25, Y+9	; 0x09
    603a:	81 95       	neg	r24
    603c:	8a 83       	std	Y+2, r24	; 0x02
    603e:	81 e0       	ldi	r24, 0x01	; 1
    6040:	8b 83       	std	Y+3, r24	; 0x03
    6042:	02 c0       	rjmp	.+4      	; 0x6048 <spi_FlashWrite+0xa6>
    6044:	88 89       	ldd	r24, Y+16	; 0x10
    6046:	8a 83       	std	Y+2, r24	; 0x02
    6048:	48 85       	ldd	r20, Y+8	; 0x08
    604a:	59 85       	ldd	r21, Y+9	; 0x09
    604c:	8c 81       	ldd	r24, Y+4	; 0x04
    604e:	9d 81       	ldd	r25, Y+5	; 0x05
    6050:	ae 81       	ldd	r26, Y+6	; 0x06
    6052:	bf 81       	ldd	r27, Y+7	; 0x07
    6054:	2e 85       	ldd	r18, Y+14	; 0x0e
    6056:	3f 85       	ldd	r19, Y+15	; 0x0f
    6058:	0a 81       	ldd	r16, Y+2	; 0x02
    605a:	bc 01       	movw	r22, r24
    605c:	cd 01       	movw	r24, r26
    605e:	89 de       	rcall	.-750    	; 0x5d72 <spi_FlashWriteToPage>
    6060:	98 2f       	mov	r25, r24
    6062:	8a 81       	ldd	r24, Y+2	; 0x02
    6064:	98 17       	cp	r25, r24
    6066:	09 f0       	breq	.+2      	; 0x606a <spi_FlashWrite+0xc8>
    6068:	5a c0       	rjmp	.+180    	; 0x611e <spi_FlashWrite+0x17c>
    606a:	8b 81       	ldd	r24, Y+3	; 0x03
    606c:	88 23       	and	r24, r24
    606e:	09 f4       	brne	.+2      	; 0x6072 <spi_FlashWrite+0xd0>
    6070:	53 c0       	rjmp	.+166    	; 0x6118 <spi_FlashWrite+0x176>
    6072:	8a 81       	ldd	r24, Y+2	; 0x02
    6074:	28 2f       	mov	r18, r24
    6076:	30 e0       	ldi	r19, 0x00	; 0
    6078:	40 e0       	ldi	r20, 0x00	; 0
    607a:	50 e0       	ldi	r21, 0x00	; 0
    607c:	8a 85       	ldd	r24, Y+10	; 0x0a
    607e:	9b 85       	ldd	r25, Y+11	; 0x0b
    6080:	ac 85       	ldd	r26, Y+12	; 0x0c
    6082:	bd 85       	ldd	r27, Y+13	; 0x0d
    6084:	82 0f       	add	r24, r18
    6086:	93 1f       	adc	r25, r19
    6088:	a4 1f       	adc	r26, r20
    608a:	b5 1f       	adc	r27, r21
    608c:	9e 01       	movw	r18, r28
    608e:	28 5f       	subi	r18, 0xF8	; 248
    6090:	3f 4f       	sbci	r19, 0xFF	; 255
    6092:	ae 01       	movw	r20, r28
    6094:	4c 5f       	subi	r20, 0xFC	; 252
    6096:	5f 4f       	sbci	r21, 0xFF	; 255
    6098:	bc 01       	movw	r22, r24
    609a:	cd 01       	movw	r24, r26
    609c:	ee de       	rcall	.-548    	; 0x5e7a <spi_FlashMapAddress>
    609e:	88 23       	and	r24, r24
    60a0:	89 f1       	breq	.+98     	; 0x6104 <spi_FlashWrite+0x162>
    60a2:	98 89       	ldd	r25, Y+16	; 0x10
    60a4:	8a 81       	ldd	r24, Y+2	; 0x02
    60a6:	69 2f       	mov	r22, r25
    60a8:	68 1b       	sub	r22, r24
    60aa:	8a 81       	ldd	r24, Y+2	; 0x02
    60ac:	88 2f       	mov	r24, r24
    60ae:	90 e0       	ldi	r25, 0x00	; 0
    60b0:	2e 85       	ldd	r18, Y+14	; 0x0e
    60b2:	3f 85       	ldd	r19, Y+15	; 0x0f
    60b4:	28 0f       	add	r18, r24
    60b6:	39 1f       	adc	r19, r25
    60b8:	48 85       	ldd	r20, Y+8	; 0x08
    60ba:	59 85       	ldd	r21, Y+9	; 0x09
    60bc:	8c 81       	ldd	r24, Y+4	; 0x04
    60be:	9d 81       	ldd	r25, Y+5	; 0x05
    60c0:	ae 81       	ldd	r26, Y+6	; 0x06
    60c2:	bf 81       	ldd	r27, Y+7	; 0x07
    60c4:	06 2f       	mov	r16, r22
    60c6:	bc 01       	movw	r22, r24
    60c8:	cd 01       	movw	r24, r26
    60ca:	53 de       	rcall	.-858    	; 0x5d72 <spi_FlashWriteToPage>
    60cc:	28 2f       	mov	r18, r24
    60ce:	30 e0       	ldi	r19, 0x00	; 0
    60d0:	88 89       	ldd	r24, Y+16	; 0x10
    60d2:	48 2f       	mov	r20, r24
    60d4:	50 e0       	ldi	r21, 0x00	; 0
    60d6:	8a 81       	ldd	r24, Y+2	; 0x02
    60d8:	88 2f       	mov	r24, r24
    60da:	90 e0       	ldi	r25, 0x00	; 0
    60dc:	ba 01       	movw	r22, r20
    60de:	68 1b       	sub	r22, r24
    60e0:	79 0b       	sbc	r23, r25
    60e2:	cb 01       	movw	r24, r22
    60e4:	28 17       	cp	r18, r24
    60e6:	39 07       	cpc	r19, r25
    60e8:	19 f4       	brne	.+6      	; 0x60f0 <spi_FlashWrite+0x14e>
    60ea:	88 89       	ldd	r24, Y+16	; 0x10
    60ec:	89 83       	std	Y+1, r24	; 0x01
    60ee:	20 c0       	rjmp	.+64     	; 0x6130 <spi_FlashWrite+0x18e>
    60f0:	8e ed       	ldi	r24, 0xDE	; 222
    60f2:	92 e0       	ldi	r25, 0x02	; 2
    60f4:	29 2f       	mov	r18, r25
    60f6:	2f 93       	push	r18
    60f8:	8f 93       	push	r24
    60fa:	0e 94 76 42 	call	0x84ec	; 0x84ec <printf_P>
    60fe:	0f 90       	pop	r0
    6100:	0f 90       	pop	r0
    6102:	16 c0       	rjmp	.+44     	; 0x6130 <spi_FlashWrite+0x18e>
    6104:	85 e0       	ldi	r24, 0x05	; 5
    6106:	93 e0       	ldi	r25, 0x03	; 3
    6108:	29 2f       	mov	r18, r25
    610a:	2f 93       	push	r18
    610c:	8f 93       	push	r24
    610e:	0e 94 76 42 	call	0x84ec	; 0x84ec <printf_P>
    6112:	0f 90       	pop	r0
    6114:	0f 90       	pop	r0
    6116:	0c c0       	rjmp	.+24     	; 0x6130 <spi_FlashWrite+0x18e>
    6118:	88 89       	ldd	r24, Y+16	; 0x10
    611a:	89 83       	std	Y+1, r24	; 0x01
    611c:	09 c0       	rjmp	.+18     	; 0x6130 <spi_FlashWrite+0x18e>
    611e:	86 e3       	ldi	r24, 0x36	; 54
    6120:	93 e0       	ldi	r25, 0x03	; 3
    6122:	29 2f       	mov	r18, r25
    6124:	2f 93       	push	r18
    6126:	8f 93       	push	r24
    6128:	0e 94 76 42 	call	0x84ec	; 0x84ec <printf_P>
    612c:	0f 90       	pop	r0
    612e:	0f 90       	pop	r0
    6130:	89 81       	ldd	r24, Y+1	; 0x01
    6132:	60 96       	adiw	r28, 0x10	; 16
    6134:	0f b6       	in	r0, 0x3f	; 63
    6136:	f8 94       	cli
    6138:	de bf       	out	0x3e, r29	; 62
    613a:	0f be       	out	0x3f, r0	; 63
    613c:	cd bf       	out	0x3d, r28	; 61
    613e:	df 91       	pop	r29
    6140:	cf 91       	pop	r28
    6142:	0f 91       	pop	r16
    6144:	08 95       	ret

00006146 <spi_FlashReadFromPage>:
{
	uint64_t longAddress = (paddress * FLASH_PAGE_MAX_BYTES) + address;
	size_t retlen;
    6146:	2f 92       	push	r2
    6148:	3f 92       	push	r3
    614a:	4f 92       	push	r4
    614c:	5f 92       	push	r5
    614e:	6f 92       	push	r6
    6150:	7f 92       	push	r7
    6152:	8f 92       	push	r8
    6154:	9f 92       	push	r9
    6156:	af 92       	push	r10
    6158:	bf 92       	push	r11
    615a:	cf 92       	push	r12
    615c:	df 92       	push	r13
    615e:	ef 92       	push	r14
    6160:	ff 92       	push	r15
    6162:	0f 93       	push	r16
    6164:	1f 93       	push	r17
    6166:	cf 93       	push	r28
    6168:	df 93       	push	r29
    616a:	cd b7       	in	r28, 0x3d	; 61
    616c:	de b7       	in	r29, 0x3e	; 62
    616e:	65 97       	sbiw	r28, 0x15	; 21
    6170:	0f b6       	in	r0, 0x3f	; 63
    6172:	f8 94       	cli
    6174:	de bf       	out	0x3e, r29	; 62
    6176:	0f be       	out	0x3f, r0	; 63
    6178:	cd bf       	out	0x3d, r28	; 61
    617a:	6d 87       	std	Y+13, r22	; 0x0d
    617c:	7e 87       	std	Y+14, r23	; 0x0e
    617e:	8f 87       	std	Y+15, r24	; 0x0f
    6180:	98 8b       	std	Y+16, r25	; 0x10
    6182:	5a 8b       	std	Y+18, r21	; 0x12
    6184:	49 8b       	std	Y+17, r20	; 0x11
    6186:	3c 8b       	std	Y+20, r19	; 0x14
    6188:	2b 8b       	std	Y+19, r18	; 0x13
    618a:	0d 8b       	std	Y+21, r16	; 0x15
	int ret;
    618c:	8d 85       	ldd	r24, Y+13	; 0x0d
    618e:	9e 85       	ldd	r25, Y+14	; 0x0e
    6190:	af 85       	ldd	r26, Y+15	; 0x0f
    6192:	b8 89       	ldd	r27, Y+16	; 0x10
    6194:	9c 01       	movw	r18, r24
    6196:	ad 01       	movw	r20, r26
    6198:	01 2e       	mov	r0, r17
    619a:	1b e0       	ldi	r17, 0x0B	; 11
    619c:	22 0f       	add	r18, r18
    619e:	33 1f       	adc	r19, r19
    61a0:	44 1f       	adc	r20, r20
    61a2:	55 1f       	adc	r21, r21
    61a4:	1a 95       	dec	r17
    61a6:	d1 f7       	brne	.-12     	; 0x619c <spi_FlashReadFromPage+0x56>
    61a8:	10 2d       	mov	r17, r0
    61aa:	89 89       	ldd	r24, Y+17	; 0x11
    61ac:	9a 89       	ldd	r25, Y+18	; 0x12
    61ae:	cc 01       	movw	r24, r24
    61b0:	a0 e0       	ldi	r26, 0x00	; 0
    61b2:	b0 e0       	ldi	r27, 0x00	; 0
    61b4:	82 0f       	add	r24, r18
    61b6:	93 1f       	adc	r25, r19
    61b8:	a4 1f       	adc	r26, r20
    61ba:	b5 1f       	adc	r27, r21
    61bc:	9c 01       	movw	r18, r24
    61be:	ad 01       	movw	r20, r26
    61c0:	60 e0       	ldi	r22, 0x00	; 0
    61c2:	70 e0       	ldi	r23, 0x00	; 0
    61c4:	cb 01       	movw	r24, r22
    61c6:	29 83       	std	Y+1, r18	; 0x01
    61c8:	3a 83       	std	Y+2, r19	; 0x02
    61ca:	4b 83       	std	Y+3, r20	; 0x03
    61cc:	5c 83       	std	Y+4, r21	; 0x04
    61ce:	6d 83       	std	Y+5, r22	; 0x05
    61d0:	7e 83       	std	Y+6, r23	; 0x06
    61d2:	8f 83       	std	Y+7, r24	; 0x07
    61d4:	98 87       	std	Y+8, r25	; 0x08
	ret = spi_nand_read(flash_chip_ptr, (loff_t) longAddress, (size_t) nbytes,
	&retlen, (u8 *) buffer);

	return (uint8_t) ret;
    61d6:	8d 89       	ldd	r24, Y+21	; 0x15
    61d8:	28 2f       	mov	r18, r24
    61da:	30 e0       	ldi	r19, 0x00	; 0
    61dc:	29 80       	ldd	r2, Y+1	; 0x01
    61de:	3a 80       	ldd	r3, Y+2	; 0x02
    61e0:	4b 80       	ldd	r4, Y+3	; 0x03
    61e2:	5c 80       	ldd	r5, Y+4	; 0x04
    61e4:	6d 80       	ldd	r6, Y+5	; 0x05
    61e6:	7e 80       	ldd	r7, Y+6	; 0x06
    61e8:	8f 80       	ldd	r8, Y+7	; 0x07
    61ea:	98 84       	ldd	r9, Y+8	; 0x08
    61ec:	80 91 da 13 	lds	r24, 0x13DA	; 0x8013da <flash_chip_ptr>
    61f0:	90 91 db 13 	lds	r25, 0x13DB	; 0x8013db <flash_chip_ptr+0x1>
    61f4:	6b 89       	ldd	r22, Y+19	; 0x13
    61f6:	7c 89       	ldd	r23, Y+20	; 0x14
    61f8:	ae 01       	movw	r20, r28
    61fa:	45 5f       	subi	r20, 0xF5	; 245
    61fc:	5f 4f       	sbci	r21, 0xFF	; 255
    61fe:	5b 01       	movw	r10, r22
    6200:	6a 01       	movw	r12, r20
    6202:	79 01       	movw	r14, r18
    6204:	02 2d       	mov	r16, r2
    6206:	13 2d       	mov	r17, r3
    6208:	24 2d       	mov	r18, r4
    620a:	35 2d       	mov	r19, r5
    620c:	46 2d       	mov	r20, r6
    620e:	57 2d       	mov	r21, r7
    6210:	68 2d       	mov	r22, r8
    6212:	79 2d       	mov	r23, r9
    6214:	0e 94 06 28 	call	0x500c	; 0x500c <spi_nand_read>
    6218:	9a 87       	std	Y+10, r25	; 0x0a
    621a:	89 87       	std	Y+9, r24	; 0x09
}

/***********************************
    621c:	89 85       	ldd	r24, Y+9	; 0x09
*
    621e:	65 96       	adiw	r28, 0x15	; 21
    6220:	0f b6       	in	r0, 0x3f	; 63
    6222:	f8 94       	cli
    6224:	de bf       	out	0x3e, r29	; 62
    6226:	0f be       	out	0x3f, r0	; 63
    6228:	cd bf       	out	0x3d, r28	; 61
    622a:	df 91       	pop	r29
    622c:	cf 91       	pop	r28
    622e:	1f 91       	pop	r17
    6230:	0f 91       	pop	r16
    6232:	ff 90       	pop	r15
    6234:	ef 90       	pop	r14
    6236:	df 90       	pop	r13
    6238:	cf 90       	pop	r12
    623a:	bf 90       	pop	r11
    623c:	af 90       	pop	r10
    623e:	9f 90       	pop	r9
    6240:	8f 90       	pop	r8
    6242:	7f 90       	pop	r7
    6244:	6f 90       	pop	r6
    6246:	5f 90       	pop	r5
    6248:	4f 90       	pop	r4
    624a:	3f 90       	pop	r3
    624c:	2f 90       	pop	r2
    624e:	08 95       	ret

00006250 <spi_FlashRead>:

uint8_t spi_FlashRead(uint32_t address, uint8_t *buffer,  uint8_t numBytes)
{
	uint8_t ret = 0;
	uint32_t pageAddress = address / FLASH_PAGE_MAX_BYTES;
	uint16_t addressInPage = address % FLASH_PAGE_MAX_BYTES;
    6250:	0f 93       	push	r16
    6252:	cf 93       	push	r28
    6254:	df 93       	push	r29
    6256:	cd b7       	in	r28, 0x3d	; 61
    6258:	de b7       	in	r29, 0x3e	; 62
    625a:	60 97       	sbiw	r28, 0x10	; 16
    625c:	0f b6       	in	r0, 0x3f	; 63
    625e:	f8 94       	cli
    6260:	de bf       	out	0x3e, r29	; 62
    6262:	0f be       	out	0x3f, r0	; 63
    6264:	cd bf       	out	0x3d, r28	; 61
    6266:	6a 87       	std	Y+10, r22	; 0x0a
    6268:	7b 87       	std	Y+11, r23	; 0x0b
    626a:	8c 87       	std	Y+12, r24	; 0x0c
    626c:	9d 87       	std	Y+13, r25	; 0x0d
    626e:	5f 87       	std	Y+15, r21	; 0x0f
    6270:	4e 87       	std	Y+14, r20	; 0x0e
    6272:	28 8b       	std	Y+16, r18	; 0x10
	uint8_t firstPageNumBytes;
    6274:	19 82       	std	Y+1, r1	; 0x01
	uint8_t crossesPage = false;
    6276:	8a 85       	ldd	r24, Y+10	; 0x0a
    6278:	9b 85       	ldd	r25, Y+11	; 0x0b
    627a:	ac 85       	ldd	r26, Y+12	; 0x0c
    627c:	bd 85       	ldd	r27, Y+13	; 0x0d
    627e:	07 2e       	mov	r0, r23
    6280:	7b e0       	ldi	r23, 0x0B	; 11
    6282:	b6 95       	lsr	r27
    6284:	a7 95       	ror	r26
    6286:	97 95       	ror	r25
    6288:	87 95       	ror	r24
    628a:	7a 95       	dec	r23
    628c:	d1 f7       	brne	.-12     	; 0x6282 <spi_FlashRead+0x32>
    628e:	70 2d       	mov	r23, r0
    6290:	8c 83       	std	Y+4, r24	; 0x04
    6292:	9d 83       	std	Y+5, r25	; 0x05
    6294:	ae 83       	std	Y+6, r26	; 0x06
    6296:	bf 83       	std	Y+7, r27	; 0x07
	
    6298:	8a 85       	ldd	r24, Y+10	; 0x0a
    629a:	9b 85       	ldd	r25, Y+11	; 0x0b
    629c:	97 70       	andi	r25, 0x07	; 7
    629e:	99 87       	std	Y+9, r25	; 0x09
    62a0:	88 87       	std	Y+8, r24	; 0x08
	if (addressInPage + numBytes > FLASH_PAGE_MAX_BYTES)
	{
    62a2:	1b 82       	std	Y+3, r1	; 0x03
		firstPageNumBytes = (addressInPage + numBytes) - FLASH_PAGE_MAX_BYTES;
		crossesPage = true;
    62a4:	88 89       	ldd	r24, Y+16	; 0x10
    62a6:	28 2f       	mov	r18, r24
    62a8:	30 e0       	ldi	r19, 0x00	; 0
    62aa:	88 85       	ldd	r24, Y+8	; 0x08
    62ac:	99 85       	ldd	r25, Y+9	; 0x09
    62ae:	82 0f       	add	r24, r18
    62b0:	93 1f       	adc	r25, r19
    62b2:	81 30       	cpi	r24, 0x01	; 1
    62b4:	98 40       	sbci	r25, 0x08	; 8
    62b6:	38 f0       	brcs	.+14     	; 0x62c6 <spi_FlashRead+0x76>
	} 
	else
    62b8:	98 85       	ldd	r25, Y+8	; 0x08
    62ba:	88 89       	ldd	r24, Y+16	; 0x10
    62bc:	89 0f       	add	r24, r25
    62be:	8a 83       	std	Y+2, r24	; 0x02
	{
    62c0:	81 e0       	ldi	r24, 0x01	; 1
    62c2:	8b 83       	std	Y+3, r24	; 0x03
    62c4:	02 c0       	rjmp	.+4      	; 0x62ca <spi_FlashRead+0x7a>
		firstPageNumBytes = numBytes;
	}
    if (spi_FlashReadFromPage(pageAddress, addressInPage, buffer, firstPageNumBytes) == firstPageNumBytes)
	{
    62c6:	88 89       	ldd	r24, Y+16	; 0x10
    62c8:	8a 83       	std	Y+2, r24	; 0x02
		if (crossesPage)
		{
    62ca:	2e 85       	ldd	r18, Y+14	; 0x0e
    62cc:	3f 85       	ldd	r19, Y+15	; 0x0f
    62ce:	48 85       	ldd	r20, Y+8	; 0x08
    62d0:	59 85       	ldd	r21, Y+9	; 0x09
    62d2:	8c 81       	ldd	r24, Y+4	; 0x04
    62d4:	9d 81       	ldd	r25, Y+5	; 0x05
    62d6:	ae 81       	ldd	r26, Y+6	; 0x06
    62d8:	bf 81       	ldd	r27, Y+7	; 0x07
    62da:	0a 81       	ldd	r16, Y+2	; 0x02
    62dc:	bc 01       	movw	r22, r24
    62de:	cd 01       	movw	r24, r26
    62e0:	32 df       	rcall	.-412    	; 0x6146 <spi_FlashReadFromPage>
    62e2:	98 2f       	mov	r25, r24
    62e4:	8a 81       	ldd	r24, Y+2	; 0x02
    62e6:	98 17       	cp	r25, r24
    62e8:	d1 f5       	brne	.+116    	; 0x635e <spi_FlashRead+0x10e>
			if (spi_FlashReadFromPage(pageAddress+1, 0, buffer+firstPageNumBytes, numBytes - firstPageNumBytes) == (numBytes - firstPageNumBytes))
			{
    62ea:	8b 81       	ldd	r24, Y+3	; 0x03
    62ec:	88 23       	and	r24, r24
    62ee:	a1 f1       	breq	.+104    	; 0x6358 <spi_FlashRead+0x108>
				// success
				ret = numBytes;
    62f0:	98 89       	ldd	r25, Y+16	; 0x10
    62f2:	8a 81       	ldd	r24, Y+2	; 0x02
    62f4:	49 2f       	mov	r20, r25
    62f6:	48 1b       	sub	r20, r24
    62f8:	8a 81       	ldd	r24, Y+2	; 0x02
    62fa:	88 2f       	mov	r24, r24
    62fc:	90 e0       	ldi	r25, 0x00	; 0
    62fe:	2e 85       	ldd	r18, Y+14	; 0x0e
    6300:	3f 85       	ldd	r19, Y+15	; 0x0f
    6302:	28 0f       	add	r18, r24
    6304:	39 1f       	adc	r19, r25
    6306:	8c 81       	ldd	r24, Y+4	; 0x04
    6308:	9d 81       	ldd	r25, Y+5	; 0x05
    630a:	ae 81       	ldd	r26, Y+6	; 0x06
    630c:	bf 81       	ldd	r27, Y+7	; 0x07
    630e:	01 96       	adiw	r24, 0x01	; 1
    6310:	a1 1d       	adc	r26, r1
    6312:	b1 1d       	adc	r27, r1
    6314:	04 2f       	mov	r16, r20
    6316:	40 e0       	ldi	r20, 0x00	; 0
    6318:	50 e0       	ldi	r21, 0x00	; 0
    631a:	bc 01       	movw	r22, r24
    631c:	cd 01       	movw	r24, r26
    631e:	13 df       	rcall	.-474    	; 0x6146 <spi_FlashReadFromPage>
    6320:	28 2f       	mov	r18, r24
    6322:	30 e0       	ldi	r19, 0x00	; 0
    6324:	88 89       	ldd	r24, Y+16	; 0x10
    6326:	48 2f       	mov	r20, r24
    6328:	50 e0       	ldi	r21, 0x00	; 0
    632a:	8a 81       	ldd	r24, Y+2	; 0x02
    632c:	88 2f       	mov	r24, r24
    632e:	90 e0       	ldi	r25, 0x00	; 0
    6330:	ba 01       	movw	r22, r20
    6332:	68 1b       	sub	r22, r24
    6334:	79 0b       	sbc	r23, r25
    6336:	cb 01       	movw	r24, r22
    6338:	28 17       	cp	r18, r24
    633a:	39 07       	cpc	r19, r25
    633c:	19 f4       	brne	.+6      	; 0x6344 <spi_FlashRead+0xf4>
			}
			else
				printf_P(PSTR("spi_FlashRead: 2nd page read failed\n"));
    633e:	88 89       	ldd	r24, Y+16	; 0x10
    6340:	89 83       	std	Y+1, r24	; 0x01
    6342:	16 c0       	rjmp	.+44     	; 0x6370 <spi_FlashRead+0x120>
		}
		else
		{
    6344:	8d e5       	ldi	r24, 0x5D	; 93
    6346:	93 e0       	ldi	r25, 0x03	; 3
    6348:	29 2f       	mov	r18, r25
    634a:	2f 93       	push	r18
    634c:	8f 93       	push	r24
    634e:	0e 94 76 42 	call	0x84ec	; 0x84ec <printf_P>
    6352:	0f 90       	pop	r0
    6354:	0f 90       	pop	r0
    6356:	0c c0       	rjmp	.+24     	; 0x6370 <spi_FlashRead+0x120>
			// success
			ret = numBytes;
		}
	}
	else
    6358:	88 89       	ldd	r24, Y+16	; 0x10
    635a:	89 83       	std	Y+1, r24	; 0x01
    635c:	09 c0       	rjmp	.+18     	; 0x6370 <spi_FlashRead+0x120>
		printf_P(PSTR("spi_FlashRead: 1st page read failed\n"));

	return ret;
}
    635e:	82 e8       	ldi	r24, 0x82	; 130
    6360:	93 e0       	ldi	r25, 0x03	; 3
    6362:	29 2f       	mov	r18, r25
    6364:	2f 93       	push	r18
    6366:	8f 93       	push	r24
    6368:	0e 94 76 42 	call	0x84ec	; 0x84ec <printf_P>
    636c:	0f 90       	pop	r0
    636e:	0f 90       	pop	r0

/***********************************
    6370:	89 81       	ldd	r24, Y+1	; 0x01
*  Erase a Flash block
    6372:	60 96       	adiw	r28, 0x10	; 16
    6374:	0f b6       	in	r0, 0x3f	; 63
    6376:	f8 94       	cli
    6378:	de bf       	out	0x3e, r29	; 62
    637a:	0f be       	out	0x3f, r0	; 63
    637c:	cd bf       	out	0x3d, r28	; 61
    637e:	df 91       	pop	r29
    6380:	cf 91       	pop	r28
    6382:	0f 91       	pop	r16
    6384:	08 95       	ret

00006386 <spi_FlashEraseBlock>:
************************************/
uint8_t spi_FlashEraseBlock(uint32_t baddress)
{
	uint16_t ret = 0;
	union fourBytes blockAddress;
	
    6386:	cf 93       	push	r28
    6388:	df 93       	push	r29
    638a:	cd b7       	in	r28, 0x3d	; 61
    638c:	de b7       	in	r29, 0x3e	; 62
    638e:	2a 97       	sbiw	r28, 0x0a	; 10
    6390:	0f b6       	in	r0, 0x3f	; 63
    6392:	f8 94       	cli
    6394:	de bf       	out	0x3e, r29	; 62
    6396:	0f be       	out	0x3f, r0	; 63
    6398:	cd bf       	out	0x3d, r28	; 61
    639a:	6f 83       	std	Y+7, r22	; 0x07
    639c:	78 87       	std	Y+8, r23	; 0x08
    639e:	89 87       	std	Y+9, r24	; 0x09
    63a0:	9a 87       	std	Y+10, r25	; 0x0a
	blockAddress.word = baddress;
    63a2:	1a 82       	std	Y+2, r1	; 0x02
    63a4:	19 82       	std	Y+1, r1	; 0x01
	
	if (baddress <  FLASH_MAX_NUM_BLOCKS)
	{
    63a6:	8f 81       	ldd	r24, Y+7	; 0x07
    63a8:	98 85       	ldd	r25, Y+8	; 0x08
    63aa:	a9 85       	ldd	r26, Y+9	; 0x09
    63ac:	ba 85       	ldd	r27, Y+10	; 0x0a
    63ae:	8b 83       	std	Y+3, r24	; 0x03
    63b0:	9c 83       	std	Y+4, r25	; 0x04
    63b2:	ad 83       	std	Y+5, r26	; 0x05
    63b4:	be 83       	std	Y+6, r27	; 0x06
		if (spi_FlashWaitUntilReady())
		{
    63b6:	8f 81       	ldd	r24, Y+7	; 0x07
    63b8:	98 85       	ldd	r25, Y+8	; 0x08
    63ba:	a9 85       	ldd	r26, Y+9	; 0x09
    63bc:	ba 85       	ldd	r27, Y+10	; 0x0a
    63be:	81 15       	cp	r24, r1
    63c0:	98 40       	sbci	r25, 0x08	; 8
    63c2:	a1 05       	cpc	r26, r1
    63c4:	b1 05       	cpc	r27, r1
    63c6:	08 f0       	brcs	.+2      	; 0x63ca <spi_FlashEraseBlock+0x44>
    63c8:	44 c0       	rjmp	.+136    	; 0x6452 <spi_FlashEraseBlock+0xcc>
			if (spi_FlashEnableWrite())
			{
    63ca:	a8 db       	rcall	.-2224   	; 0x5b1c <spi_FlashWaitUntilReady>
    63cc:	88 23       	and	r24, r24
    63ce:	09 f4       	brne	.+2      	; 0x63d2 <spi_FlashEraseBlock+0x4c>
    63d0:	36 c0       	rjmp	.+108    	; 0x643e <spi_FlashEraseBlock+0xb8>
				selectFlash();
				spiTransferByte(FLASH_BLOCK_ERASE);
    63d2:	9d dc       	rcall	.-1734   	; 0x5d0e <spi_FlashEnableWrite>
    63d4:	88 23       	and	r24, r24
    63d6:	49 f1       	breq	.+82     	; 0x642a <spi_FlashEraseBlock+0xa4>
				spiTransferByte(blockAddress.byte[2]);
				spiTransferByte(blockAddress.byte[1]);
    63d8:	fd da       	rcall	.-2566   	; 0x59d4 <selectFlash>
				spiTransferByte(blockAddress.byte[0]);
    63da:	88 ed       	ldi	r24, 0xD8	; 216
    63dc:	53 d2       	rcall	.+1190   	; 0x6884 <spiTransferByte>
				deSelectFlash();
    63de:	8d 81       	ldd	r24, Y+5	; 0x05
    63e0:	51 d2       	rcall	.+1186   	; 0x6884 <spiTransferByte>
				if (spi_FlashWaitUntilReady())
    63e2:	8c 81       	ldd	r24, Y+4	; 0x04
    63e4:	4f d2       	rcall	.+1182   	; 0x6884 <spiTransferByte>
				{
    63e6:	8b 81       	ldd	r24, Y+3	; 0x03
    63e8:	4d d2       	rcall	.+1178   	; 0x6884 <spiTransferByte>
					if (spi_FlashDisableWrite())
    63ea:	fa da       	rcall	.-2572   	; 0x59e0 <deSelectFlash>
    63ec:	97 db       	rcall	.-2258   	; 0x5b1c <spi_FlashWaitUntilReady>
						ret = 1;
    63ee:	88 23       	and	r24, r24
    63f0:	91 f0       	breq	.+36     	; 0x6416 <spi_FlashEraseBlock+0x90>
    63f2:	a6 dc       	rcall	.-1716   	; 0x5d40 <spi_FlashDisableWrite>
    63f4:	88 23       	and	r24, r24
					else
						printf_P(PSTR("spi_FlashEraseBlock: Write diasble failed\n"));
    63f6:	29 f0       	breq	.+10     	; 0x6402 <spi_FlashEraseBlock+0x7c>
    63f8:	81 e0       	ldi	r24, 0x01	; 1
    63fa:	90 e0       	ldi	r25, 0x00	; 0
    63fc:	9a 83       	std	Y+2, r25	; 0x02
				}
    63fe:	89 83       	std	Y+1, r24	; 0x01
    6400:	31 c0       	rjmp	.+98     	; 0x6464 <spi_FlashEraseBlock+0xde>
    6402:	87 ea       	ldi	r24, 0xA7	; 167
    6404:	93 e0       	ldi	r25, 0x03	; 3
    6406:	29 2f       	mov	r18, r25
				else
					printf_P(PSTR("spi_FlashEraseBlock: Flash never ready after block erase\n"));
    6408:	2f 93       	push	r18
    640a:	8f 93       	push	r24
    640c:	0e 94 76 42 	call	0x84ec	; 0x84ec <printf_P>
    6410:	0f 90       	pop	r0
    6412:	0f 90       	pop	r0
    6414:	27 c0       	rjmp	.+78     	; 0x6464 <spi_FlashEraseBlock+0xde>
    6416:	82 ed       	ldi	r24, 0xD2	; 210
    6418:	93 e0       	ldi	r25, 0x03	; 3
    641a:	29 2f       	mov	r18, r25
			}
			else
				printf_P(PSTR("spi_FlashEraseBlock: Flash won't enable write\n"));
    641c:	2f 93       	push	r18
    641e:	8f 93       	push	r24
    6420:	0e 94 76 42 	call	0x84ec	; 0x84ec <printf_P>
    6424:	0f 90       	pop	r0
    6426:	0f 90       	pop	r0
    6428:	1d c0       	rjmp	.+58     	; 0x6464 <spi_FlashEraseBlock+0xde>
    642a:	8c e0       	ldi	r24, 0x0C	; 12
    642c:	94 e0       	ldi	r25, 0x04	; 4
    642e:	29 2f       	mov	r18, r25

		}
		else
    6430:	2f 93       	push	r18
    6432:	8f 93       	push	r24
    6434:	0e 94 76 42 	call	0x84ec	; 0x84ec <printf_P>
    6438:	0f 90       	pop	r0
    643a:	0f 90       	pop	r0
    643c:	13 c0       	rjmp	.+38     	; 0x6464 <spi_FlashEraseBlock+0xde>
    643e:	8b e3       	ldi	r24, 0x3B	; 59
    6440:	94 e0       	ldi	r25, 0x04	; 4
    6442:	29 2f       	mov	r18, r25
			printf_P(PSTR("spi_FlashEraseBlock: Flash never ready\n"));
	}
	else
		printf_P(PSTR("spi_FlashEraseBlock: Address exceeds available blocks\n"));
    6444:	2f 93       	push	r18
    6446:	8f 93       	push	r24
    6448:	0e 94 76 42 	call	0x84ec	; 0x84ec <printf_P>
    644c:	0f 90       	pop	r0
    644e:	0f 90       	pop	r0
    6450:	09 c0       	rjmp	.+18     	; 0x6464 <spi_FlashEraseBlock+0xde>
    6452:	83 e6       	ldi	r24, 0x63	; 99
    6454:	94 e0       	ldi	r25, 0x04	; 4
    6456:	29 2f       	mov	r18, r25
	return ret;
}

    6458:	2f 93       	push	r18
    645a:	8f 93       	push	r24
    645c:	0e 94 76 42 	call	0x84ec	; 0x84ec <printf_P>
    6460:	0f 90       	pop	r0
    6462:	0f 90       	pop	r0
    6464:	89 81       	ldd	r24, Y+1	; 0x01
    6466:	2a 96       	adiw	r28, 0x0a	; 10
    6468:	0f b6       	in	r0, 0x3f	; 63
uint8_t spi_FlashEraseAllBlocks()
    646a:	f8 94       	cli
{
    646c:	de bf       	out	0x3e, r29	; 62
    646e:	0f be       	out	0x3f, r0	; 63
    6470:	cd bf       	out	0x3d, r28	; 61
    6472:	df 91       	pop	r29
    6474:	cf 91       	pop	r28
    6476:	08 95       	ret

00006478 <spi_FlashEraseAllBlocks>:
    6478:	cf 93       	push	r28
    647a:	df 93       	push	r29
    647c:	cd b7       	in	r28, 0x3d	; 61
	uint8_t ret = true;
	uint16_t blockNum = 0;
	uint32_t blockAddr;
    647e:	de b7       	in	r29, 0x3e	; 62
    6480:	29 97       	sbiw	r28, 0x09	; 9
    6482:	0f b6       	in	r0, 0x3f	; 63
    6484:	f8 94       	cli
    6486:	de bf       	out	0x3e, r29	; 62
    6488:	0f be       	out	0x3f, r0	; 63
    648a:	cd bf       	out	0x3d, r28	; 61
	uint16_t numBlocks = FLASH_MAX_NUM_BLOCKS;
    648c:	81 e0       	ldi	r24, 0x01	; 1
    648e:	89 83       	std	Y+1, r24	; 0x01
	
    6490:	1b 82       	std	Y+3, r1	; 0x03
    6492:	1a 82       	std	Y+2, r1	; 0x02
	spi_FlashReset();
	spi_FlashUnlockAllBlocks();
    6494:	80 e0       	ldi	r24, 0x00	; 0
    6496:	98 e0       	ldi	r25, 0x08	; 8
    6498:	9d 83       	std	Y+5, r25	; 0x05
    649a:	8c 83       	std	Y+4, r24	; 0x04
		
	for (blockNum = 0; blockNum < numBlocks; blockNum++ )
    649c:	4b d0       	rcall	.+150    	; 0x6534 <spi_FlashReset>
	{
    649e:	14 dc       	rcall	.-2008   	; 0x5cc8 <spi_FlashUnlockAllBlocks>
    64a0:	1b 82       	std	Y+3, r1	; 0x03
		blockAddr = blockNum;
		printf_P(PSTR("Erasing block %d\n"),blockNum);
    64a2:	1a 82       	std	Y+2, r1	; 0x02
    64a4:	36 c0       	rjmp	.+108    	; 0x6512 <spi_FlashEraseAllBlocks+0x9a>
    64a6:	8a 81       	ldd	r24, Y+2	; 0x02
		if (!spi_FlashEraseBlock(blockAddr))
		{
    64a8:	9b 81       	ldd	r25, Y+3	; 0x03
    64aa:	cc 01       	movw	r24, r24
    64ac:	a0 e0       	ldi	r26, 0x00	; 0
    64ae:	b0 e0       	ldi	r27, 0x00	; 0
    64b0:	8e 83       	std	Y+6, r24	; 0x06
    64b2:	9f 83       	std	Y+7, r25	; 0x07
    64b4:	a8 87       	std	Y+8, r26	; 0x08
    64b6:	b9 87       	std	Y+9, r27	; 0x09
    64b8:	8a e9       	ldi	r24, 0x9A	; 154
			printf_P(PSTR("spi_FlashEraseAllBlocks: Erase failure at block %d\n"),blockNum);
    64ba:	94 e0       	ldi	r25, 0x04	; 4
    64bc:	2b 81       	ldd	r18, Y+3	; 0x03
    64be:	2f 93       	push	r18
    64c0:	2a 81       	ldd	r18, Y+2	; 0x02
    64c2:	2f 93       	push	r18
    64c4:	29 2f       	mov	r18, r25
    64c6:	2f 93       	push	r18
    64c8:	8f 93       	push	r24
    64ca:	0e 94 76 42 	call	0x84ec	; 0x84ec <printf_P>
    64ce:	0f 90       	pop	r0
    64d0:	0f 90       	pop	r0
    64d2:	0f 90       	pop	r0
    64d4:	0f 90       	pop	r0
    64d6:	8e 81       	ldd	r24, Y+6	; 0x06
			ret = false;
    64d8:	9f 81       	ldd	r25, Y+7	; 0x07
    64da:	a8 85       	ldd	r26, Y+8	; 0x08
    64dc:	b9 85       	ldd	r27, Y+9	; 0x09
    64de:	bc 01       	movw	r22, r24
    64e0:	cd 01       	movw	r24, r26
    64e2:	51 df       	rcall	.-350    	; 0x6386 <spi_FlashEraseBlock>
    64e4:	88 23       	and	r24, r24
    64e6:	81 f4       	brne	.+32     	; 0x6508 <spi_FlashEraseAllBlocks+0x90>
    64e8:	8c ea       	ldi	r24, 0xAC	; 172
		}
	}
    64ea:	94 e0       	ldi	r25, 0x04	; 4
    64ec:	2b 81       	ldd	r18, Y+3	; 0x03
    64ee:	2f 93       	push	r18
    64f0:	2a 81       	ldd	r18, Y+2	; 0x02
    64f2:	2f 93       	push	r18
    64f4:	29 2f       	mov	r18, r25
    64f6:	2f 93       	push	r18
    64f8:	8f 93       	push	r24
    64fa:	0e 94 76 42 	call	0x84ec	; 0x84ec <printf_P>
    64fe:	0f 90       	pop	r0
    6500:	0f 90       	pop	r0
    6502:	0f 90       	pop	r0
    6504:	0f 90       	pop	r0
    6506:	19 82       	std	Y+1, r1	; 0x01
	return ret;
    6508:	8a 81       	ldd	r24, Y+2	; 0x02
	spi_FlashUnlockAllBlocks();
		
	for (blockNum = 0; blockNum < numBlocks; blockNum++ )
	{
		blockAddr = blockNum;
		printf_P(PSTR("Erasing block %d\n"),blockNum);
    650a:	9b 81       	ldd	r25, Y+3	; 0x03
    650c:	01 96       	adiw	r24, 0x01	; 1
    650e:	9b 83       	std	Y+3, r25	; 0x03
    6510:	8a 83       	std	Y+2, r24	; 0x02
    6512:	2a 81       	ldd	r18, Y+2	; 0x02
    6514:	3b 81       	ldd	r19, Y+3	; 0x03
    6516:	8c 81       	ldd	r24, Y+4	; 0x04
    6518:	9d 81       	ldd	r25, Y+5	; 0x05
    651a:	28 17       	cp	r18, r24
    651c:	39 07       	cpc	r19, r25
    651e:	18 f2       	brcs	.-122    	; 0x64a6 <spi_FlashEraseAllBlocks+0x2e>
    6520:	89 81       	ldd	r24, Y+1	; 0x01
		}
	}
	return ret;
}

uint8_t spi_FlashReset(void)
    6522:	29 96       	adiw	r28, 0x09	; 9
{
    6524:	0f b6       	in	r0, 0x3f	; 63
    6526:	f8 94       	cli
    6528:	de bf       	out	0x3e, r29	; 62
    652a:	0f be       	out	0x3f, r0	; 63
    652c:	cd bf       	out	0x3d, r28	; 61
    652e:	df 91       	pop	r29
    6530:	cf 91       	pop	r28
    6532:	08 95       	ret

00006534 <spi_FlashReset>:
    6534:	cf 93       	push	r28
	uint8_t status;
		
	selectFlash();
    6536:	df 93       	push	r29
    6538:	1f 92       	push	r1
    653a:	cd b7       	in	r28, 0x3d	; 61
    653c:	de b7       	in	r29, 0x3e	; 62
	spiTransferByte(FLASH_RESET);
	deSelectFlash();
	status = spi_FlashGetStatusRegister();
    653e:	4a da       	rcall	.-2924   	; 0x59d4 <selectFlash>
	printf("spi_Reset: status is 0x%02x\n", status);
    6540:	8f ef       	ldi	r24, 0xFF	; 255
	
    6542:	a0 d1       	rcall	.+832    	; 0x6884 <spiTransferByte>
    6544:	4d da       	rcall	.-2918   	; 0x59e0 <deSelectFlash>
	return status; 
    6546:	32 db       	rcall	.-2460   	; 0x5bac <spi_FlashGetStatusRegister>
    6548:	89 83       	std	Y+1, r24	; 0x01
    654a:	89 81       	ldd	r24, Y+1	; 0x01
}
    654c:	88 2f       	mov	r24, r24
    654e:	90 e0       	ldi	r25, 0x00	; 0
    6550:	29 2f       	mov	r18, r25
    6552:	2f 93       	push	r18
    6554:	8f 93       	push	r24
    6556:	8e e2       	ldi	r24, 0x2E	; 46
    6558:	9a e0       	ldi	r25, 0x0A	; 10
    655a:	89 2f       	mov	r24, r25
    655c:	8f 93       	push	r24
    655e:	8e e2       	ldi	r24, 0x2E	; 46
    6560:	9a e0       	ldi	r25, 0x0A	; 10
    6562:	8f 93       	push	r24
    6564:	0e 94 63 42 	call	0x84c6	; 0x84c6 <printf>
    6568:	0f 90       	pop	r0
    656a:	0f 90       	pop	r0
    656c:	0f 90       	pop	r0
    656e:	0f 90       	pop	r0
    6570:	89 81       	ldd	r24, Y+1	; 0x01


    6572:	0f 90       	pop	r0
/***********************************
    6574:	df 91       	pop	r29
    6576:	cf 91       	pop	r28
    6578:	08 95       	ret

0000657a <spi_MT_flash_xfer>:
    657a:	ef 92       	push	r14
int spi_MT_flash_xfer(struct spi_slave *slave, unsigned int bitlen, const void *dout, void *din, unsigned long flags)
{
	uint16_t numBytes = bitlen/8;
	uint16_t byteCount;
	
	if (flags & SPI_XFER_BEGIN)
    657c:	ff 92       	push	r15
    657e:	0f 93       	push	r16
    6580:	1f 93       	push	r17
    6582:	cf 93       	push	r28
    6584:	df 93       	push	r29
    6586:	cd b7       	in	r28, 0x3d	; 61
    6588:	de b7       	in	r29, 0x3e	; 62
    658a:	60 97       	sbiw	r28, 0x10	; 16
    658c:	0f b6       	in	r0, 0x3f	; 63
    658e:	f8 94       	cli
    6590:	de bf       	out	0x3e, r29	; 62
    6592:	0f be       	out	0x3f, r0	; 63
    6594:	cd bf       	out	0x3d, r28	; 61
    6596:	9e 83       	std	Y+6, r25	; 0x06
    6598:	8d 83       	std	Y+5, r24	; 0x05
    659a:	78 87       	std	Y+8, r23	; 0x08
    659c:	6f 83       	std	Y+7, r22	; 0x07
    659e:	5a 87       	std	Y+10, r21	; 0x0a
    65a0:	49 87       	std	Y+9, r20	; 0x09
    65a2:	3c 87       	std	Y+12, r19	; 0x0c
    65a4:	2b 87       	std	Y+11, r18	; 0x0b
    65a6:	ed 86       	std	Y+13, r14	; 0x0d
    65a8:	fe 86       	std	Y+14, r15	; 0x0e
    65aa:	0f 87       	std	Y+15, r16	; 0x0f
    65ac:	18 8b       	std	Y+16, r17	; 0x10
		selectFlash();
    65ae:	8f 81       	ldd	r24, Y+7	; 0x07
    65b0:	98 85       	ldd	r25, Y+8	; 0x08
    65b2:	96 95       	lsr	r25
    65b4:	87 95       	ror	r24
    65b6:	96 95       	lsr	r25
    65b8:	87 95       	ror	r24
    65ba:	96 95       	lsr	r25
    65bc:	87 95       	ror	r24
    65be:	9c 83       	std	Y+4, r25	; 0x04
    65c0:	8b 83       	std	Y+3, r24	; 0x03
	if(dout)
	{
		for (byteCount = 0; byteCount < numBytes; byteCount++)
    65c2:	8d 85       	ldd	r24, Y+13	; 0x0d
    65c4:	9e 85       	ldd	r25, Y+14	; 0x0e
    65c6:	af 85       	ldd	r26, Y+15	; 0x0f
    65c8:	b8 89       	ldd	r27, Y+16	; 0x10
    65ca:	81 70       	andi	r24, 0x01	; 1
    65cc:	99 27       	eor	r25, r25
    65ce:	aa 27       	eor	r26, r26
    65d0:	bb 27       	eor	r27, r27
    65d2:	89 2b       	or	r24, r25
    65d4:	8a 2b       	or	r24, r26
    65d6:	8b 2b       	or	r24, r27
    65d8:	09 f0       	breq	.+2      	; 0x65dc <spi_MT_flash_xfer+0x62>
		{
    65da:	fc d9       	rcall	.-3080   	; 0x59d4 <selectFlash>
			spiTransferByte(((uint8_t *) dout)[byteCount]);
    65dc:	89 85       	ldd	r24, Y+9	; 0x09
    65de:	9a 85       	ldd	r25, Y+10	; 0x0a
    65e0:	89 2b       	or	r24, r25
    65e2:	c1 f0       	breq	.+48     	; 0x6614 <spi_MT_flash_xfer+0x9a>
		}
	}
    65e4:	1a 82       	std	Y+2, r1	; 0x02
    65e6:	19 82       	std	Y+1, r1	; 0x01
    65e8:	0e c0       	rjmp	.+28     	; 0x6606 <spi_MT_flash_xfer+0x8c>
	if (din)
	{
    65ea:	29 85       	ldd	r18, Y+9	; 0x09
    65ec:	3a 85       	ldd	r19, Y+10	; 0x0a
    65ee:	89 81       	ldd	r24, Y+1	; 0x01
    65f0:	9a 81       	ldd	r25, Y+2	; 0x02
    65f2:	82 0f       	add	r24, r18
    65f4:	93 1f       	adc	r25, r19
    65f6:	fc 01       	movw	r30, r24
    65f8:	80 81       	ld	r24, Z
    65fa:	44 d1       	rcall	.+648    	; 0x6884 <spiTransferByte>
	{
		for (byteCount = 0; byteCount < numBytes; byteCount++)
		{
			spiTransferByte(((uint8_t *) dout)[byteCount]);
		}
	}
    65fc:	89 81       	ldd	r24, Y+1	; 0x01
    65fe:	9a 81       	ldd	r25, Y+2	; 0x02
    6600:	01 96       	adiw	r24, 0x01	; 1
    6602:	9a 83       	std	Y+2, r25	; 0x02
    6604:	89 83       	std	Y+1, r24	; 0x01
    6606:	29 81       	ldd	r18, Y+1	; 0x01
    6608:	3a 81       	ldd	r19, Y+2	; 0x02
    660a:	8b 81       	ldd	r24, Y+3	; 0x03
    660c:	9c 81       	ldd	r25, Y+4	; 0x04
    660e:	28 17       	cp	r18, r24
    6610:	39 07       	cpc	r19, r25
    6612:	58 f3       	brcs	.-42     	; 0x65ea <spi_MT_flash_xfer+0x70>
	if (din)
	{
		for (byteCount = 0; byteCount < numBytes; byteCount++)
		{
			((uint8_t *) din)[byteCount] = spiTransferByte(0);
    6614:	8b 85       	ldd	r24, Y+11	; 0x0b
    6616:	9c 85       	ldd	r25, Y+12	; 0x0c
    6618:	89 2b       	or	r24, r25
    661a:	d1 f0       	breq	.+52     	; 0x6650 <spi_MT_flash_xfer+0xd6>
		}
	}
    661c:	1a 82       	std	Y+2, r1	; 0x02
    661e:	19 82       	std	Y+1, r1	; 0x01
    6620:	10 c0       	rjmp	.+32     	; 0x6642 <spi_MT_flash_xfer+0xc8>
	if (flags & SPI_XFER_END)
		deSelectFlash();
    6622:	2b 85       	ldd	r18, Y+11	; 0x0b
    6624:	3c 85       	ldd	r19, Y+12	; 0x0c
    6626:	89 81       	ldd	r24, Y+1	; 0x01
    6628:	9a 81       	ldd	r25, Y+2	; 0x02
    662a:	89 01       	movw	r16, r18
    662c:	08 0f       	add	r16, r24
    662e:	19 1f       	adc	r17, r25
    6630:	80 e0       	ldi	r24, 0x00	; 0
    6632:	28 d1       	rcall	.+592    	; 0x6884 <spiTransferByte>
    6634:	f8 01       	movw	r30, r16
    6636:	80 83       	st	Z, r24
	{
		for (byteCount = 0; byteCount < numBytes; byteCount++)
		{
			((uint8_t *) din)[byteCount] = spiTransferByte(0);
		}
	}
    6638:	89 81       	ldd	r24, Y+1	; 0x01
    663a:	9a 81       	ldd	r25, Y+2	; 0x02
    663c:	01 96       	adiw	r24, 0x01	; 1
    663e:	9a 83       	std	Y+2, r25	; 0x02
    6640:	89 83       	std	Y+1, r24	; 0x01
    6642:	29 81       	ldd	r18, Y+1	; 0x01
    6644:	3a 81       	ldd	r19, Y+2	; 0x02
    6646:	8b 81       	ldd	r24, Y+3	; 0x03
    6648:	9c 81       	ldd	r25, Y+4	; 0x04
    664a:	28 17       	cp	r18, r24
    664c:	39 07       	cpc	r19, r25
    664e:	48 f3       	brcs	.-46     	; 0x6622 <spi_MT_flash_xfer+0xa8>
	if (flags & SPI_XFER_END)
		deSelectFlash();
			
	return 0;
}
    6650:	8d 85       	ldd	r24, Y+13	; 0x0d
    6652:	9e 85       	ldd	r25, Y+14	; 0x0e
    6654:	af 85       	ldd	r26, Y+15	; 0x0f
    6656:	b8 89       	ldd	r27, Y+16	; 0x10
    6658:	82 70       	andi	r24, 0x02	; 2
    665a:	99 27       	eor	r25, r25
    665c:	aa 27       	eor	r26, r26
    665e:	bb 27       	eor	r27, r27
    6660:	89 2b       	or	r24, r25
    6662:	8a 2b       	or	r24, r26
    6664:	8b 2b       	or	r24, r27

    6666:	09 f0       	breq	.+2      	; 0x666a <spi_MT_flash_xfer+0xf0>
    6668:	bb d9       	rcall	.-3210   	; 0x59e0 <deSelectFlash>
//uint8_t MT_flash_paramPageBuffer[256 * 3];
uint8_t MT_flash_chipBuff[sizeof(struct spi_nand_chip)];
    666a:	80 e0       	ldi	r24, 0x00	; 0
    666c:	90 e0       	ldi	r25, 0x00	; 0
uint8_t MT_flash_oobBuff[128];
    666e:	60 96       	adiw	r28, 0x10	; 16
    6670:	0f b6       	in	r0, 0x3f	; 63
    6672:	f8 94       	cli
    6674:	de bf       	out	0x3e, r29	; 62
    6676:	0f be       	out	0x3f, r0	; 63
    6678:	cd bf       	out	0x3d, r28	; 61
    667a:	df 91       	pop	r29
    667c:	cf 91       	pop	r28
    667e:	1f 91       	pop	r17
    6680:	0f 91       	pop	r16
    6682:	ff 90       	pop	r15
    6684:	ef 90       	pop	r14
    6686:	08 95       	ret

00006688 <spi_MT_flash_allocate_mem>:
void *spi_MT_flash_allocate_mem(size_t size)
{
	void *retPtr;
	
	if (size == 256 * 3)
		retPtr = MT_flash_paramPageBuffer;
    6688:	cf 93       	push	r28
    668a:	df 93       	push	r29
    668c:	00 d0       	rcall	.+0      	; 0x668e <spi_MT_flash_allocate_mem+0x6>
    668e:	1f 92       	push	r1
    6690:	cd b7       	in	r28, 0x3d	; 61
    6692:	de b7       	in	r29, 0x3e	; 62
    6694:	9c 83       	std	Y+4, r25	; 0x04
    6696:	8b 83       	std	Y+3, r24	; 0x03
	else if (size == sizeof(struct spi_nand_chip))
		retPtr = MT_flash_chipBuff;
	else if (size == 128)
    6698:	8b 81       	ldd	r24, Y+3	; 0x03
    669a:	9c 81       	ldd	r25, Y+4	; 0x04
    669c:	81 15       	cp	r24, r1
    669e:	93 40       	sbci	r25, 0x03	; 3
    66a0:	29 f4       	brne	.+10     	; 0x66ac <spi_MT_flash_allocate_mem+0x24>
		retPtr = MT_flash_oobBuff;
    66a2:	88 e0       	ldi	r24, 0x08	; 8
    66a4:	95 e1       	ldi	r25, 0x15	; 21
    66a6:	9a 83       	std	Y+2, r25	; 0x02
    66a8:	89 83       	std	Y+1, r24	; 0x01
    66aa:	13 c0       	rjmp	.+38     	; 0x66d2 <spi_MT_flash_allocate_mem+0x4a>
	return retPtr;	
    66ac:	8b 81       	ldd	r24, Y+3	; 0x03
    66ae:	9c 81       	ldd	r25, Y+4	; 0x04
    66b0:	8c 32       	cpi	r24, 0x2C	; 44
    66b2:	91 40       	sbci	r25, 0x01	; 1
    66b4:	29 f4       	brne	.+10     	; 0x66c0 <spi_MT_flash_allocate_mem+0x38>
}
    66b6:	8c ed       	ldi	r24, 0xDC	; 220
    66b8:	93 e1       	ldi	r25, 0x13	; 19
    66ba:	9a 83       	std	Y+2, r25	; 0x02
    66bc:	89 83       	std	Y+1, r24	; 0x01
    66be:	09 c0       	rjmp	.+18     	; 0x66d2 <spi_MT_flash_allocate_mem+0x4a>

    66c0:	8b 81       	ldd	r24, Y+3	; 0x03
    66c2:	9c 81       	ldd	r25, Y+4	; 0x04
    66c4:	80 38       	cpi	r24, 0x80	; 128
    66c6:	91 05       	cpc	r25, r1
    66c8:	21 f4       	brne	.+8      	; 0x66d2 <spi_MT_flash_allocate_mem+0x4a>
unsigned long long spi_MT_flash_get_ticks(void)
    66ca:	8a e0       	ldi	r24, 0x0A	; 10
    66cc:	95 e1       	ldi	r25, 0x15	; 21
    66ce:	9a 83       	std	Y+2, r25	; 0x02
    66d0:	89 83       	std	Y+1, r24	; 0x01
{
    66d2:	89 81       	ldd	r24, Y+1	; 0x01
    66d4:	9a 81       	ldd	r25, Y+2	; 0x02
	return counter1024Hz;
    66d6:	0f 90       	pop	r0
    66d8:	0f 90       	pop	r0
    66da:	0f 90       	pop	r0
    66dc:	0f 90       	pop	r0
    66de:	df 91       	pop	r29
    66e0:	cf 91       	pop	r28
    66e2:	08 95       	ret

000066e4 <spi_MT_flash_get_ticks>:
}

void spi_MT_flash_udelay(unsigned int us)
    66e4:	af 92       	push	r10
    66e6:	bf 92       	push	r11
    66e8:	cf 92       	push	r12
    66ea:	df 92       	push	r13
    66ec:	ef 92       	push	r14
    66ee:	ff 92       	push	r15
    66f0:	0f 93       	push	r16
    66f2:	1f 93       	push	r17
    66f4:	cf 93       	push	r28
    66f6:	df 93       	push	r29
    66f8:	cd b7       	in	r28, 0x3d	; 61
    66fa:	de b7       	in	r29, 0x3e	; 62
{
    66fc:	80 91 90 13 	lds	r24, 0x1390	; 0x801390 <counter1024Hz>
    6700:	90 91 91 13 	lds	r25, 0x1391	; 0x801391 <counter1024Hz+0x1>
    6704:	9c 01       	movw	r18, r24
    6706:	40 e0       	ldi	r20, 0x00	; 0
    6708:	50 e0       	ldi	r21, 0x00	; 0
    670a:	60 e0       	ldi	r22, 0x00	; 0
    670c:	70 e0       	ldi	r23, 0x00	; 0
    670e:	cb 01       	movw	r24, r22
    6710:	a2 2e       	mov	r10, r18
    6712:	b3 2e       	mov	r11, r19
    6714:	c4 2e       	mov	r12, r20
    6716:	d5 2e       	mov	r13, r21
    6718:	e6 2e       	mov	r14, r22
    671a:	f7 2e       	mov	r15, r23
    671c:	08 2f       	mov	r16, r24
    671e:	19 2f       	mov	r17, r25
	uint16_t startTicks = counter1024Hz;
    6720:	2a 2d       	mov	r18, r10
    6722:	3b 2d       	mov	r19, r11
    6724:	4c 2d       	mov	r20, r12
    6726:	5d 2d       	mov	r21, r13
    6728:	6e 2d       	mov	r22, r14
    672a:	7f 2d       	mov	r23, r15
    672c:	80 2f       	mov	r24, r16
    672e:	91 2f       	mov	r25, r17
    6730:	df 91       	pop	r29
    6732:	cf 91       	pop	r28
    6734:	1f 91       	pop	r17
    6736:	0f 91       	pop	r16
    6738:	ff 90       	pop	r15
    673a:	ef 90       	pop	r14
    673c:	df 90       	pop	r13
    673e:	cf 90       	pop	r12
    6740:	bf 90       	pop	r11
    6742:	af 90       	pop	r10
    6744:	08 95       	ret

00006746 <spi_MT_flash_udelay>:
	while ((counter1024Hz - startTicks) < us)
	{
		for (int i = 0; i < 1000; i++);
    6746:	cf 93       	push	r28
    6748:	df 93       	push	r29
    674a:	00 d0       	rcall	.+0      	; 0x674c <spi_MT_flash_udelay+0x6>
    674c:	00 d0       	rcall	.+0      	; 0x674e <spi_MT_flash_udelay+0x8>
    674e:	cd b7       	in	r28, 0x3d	; 61
    6750:	de b7       	in	r29, 0x3e	; 62
    6752:	9e 83       	std	Y+6, r25	; 0x06
    6754:	8d 83       	std	Y+5, r24	; 0x05
	}
    6756:	80 91 90 13 	lds	r24, 0x1390	; 0x801390 <counter1024Hz>
    675a:	90 91 91 13 	lds	r25, 0x1391	; 0x801391 <counter1024Hz+0x1>
    675e:	9c 83       	std	Y+4, r25	; 0x04
    6760:	8b 83       	std	Y+3, r24	; 0x03
}
    6762:	0d c0       	rjmp	.+26     	; 0x677e <spi_MT_flash_udelay+0x38>


    6764:	1a 82       	std	Y+2, r1	; 0x02
    6766:	19 82       	std	Y+1, r1	; 0x01
    6768:	05 c0       	rjmp	.+10     	; 0x6774 <spi_MT_flash_udelay+0x2e>
    676a:	89 81       	ldd	r24, Y+1	; 0x01
    676c:	9a 81       	ldd	r25, Y+2	; 0x02
    676e:	01 96       	adiw	r24, 0x01	; 1
    6770:	9a 83       	std	Y+2, r25	; 0x02
    6772:	89 83       	std	Y+1, r24	; 0x01
    6774:	89 81       	ldd	r24, Y+1	; 0x01
    6776:	9a 81       	ldd	r25, Y+2	; 0x02
    6778:	88 3e       	cpi	r24, 0xE8	; 232
    677a:	93 40       	sbci	r25, 0x03	; 3
    677c:	b4 f3       	brlt	.-20     	; 0x676a <spi_MT_flash_udelay+0x24>
	uint16_t startTicks = counter1024Hz;
	while ((counter1024Hz - startTicks) < us)
	{
		for (int i = 0; i < 1000; i++);
	}
}
    677e:	20 91 90 13 	lds	r18, 0x1390	; 0x801390 <counter1024Hz>
    6782:	30 91 91 13 	lds	r19, 0x1391	; 0x801391 <counter1024Hz+0x1>
    6786:	8b 81       	ldd	r24, Y+3	; 0x03
    6788:	9c 81       	ldd	r25, Y+4	; 0x04
    678a:	28 1b       	sub	r18, r24
    678c:	39 0b       	sbc	r19, r25
    678e:	8d 81       	ldd	r24, Y+5	; 0x05
    6790:	9e 81       	ldd	r25, Y+6	; 0x06
    6792:	28 17       	cp	r18, r24
    6794:	39 07       	cpc	r19, r25
    6796:	30 f3       	brcs	.-52     	; 0x6764 <spi_MT_flash_udelay+0x1e>




    6798:	00 00       	nop
    679a:	26 96       	adiw	r28, 0x06	; 6
    679c:	0f b6       	in	r0, 0x3f	; 63
    679e:	f8 94       	cli
    67a0:	de bf       	out	0x3e, r29	; 62
    67a2:	0f be       	out	0x3f, r0	; 63
    67a4:	cd bf       	out	0x3d, r28	; 61
    67a6:	df 91       	pop	r29
    67a8:	cf 91       	pop	r28
    67aa:	08 95       	ret

000067ac <RTC_config>:
 *	 3) Check if battery voltage is below the threshold (typically 2.5V). Chip stops running at ~1.2V
 *   2) Call RTC_ReadTime(). This is the only time we call it, unless user set the time.
 *
 **************************************/
void RTC_config(void)
{
    67ac:	1f 93       	push	r17
    67ae:	cf 93       	push	r28
    67b0:	df 93       	push	r29
    67b2:	1f 92       	push	r1
    67b4:	1f 92       	push	r1
    67b6:	cd b7       	in	r28, 0x3d	; 61
    67b8:	de b7       	in	r29, 0x3e	; 62
	uint8_t mosi[1], miso[1], i ; 
	mosi[0] = RTC_1024Hz;
    67ba:	85 e0       	ldi	r24, 0x05	; 5
    67bc:	89 83       	std	Y+1, r24	; 0x01
		
	printf("in RTC_config();\n");
    67be:	8d e8       	ldi	r24, 0x8D	; 141
    67c0:	90 e1       	ldi	r25, 0x10	; 16
    67c2:	0e 94 a2 42 	call	0x8544	; 0x8544 <puts>
	for (i=0;i<20;i++)   	{
    67c6:	10 e0       	ldi	r17, 0x00	; 0
    67c8:	29 c0       	rjmp	.+82     	; 0x681c <RTC_config+0x70>
//		 printf("read RTC %d   ", i);
		spi_RTC_Read( RTC_CLKOUT, miso , 1 );
    67ca:	41 e0       	ldi	r20, 0x01	; 1
    67cc:	be 01       	movw	r22, r28
    67ce:	6e 5f       	subi	r22, 0xFE	; 254
    67d0:	7f 4f       	sbci	r23, 0xFF	; 255
    67d2:	8f e0       	ldi	r24, 0x0F	; 15
    67d4:	51 d2       	rcall	.+1186   	; 0x6c78 <spi_RTC_Read>
		if (miso[0] !=  RTC_1024Hz)    {
    67d6:	8a 81       	ldd	r24, Y+2	; 0x02
    67d8:	85 30       	cpi	r24, 0x05	; 5
    67da:	11 f1       	breq	.+68     	; 0x6820 <RTC_config+0x74>
			spi_RTC_Write( RTC_CLKOUT, mosi,  1);
    67dc:	41 e0       	ldi	r20, 0x01	; 1
    67de:	be 01       	movw	r22, r28
    67e0:	6f 5f       	subi	r22, 0xFF	; 255
    67e2:	7f 4f       	sbci	r23, 0xFF	; 255
    67e4:	8f e0       	ldi	r24, 0x0F	; 15
    67e6:	30 d2       	rcall	.+1120   	; 0x6c48 <spi_RTC_Write>
			printf("read RTC %d:%d  ", i, miso[0]);
    67e8:	8a 81       	ldd	r24, Y+2	; 0x02
    67ea:	1f 92       	push	r1
    67ec:	8f 93       	push	r24
    67ee:	1f 92       	push	r1
    67f0:	1f 93       	push	r17
    67f2:	8e e9       	ldi	r24, 0x9E	; 158
    67f4:	90 e1       	ldi	r25, 0x10	; 16
    67f6:	9f 93       	push	r25
    67f8:	8f 93       	push	r24
    67fa:	0e 94 63 42 	call	0x84c6	; 0x84c6 <printf>
			printf("write: 0x%2X \n", mosi[0]); 			
    67fe:	89 81       	ldd	r24, Y+1	; 0x01
    6800:	1f 92       	push	r1
    6802:	8f 93       	push	r24
    6804:	8f ea       	ldi	r24, 0xAF	; 175
    6806:	90 e1       	ldi	r25, 0x10	; 16
    6808:	9f 93       	push	r25
    680a:	8f 93       	push	r24
    680c:	0e 94 63 42 	call	0x84c6	; 0x84c6 <printf>
{
	uint8_t mosi[1], miso[1], i ; 
	mosi[0] = RTC_1024Hz;
		
	printf("in RTC_config();\n");
	for (i=0;i<20;i++)   	{
    6810:	1f 5f       	subi	r17, 0xFF	; 255
    6812:	0f b6       	in	r0, 0x3f	; 63
    6814:	f8 94       	cli
    6816:	de bf       	out	0x3e, r29	; 62
    6818:	0f be       	out	0x3f, r0	; 63
    681a:	cd bf       	out	0x3d, r28	; 61
    681c:	14 31       	cpi	r17, 0x14	; 20
    681e:	a8 f2       	brcs	.-86     	; 0x67ca <RTC_config+0x1e>
			printf("write: 0x%2X \n", mosi[0]); 			
		}
		else
		   break;
	}
	if (i>=20) 	{ 
    6820:	14 31       	cpi	r17, 0x14	; 20
    6822:	20 f0       	brcs	.+8      	; 0x682c <RTC_config+0x80>
		printf("ERROR: clock Frequency not at 1024 HZ!\n"); 
    6824:	8e eb       	ldi	r24, 0xBE	; 190
    6826:	90 e1       	ldi	r25, 0x10	; 16
    6828:	0e 94 a2 42 	call	0x8544	; 0x8544 <puts>
	
//	printf("readingTime....;\n");	
//	deSelectRTC();
	RTC_ReadTime();
*/
}
    682c:	0f 90       	pop	r0
    682e:	0f 90       	pop	r0
    6830:	df 91       	pop	r29
    6832:	cf 91       	pop	r28
    6834:	1f 91       	pop	r17
    6836:	08 95       	ret

00006838 <RTC_readCLKF>:

void RTC_readCLKF(void)
{
    6838:	cf 93       	push	r28
    683a:	df 93       	push	r29
    683c:	1f 92       	push	r1
    683e:	cd b7       	in	r28, 0x3d	; 61
    6840:	de b7       	in	r29, 0x3e	; 62
	uint8_t miso[1];

	spi_RTC_Read( RTC_CLKOUT, miso , 1 );
    6842:	41 e0       	ldi	r20, 0x01	; 1
    6844:	be 01       	movw	r22, r28
    6846:	6f 5f       	subi	r22, 0xFF	; 255
    6848:	7f 4f       	sbci	r23, 0xFF	; 255
    684a:	8f e0       	ldi	r24, 0x0F	; 15
    684c:	15 d2       	rcall	.+1066   	; 0x6c78 <spi_RTC_Read>
	printf("0x%2X", miso[0]); 
    684e:	89 81       	ldd	r24, Y+1	; 0x01
    6850:	1f 92       	push	r1
    6852:	8f 93       	push	r24
    6854:	85 ee       	ldi	r24, 0xE5	; 229
    6856:	90 e1       	ldi	r25, 0x10	; 16
    6858:	9f 93       	push	r25
    685a:	8f 93       	push	r24
    685c:	0e 94 63 42 	call	0x84c6	; 0x84c6 <printf>
}
    6860:	0f 90       	pop	r0
    6862:	0f 90       	pop	r0
    6864:	0f 90       	pop	r0
    6866:	0f 90       	pop	r0
    6868:	0f 90       	pop	r0
    686a:	df 91       	pop	r29
    686c:	cf 91       	pop	r28
    686e:	08 95       	ret

00006870 <init_spi>:
	{
		SPDR = *mosi--;
		while (!(SPSR & 0x80))
		;      // wait for transmit
	}
}
    6870:	1d bc       	out	0x2d, r1	; 45
    6872:	81 e5       	ldi	r24, 0x51	; 81
    6874:	8c bd       	out	0x2c, r24	; 44
    6876:	b4 d8       	rcall	.-3736   	; 0x59e0 <deSelectFlash>
    6878:	85 d8       	rcall	.-3830   	; 0x5984 <deSelectFRAM>
    687a:	8e d8       	rcall	.-3812   	; 0x5998 <deSelectOpticsDAC>
    687c:	b7 d8       	rcall	.-3730   	; 0x59ec <deSelectRTC>
    687e:	a4 d8       	rcall	.-3768   	; 0x59c8 <deSelectBuckCtrlDAC>
    6880:	97 c8       	rjmp	.-3794   	; 0x59b0 <deSelectADC2518>
    6882:	08 95       	ret

00006884 <spiTransferByte>:
    6884:	8e bd       	out	0x2e, r24	; 46
    6886:	0d b4       	in	r0, 0x2d	; 45
    6888:	07 fe       	sbrs	r0, 7
    688a:	fd cf       	rjmp	.-6      	; 0x6886 <spiTransferByte+0x2>
    688c:	8e b5       	in	r24, 0x2e	; 46
    688e:	08 95       	ret

00006890 <spiSendBytes>:
    6890:	fc 01       	movw	r30, r24
    6892:	20 e0       	ldi	r18, 0x00	; 0
    6894:	30 e0       	ldi	r19, 0x00	; 0
    6896:	0a c0       	rjmp	.+20     	; 0x68ac <spiSendBytes+0x1c>
    6898:	cf 01       	movw	r24, r30
    689a:	01 96       	adiw	r24, 0x01	; 1
    689c:	40 81       	ld	r20, Z
    689e:	4e bd       	out	0x2e, r20	; 46
    68a0:	0d b4       	in	r0, 0x2d	; 45
    68a2:	07 fe       	sbrs	r0, 7
    68a4:	fd cf       	rjmp	.-6      	; 0x68a0 <spiSendBytes+0x10>
    68a6:	2f 5f       	subi	r18, 0xFF	; 255
    68a8:	3f 4f       	sbci	r19, 0xFF	; 255
    68aa:	fc 01       	movw	r30, r24
    68ac:	26 17       	cp	r18, r22
    68ae:	37 07       	cpc	r19, r23
    68b0:	98 f3       	brcs	.-26     	; 0x6898 <spiSendBytes+0x8>
    68b2:	08 95       	ret

000068b4 <spiGetBytes>:
    68b4:	fc 01       	movw	r30, r24
    68b6:	20 e0       	ldi	r18, 0x00	; 0
    68b8:	30 e0       	ldi	r19, 0x00	; 0
    68ba:	09 c0       	rjmp	.+18     	; 0x68ce <spiGetBytes+0x1a>
    68bc:	1e bc       	out	0x2e, r1	; 46
    68be:	0d b4       	in	r0, 0x2d	; 45
    68c0:	07 fe       	sbrs	r0, 7
    68c2:	fd cf       	rjmp	.-6      	; 0x68be <spiGetBytes+0xa>
    68c4:	8e b5       	in	r24, 0x2e	; 46
    68c6:	80 83       	st	Z, r24
    68c8:	2f 5f       	subi	r18, 0xFF	; 255
    68ca:	3f 4f       	sbci	r19, 0xFF	; 255
    68cc:	31 96       	adiw	r30, 0x01	; 1
    68ce:	26 17       	cp	r18, r22
    68d0:	37 07       	cpc	r19, r23
    68d2:	a0 f3       	brcs	.-24     	; 0x68bc <spiGetBytes+0x8>
    68d4:	08 95       	ret

000068d6 <spiSend2ByteBigEndian>:

void spiSend2ByteBigEndian(uint16_t address)
{
    68d6:	cf 93       	push	r28
    68d8:	df 93       	push	r29
    68da:	1f 92       	push	r1
    68dc:	1f 92       	push	r1
    68de:	cd b7       	in	r28, 0x3d	; 61
    68e0:	de b7       	in	r29, 0x3e	; 62
    68e2:	9a 83       	std	Y+2, r25	; 0x02
    68e4:	89 83       	std	Y+1, r24	; 0x01
	
	uint8_t *mosi;
	mosi = ((uint8_t *)(&address))+1;  // little endian so start at last byte to send MSB first
	SPDR = *mosi--;
    68e6:	8a 81       	ldd	r24, Y+2	; 0x02
    68e8:	8e bd       	out	0x2e, r24	; 46
	while (!(SPSR & 0x80))
    68ea:	0d b4       	in	r0, 0x2d	; 45
    68ec:	07 fe       	sbrs	r0, 7
    68ee:	fd cf       	rjmp	.-6      	; 0x68ea <spiSend2ByteBigEndian+0x14>
		;      // wait for transmit
	SPDR = *mosi;
    68f0:	89 81       	ldd	r24, Y+1	; 0x01
    68f2:	8e bd       	out	0x2e, r24	; 46
	while (!(SPSR & 0x80))
    68f4:	0d b4       	in	r0, 0x2d	; 45
    68f6:	07 fe       	sbrs	r0, 7
    68f8:	fd cf       	rjmp	.-6      	; 0x68f4 <spiSend2ByteBigEndian+0x1e>
		;      // wait for transmit
		
}
    68fa:	0f 90       	pop	r0
    68fc:	0f 90       	pop	r0
    68fe:	df 91       	pop	r29
    6900:	cf 91       	pop	r28
    6902:	08 95       	ret

00006904 <spi_buckCtrlDac>:
	
	// Set all channels to zero Volts.
	selectOpticsDAC();
	spiTransferByte(SET_ALL_CHANNELS);   //
	spiTransferByte(0x00);
	deSelectOpticsDAC();	
    6904:	ef 92       	push	r14
    6906:	ff 92       	push	r15
    6908:	1f 93       	push	r17
    690a:	cf 93       	push	r28
    690c:	df 93       	push	r29
    690e:	eb 01       	movw	r28, r22
    6910:	18 2f       	mov	r17, r24
    6912:	17 70       	andi	r17, 0x07	; 7
    6914:	90 e1       	ldi	r25, 0x10	; 16
    6916:	19 9f       	mul	r17, r25
    6918:	90 01       	movw	r18, r0
    691a:	11 24       	eor	r1, r1
    691c:	e7 2e       	mov	r14, r23
    691e:	ff 24       	eor	r15, r15
    6920:	ab 01       	movw	r20, r22
    6922:	55 27       	eor	r21, r21
    6924:	5f 93       	push	r21
    6926:	4f 93       	push	r20
    6928:	2e 29       	or	r18, r14
    692a:	3f 29       	or	r19, r15
    692c:	3f 93       	push	r19
    692e:	2f 93       	push	r18
    6930:	df 93       	push	r29
    6932:	6f 93       	push	r22
    6934:	1f 92       	push	r1
    6936:	8f 93       	push	r24
    6938:	8d ef       	ldi	r24, 0xFD	; 253
    693a:	90 e1       	ldi	r25, 0x10	; 16
    693c:	9f 93       	push	r25
    693e:	8f 93       	push	r24
    6940:	0e 94 63 42 	call	0x84c6	; 0x84c6 <printf>
    6944:	3b d8       	rcall	.-3978   	; 0x59bc <selectBuckCtrlDAC>
    6946:	81 2f       	mov	r24, r17
    6948:	82 95       	swap	r24
    694a:	80 7f       	andi	r24, 0xF0	; 240
    694c:	8e 29       	or	r24, r14
    694e:	9a df       	rcall	.-204    	; 0x6884 <spiTransferByte>
    6950:	8c 2f       	mov	r24, r28
    6952:	98 df       	rcall	.-208    	; 0x6884 <spiTransferByte>
    6954:	39 d8       	rcall	.-3982   	; 0x59c8 <deSelectBuckCtrlDAC>
    6956:	8d b7       	in	r24, 0x3d	; 61
    6958:	9e b7       	in	r25, 0x3e	; 62
    695a:	0a 96       	adiw	r24, 0x0a	; 10
    695c:	0f b6       	in	r0, 0x3f	; 63
    695e:	f8 94       	cli
    6960:	9e bf       	out	0x3e, r25	; 62
    6962:	0f be       	out	0x3f, r0	; 63
    6964:	8d bf       	out	0x3d, r24	; 61
    6966:	df 91       	pop	r29
    6968:	cf 91       	pop	r28
    696a:	1f 91       	pop	r17
    696c:	ff 90       	pop	r15
    696e:	ef 90       	pop	r14
    6970:	08 95       	ret

00006972 <spi_OpticsDAC>:

 Set OPTICS DAC channel to (12 bit) value	

 ***********************************************/
void spi_OpticsDAC(uint8_t channel, uint16_t value)
{
    6972:	ef 92       	push	r14
    6974:	ff 92       	push	r15
    6976:	1f 93       	push	r17
    6978:	cf 93       	push	r28
    697a:	df 93       	push	r29
    697c:	eb 01       	movw	r28, r22
    697e:	18 2f       	mov	r17, r24
    6980:	17 70       	andi	r17, 0x07	; 7
	printf ("Optics DAC 0x%X value = 0x%3X.   0x%02x  0x%02x\n", channel, value,   ((channel & 0x7) << 4)  | (value >> 8),  value & 0xFF);
    6982:	90 e1       	ldi	r25, 0x10	; 16
    6984:	19 9f       	mul	r17, r25
    6986:	90 01       	movw	r18, r0
    6988:	11 24       	eor	r1, r1
    698a:	e7 2e       	mov	r14, r23
    698c:	ff 24       	eor	r15, r15
    698e:	ab 01       	movw	r20, r22
    6990:	55 27       	eor	r21, r21
    6992:	5f 93       	push	r21
    6994:	4f 93       	push	r20
    6996:	2e 29       	or	r18, r14
    6998:	3f 29       	or	r19, r15
    699a:	3f 93       	push	r19
    699c:	2f 93       	push	r18
    699e:	df 93       	push	r29
    69a0:	6f 93       	push	r22
    69a2:	1f 92       	push	r1
    69a4:	8f 93       	push	r24
    69a6:	8e e2       	ldi	r24, 0x2E	; 46
    69a8:	91 e1       	ldi	r25, 0x11	; 17
    69aa:	9f 93       	push	r25
    69ac:	8f 93       	push	r24
    69ae:	0e 94 63 42 	call	0x84c6	; 0x84c6 <printf>

	selectOpticsDAC();
    69b2:	0e 94 c6 2c 	call	0x598c	; 0x598c <selectOpticsDAC>
	spiTransferByte( ((channel & 0x7) << 4)  | (value >> 8) );  // channel in bits 14:12.  12 Bit DAC Value in bits 11:0
    69b6:	81 2f       	mov	r24, r17
    69b8:	82 95       	swap	r24
    69ba:	80 7f       	andi	r24, 0xF0	; 240
    69bc:	8e 29       	or	r24, r14
    69be:	62 df       	rcall	.-316    	; 0x6884 <spiTransferByte>
	spiTransferByte(value & 0xFF);  // little endian so spiTransferByte(value); should work just as well.
    69c0:	8c 2f       	mov	r24, r28
    69c2:	60 df       	rcall	.-320    	; 0x6884 <spiTransferByte>
	deSelectOpticsDAC(); 
    69c4:	0e 94 cc 2c 	call	0x5998	; 0x5998 <deSelectOpticsDAC>
}
    69c8:	8d b7       	in	r24, 0x3d	; 61
    69ca:	9e b7       	in	r25, 0x3e	; 62
    69cc:	0a 96       	adiw	r24, 0x0a	; 10
    69ce:	0f b6       	in	r0, 0x3f	; 63
    69d0:	f8 94       	cli
    69d2:	9e bf       	out	0x3e, r25	; 62
    69d4:	0f be       	out	0x3f, r0	; 63
    69d6:	8d bf       	out	0x3d, r24	; 61
    69d8:	df 91       	pop	r29
    69da:	cf 91       	pop	r28
    69dc:	1f 91       	pop	r17
    69de:	ff 90       	pop	r15
    69e0:	ef 90       	pop	r14
    69e2:	08 95       	ret

000069e4 <spi_OpticsDAC_BroadCast>:


void spi_OpticsDAC_BroadCast(uint16_t value)
{
    69e4:	cf 93       	push	r28
    69e6:	df 93       	push	r29
    69e8:	c8 2f       	mov	r28, r24
    69ea:	d9 2f       	mov	r29, r25
	printf ("in OpticsDac BroadCast\n");
    69ec:	8f e5       	ldi	r24, 0x5F	; 95
    69ee:	91 e1       	ldi	r25, 0x11	; 17
    69f0:	0e 94 a2 42 	call	0x8544	; 0x8544 <puts>
	selectOpticsDAC();
    69f4:	0e 94 c6 2c 	call	0x598c	; 0x598c <selectOpticsDAC>
	spiTransferByte(SET_ALL_CHANNELS | (value>>8) );
    69f8:	8d 2f       	mov	r24, r29
    69fa:	80 6c       	ori	r24, 0xC0	; 192
    69fc:	43 df       	rcall	.-378    	; 0x6884 <spiTransferByte>
	spiTransferByte(value & 0xFF);  // little endian so spiTransferByte(value); should work just as well.
    69fe:	8c 2f       	mov	r24, r28
    6a00:	41 df       	rcall	.-382    	; 0x6884 <spiTransferByte>
	deSelectOpticsDAC();
    6a02:	0e 94 cc 2c 	call	0x5998	; 0x5998 <deSelectOpticsDAC>
}
    6a06:	df 91       	pop	r29
    6a08:	cf 91       	pop	r28
    6a0a:	08 95       	ret

00006a0c <spi_OpticsBuckCtl_BroadCast>:


void spi_OpticsBuckCtl_BroadCast(uint16_t value)
{
    6a0c:	cf 93       	push	r28
    6a0e:	df 93       	push	r29
    6a10:	c8 2f       	mov	r28, r24
    6a12:	d9 2f       	mov	r29, r25
	printf ("in BUCK Dac BroadCast\n");
    6a14:	86 e7       	ldi	r24, 0x76	; 118
    6a16:	91 e1       	ldi	r25, 0x11	; 17
    6a18:	0e 94 a2 42 	call	0x8544	; 0x8544 <puts>

	selectBuckCtrlDAC();
    6a1c:	0e 94 de 2c 	call	0x59bc	; 0x59bc <selectBuckCtrlDAC>
	spiTransferByte(SET_ALL_CHANNELS | (value>>8) );
    6a20:	8d 2f       	mov	r24, r29
    6a22:	80 6c       	ori	r24, 0xC0	; 192
    6a24:	2f df       	rcall	.-418    	; 0x6884 <spiTransferByte>
	spiTransferByte(value & 0xFF);  // little endian so spiTransferByte(value); should work just as well.
    6a26:	8c 2f       	mov	r24, r28
    6a28:	2d df       	rcall	.-422    	; 0x6884 <spiTransferByte>
	deSelectBuckCtrlDAC();
    6a2a:	0e 94 e4 2c 	call	0x59c8	; 0x59c8 <deSelectBuckCtrlDAC>
}
    6a2e:	df 91       	pop	r29
    6a30:	cf 91       	pop	r28
    6a32:	08 95       	ret

00006a34 <spi_FRAM_writeEnable>:
 *  send write enable command to FRAM.  CS must go high after byte sent for command to execute.
 *
 ********************************************************************************/
void spi_FRAM_writeEnable(void)
 {
	 selectFRAM();
    6a34:	0e 94 be 2c 	call	0x597c	; 0x597c <selectFRAM>
	 spiTransferByte(FRAM_WR_ENABLE);  
    6a38:	86 e0       	ldi	r24, 0x06	; 6
    6a3a:	24 df       	rcall	.-440    	; 0x6884 <spiTransferByte>
	 deSelectFRAM();
    6a3c:	0c 94 c2 2c 	jmp	0x5984	; 0x5984 <deSelectFRAM>
    6a40:	08 95       	ret

00006a42 <FRAM_ReadStatusRegister>:
 
 *
 ********************************************************************************/
 
 uint8_t FRAM_ReadStatusRegister(void)
 {
    6a42:	cf 93       	push	r28
	 uint8_t i;
	 
	 selectFRAM();
    6a44:	0e 94 be 2c 	call	0x597c	; 0x597c <selectFRAM>
	 spiTransferByte(FRAM_RDSR);  // send Read Status Register opcode	 
    6a48:	85 e0       	ldi	r24, 0x05	; 5
    6a4a:	1c df       	rcall	.-456    	; 0x6884 <spiTransferByte>
	 i = spiTransferByte(0);  //   
    6a4c:	80 e0       	ldi	r24, 0x00	; 0
    6a4e:	1a df       	rcall	.-460    	; 0x6884 <spiTransferByte>
    6a50:	c8 2f       	mov	r28, r24
	 deSelectFRAM();
    6a52:	0e 94 c2 2c 	call	0x5984	; 0x5984 <deSelectFRAM>
	 printf("0x%02X\n",i);
    6a56:	1f 92       	push	r1
    6a58:	cf 93       	push	r28
    6a5a:	8f ee       	ldi	r24, 0xEF	; 239
    6a5c:	92 e1       	ldi	r25, 0x12	; 18
    6a5e:	9f 93       	push	r25
    6a60:	8f 93       	push	r24
    6a62:	0e 94 63 42 	call	0x84c6	; 0x84c6 <printf>
	 return i; 
    6a66:	0f 90       	pop	r0
    6a68:	0f 90       	pop	r0
    6a6a:	0f 90       	pop	r0
    6a6c:	0f 90       	pop	r0
 }
    6a6e:	8c 2f       	mov	r24, r28
    6a70:	cf 91       	pop	r28
    6a72:	08 95       	ret

00006a74 <spi_FRAM_write>:
 *  Write numBytes to FRAM 
 *
 ********************************************************************************/

void spi_FRAM_write(uint16_t address, uint8_t *mosi, uint16_t numBytes)
{
    6a74:	ef 92       	push	r14
    6a76:	ff 92       	push	r15
    6a78:	0f 93       	push	r16
    6a7a:	1f 93       	push	r17
    6a7c:	cf 93       	push	r28
    6a7e:	df 93       	push	r29
    6a80:	8c 01       	movw	r16, r24
    6a82:	7b 01       	movw	r14, r22
    6a84:	ea 01       	movw	r28, r20
	
	
	if (address + numBytes > FRAM_SIZE)
    6a86:	84 0f       	add	r24, r20
    6a88:	95 1f       	adc	r25, r21
    6a8a:	81 30       	cpi	r24, 0x01	; 1
    6a8c:	90 42       	sbci	r25, 0x20	; 32
    6a8e:	20 f0       	brcs	.+8      	; 0x6a98 <spi_FRAM_write+0x24>
	{ 
		printf("FW ERROR, writing past end of FRAM\n");
    6a90:	8c e8       	ldi	r24, 0x8C	; 140
    6a92:	91 e1       	ldi	r25, 0x11	; 17
    6a94:	0e 94 a2 42 	call	0x8544	; 0x8544 <puts>
	}
	
	
	spi_FRAM_writeEnable();     // may not need this after written once
    6a98:	cd df       	rcall	.-102    	; 0x6a34 <spi_FRAM_writeEnable>
	selectFRAM();	
    6a9a:	0e 94 be 2c 	call	0x597c	; 0x597c <selectFRAM>
	spiTransferByte(FRAM_WRITE);    // send Write opcode;
    6a9e:	82 e0       	ldi	r24, 0x02	; 2
    6aa0:	f1 de       	rcall	.-542    	; 0x6884 <spiTransferByte>
	spiSend2ByteBigEndian(address);
    6aa2:	c8 01       	movw	r24, r16
    6aa4:	18 df       	rcall	.-464    	; 0x68d6 <spiSend2ByteBigEndian>
	spiSendBytes(mosi, numBytes);
    6aa6:	be 01       	movw	r22, r28
    6aa8:	c7 01       	movw	r24, r14
    6aaa:	f2 de       	rcall	.-540    	; 0x6890 <spiSendBytes>
    6aac:	0e 94 c2 2c 	call	0x5984	; 0x5984 <deSelectFRAM>
	deSelectFRAM();
    6ab0:	df 91       	pop	r29
}
    6ab2:	cf 91       	pop	r28
    6ab4:	1f 91       	pop	r17
    6ab6:	0f 91       	pop	r16
    6ab8:	ff 90       	pop	r15
    6aba:	ef 90       	pop	r14
    6abc:	08 95       	ret

00006abe <spi_FRAM_read>:
    6abe:	cf 92       	push	r12
 *
 ********************************************************************************/


void spi_FRAM_read(uint16_t address, uint8_t *miso, uint16_t numBytes)
{
    6ac0:	df 92       	push	r13
    6ac2:	ef 92       	push	r14
    6ac4:	ff 92       	push	r15
    6ac6:	0f 93       	push	r16
    6ac8:	1f 93       	push	r17
    6aca:	cf 93       	push	r28
    6acc:	df 93       	push	r29
    6ace:	c8 2f       	mov	r28, r24
    6ad0:	d9 2f       	mov	r29, r25
    6ad2:	8b 01       	movw	r16, r22
    6ad4:	6a 01       	movw	r12, r20
	selectFRAM();	
    6ad6:	0e 94 be 2c 	call	0x597c	; 0x597c <selectFRAM>
//	spi_chipSelect(CSFRAM);
	spiTransferByte(FRAM_READ);    // send Read opcode;
    6ada:	83 e0       	ldi	r24, 0x03	; 3
    6adc:	d3 de       	rcall	.-602    	; 0x6884 <spiTransferByte>
	spiTransferByte( (uint8_t) (address>>8));    // MSB first
    6ade:	8d 2f       	mov	r24, r29
    6ae0:	d1 de       	rcall	.-606    	; 0x6884 <spiTransferByte>
	spiTransferByte( (uint8_t) (address & 0xFF) );
    6ae2:	8c 2f       	mov	r24, r28
    6ae4:	cf de       	rcall	.-610    	; 0x6884 <spiTransferByte>
    6ae6:	c0 e0       	ldi	r28, 0x00	; 0
	
	//	SPCR &=  ~_BV(SPE);   	//disable SPI hardware for bit-bang read
	//	DISABLE_INTERRUPTS;
	for (uint16_t i=0;i<numBytes;i++)
    6ae8:	d0 e0       	ldi	r29, 0x00	; 0
    6aea:	0a c0       	rjmp	.+20     	; 0x6b00 <spi_FRAM_read+0x42>
    6aec:	78 01       	movw	r14, r16
	{
		//#if BOARD_REVISION_C			// Board REV C needs bit bang SPI for FRAM.
		//		*miso++ = FRAMgetByte();
		//#else
		*miso++ = spiTransferByte(0);
    6aee:	8f ef       	ldi	r24, 0xFF	; 255
    6af0:	e8 1a       	sub	r14, r24
    6af2:	f8 0a       	sbc	r15, r24
    6af4:	80 e0       	ldi	r24, 0x00	; 0
    6af6:	c6 de       	rcall	.-628    	; 0x6884 <spiTransferByte>
    6af8:	f8 01       	movw	r30, r16
    6afa:	80 83       	st	Z, r24
    6afc:	21 96       	adiw	r28, 0x01	; 1
	spiTransferByte( (uint8_t) (address>>8));    // MSB first
	spiTransferByte( (uint8_t) (address & 0xFF) );
	
	//	SPCR &=  ~_BV(SPE);   	//disable SPI hardware for bit-bang read
	//	DISABLE_INTERRUPTS;
	for (uint16_t i=0;i<numBytes;i++)
    6afe:	87 01       	movw	r16, r14
	{
		//#if BOARD_REVISION_C			// Board REV C needs bit bang SPI for FRAM.
		//		*miso++ = FRAMgetByte();
		//#else
		*miso++ = spiTransferByte(0);
    6b00:	cc 15       	cp	r28, r12
	spiTransferByte( (uint8_t) (address>>8));    // MSB first
	spiTransferByte( (uint8_t) (address & 0xFF) );
	
	//	SPCR &=  ~_BV(SPE);   	//disable SPI hardware for bit-bang read
	//	DISABLE_INTERRUPTS;
	for (uint16_t i=0;i<numBytes;i++)
    6b02:	dd 05       	cpc	r29, r13
    6b04:	98 f3       	brcs	.-26     	; 0x6aec <spi_FRAM_read+0x2e>
    6b06:	0e 94 c2 2c 	call	0x5984	; 0x5984 <deSelectFRAM>
		*miso++ = spiTransferByte(0);
		//#endif
	}

//	spi_chipDeSelect(CSFRAM);
	deSelectFRAM();
    6b0a:	df 91       	pop	r29
	//	ENABLE_INTERRUPTS;
	//	SPCR |=  _BV(SPE);  // enable SPI
}
    6b0c:	cf 91       	pop	r28
    6b0e:	1f 91       	pop	r17
    6b10:	0f 91       	pop	r16
    6b12:	ff 90       	pop	r15
    6b14:	ef 90       	pop	r14
    6b16:	df 90       	pop	r13
    6b18:	cf 90       	pop	r12
    6b1a:	08 95       	ret

00006b1c <read_FRAM_DeviceID>:
    6b1c:	cf 93       	push	r28
	deSelectFRAM();
}
*/

void read_FRAM_DeviceID(void)
{
    6b1e:	df 93       	push	r29
    6b20:	00 d0       	rcall	.+0      	; 0x6b22 <read_FRAM_DeviceID+0x6>
    6b22:	1f 92       	push	r1
    6b24:	cd b7       	in	r28, 0x3d	; 61
    6b26:	de b7       	in	r29, 0x3e	; 62
	uint8_t miso[4];
	selectFRAM();
    6b28:	0e 94 be 2c 	call	0x597c	; 0x597c <selectFRAM>
	spiTransferByte(FRAM_RDID);    
    6b2c:	8f ea       	ldi	r24, 0xAF	; 175
    6b2e:	aa de       	rcall	.-684    	; 0x6884 <spiTransferByte>
	spiGetBytes(miso, 4);
    6b30:	64 e0       	ldi	r22, 0x04	; 4
    6b32:	70 e0       	ldi	r23, 0x00	; 0
    6b34:	ce 01       	movw	r24, r28
    6b36:	01 96       	adiw	r24, 0x01	; 1
    6b38:	bd de       	rcall	.-646    	; 0x68b4 <spiGetBytes>
	deSelectFRAM();
    6b3a:	0e 94 c2 2c 	call	0x5984	; 0x5984 <deSelectFRAM>
	printf("%X : %X : %X : %X\n", miso[0],miso[1],miso[2], miso[3]);
    6b3e:	3c 81       	ldd	r19, Y+4	; 0x04
    6b40:	2b 81       	ldd	r18, Y+3	; 0x03
    6b42:	9a 81       	ldd	r25, Y+2	; 0x02
    6b44:	89 81       	ldd	r24, Y+1	; 0x01
    6b46:	1f 92       	push	r1
    6b48:	3f 93       	push	r19
    6b4a:	1f 92       	push	r1
    6b4c:	2f 93       	push	r18
    6b4e:	1f 92       	push	r1
    6b50:	9f 93       	push	r25
    6b52:	1f 92       	push	r1
    6b54:	8f 93       	push	r24
    6b56:	8f ea       	ldi	r24, 0xAF	; 175
    6b58:	91 e1       	ldi	r25, 0x11	; 17
    6b5a:	9f 93       	push	r25
    6b5c:	8f 93       	push	r24
    6b5e:	0e 94 63 42 	call	0x84c6	; 0x84c6 <printf>
	

	
}
    6b62:	0f b6       	in	r0, 0x3f	; 63
    6b64:	f8 94       	cli
    6b66:	de bf       	out	0x3e, r29	; 62
    6b68:	0f be       	out	0x3f, r0	; 63
    6b6a:	cd bf       	out	0x3d, r28	; 61
    6b6c:	0f 90       	pop	r0
    6b6e:	0f 90       	pop	r0
    6b70:	0f 90       	pop	r0
    6b72:	0f 90       	pop	r0
    6b74:	df 91       	pop	r29
    6b76:	cf 91       	pop	r28
    6b78:	08 95       	ret

00006b7a <wrFRAM>:


void wrFRAM(void)
{
    6b7a:	cf 93       	push	r28
    6b7c:	df 93       	push	r29
    6b7e:	cd b7       	in	r28, 0x3d	; 61
    6b80:	de b7       	in	r29, 0x3e	; 62
    6b82:	28 97       	sbiw	r28, 0x08	; 8
    6b84:	0f b6       	in	r0, 0x3f	; 63
    6b86:	f8 94       	cli
    6b88:	de bf       	out	0x3e, r29	; 62
    6b8a:	0f be       	out	0x3f, r0	; 63
    6b8c:	cd bf       	out	0x3d, r28	; 61
	
	
	spi_FRAM_writeEnable();
    6b8e:	52 df       	rcall	.-348    	; 0x6a34 <spi_FRAM_writeEnable>

	uint8_t  miso[4], mosi[4];
	mosi[0] = 31;
    6b90:	8f e1       	ldi	r24, 0x1F	; 31
    6b92:	8d 83       	std	Y+5, r24	; 0x05
	mosi[1] = 65;
    6b94:	81 e4       	ldi	r24, 0x41	; 65
    6b96:	8e 83       	std	Y+6, r24	; 0x06
	mosi[2] = 129;
    6b98:	81 e8       	ldi	r24, 0x81	; 129
    6b9a:	8f 83       	std	Y+7, r24	; 0x07
	mosi[3] = 250;
    6b9c:	8a ef       	ldi	r24, 0xFA	; 250
    6b9e:	88 87       	std	Y+8, r24	; 0x08
	spi_FRAM_write(1024, mosi, 4);
    6ba0:	44 e0       	ldi	r20, 0x04	; 4
    6ba2:	50 e0       	ldi	r21, 0x00	; 0
    6ba4:	be 01       	movw	r22, r28
    6ba6:	6b 5f       	subi	r22, 0xFB	; 251
    6ba8:	7f 4f       	sbci	r23, 0xFF	; 255
    6baa:	80 e0       	ldi	r24, 0x00	; 0
    6bac:	94 e0       	ldi	r25, 0x04	; 4
    6bae:	62 df       	rcall	.-316    	; 0x6a74 <spi_FRAM_write>

	spi_FRAM_read(1024, miso, 4);
    6bb0:	44 e0       	ldi	r20, 0x04	; 4
    6bb2:	50 e0       	ldi	r21, 0x00	; 0
    6bb4:	be 01       	movw	r22, r28
    6bb6:	6f 5f       	subi	r22, 0xFF	; 255
    6bb8:	7f 4f       	sbci	r23, 0xFF	; 255
    6bba:	80 e0       	ldi	r24, 0x00	; 0
    6bbc:	94 e0       	ldi	r25, 0x04	; 4
    6bbe:	7f df       	rcall	.-258    	; 0x6abe <spi_FRAM_read>
	printf("%X %X %X %X\n", miso[0],miso[1],miso[2], miso[3]);		
    6bc0:	3c 81       	ldd	r19, Y+4	; 0x04
    6bc2:	2b 81       	ldd	r18, Y+3	; 0x03
    6bc4:	9a 81       	ldd	r25, Y+2	; 0x02
    6bc6:	89 81       	ldd	r24, Y+1	; 0x01
    6bc8:	1f 92       	push	r1
    6bca:	3f 93       	push	r19
    6bcc:	1f 92       	push	r1
    6bce:	2f 93       	push	r18
    6bd0:	1f 92       	push	r1
    6bd2:	9f 93       	push	r25
    6bd4:	1f 92       	push	r1
    6bd6:	8f 93       	push	r24
    6bd8:	82 ec       	ldi	r24, 0xC2	; 194
    6bda:	91 e1       	ldi	r25, 0x11	; 17
    6bdc:	9f 93       	push	r25
    6bde:	8f 93       	push	r24
    6be0:	0e 94 63 42 	call	0x84c6	; 0x84c6 <printf>
}
    6be4:	0f b6       	in	r0, 0x3f	; 63
    6be6:	f8 94       	cli
    6be8:	de bf       	out	0x3e, r29	; 62
    6bea:	0f be       	out	0x3f, r0	; 63
    6bec:	cd bf       	out	0x3d, r28	; 61
    6bee:	28 96       	adiw	r28, 0x08	; 8
    6bf0:	0f b6       	in	r0, 0x3f	; 63
    6bf2:	f8 94       	cli
    6bf4:	de bf       	out	0x3e, r29	; 62
    6bf6:	0f be       	out	0x3f, r0	; 63
    6bf8:	cd bf       	out	0x3d, r28	; 61
    6bfa:	df 91       	pop	r29
    6bfc:	cf 91       	pop	r28
    6bfe:	08 95       	ret

00006c00 <framSaveSerialNumber>:

void framSaveSerialNumber(uint16_t SN)
{
	serialNumber = SN;
    6c00:	90 93 d0 13 	sts	0x13D0, r25	; 0x8013d0 <serialNumber+0x1>
    6c04:	80 93 cf 13 	sts	0x13CF, r24	; 0x8013cf <serialNumber>
	spi_FRAM_write(SN_ADDRESS, (uint8_t *) &serialNumber, 2);
    6c08:	42 e0       	ldi	r20, 0x02	; 2
    6c0a:	50 e0       	ldi	r21, 0x00	; 0
    6c0c:	6f ec       	ldi	r22, 0xCF	; 207
    6c0e:	73 e1       	ldi	r23, 0x13	; 19
    6c10:	80 e0       	ldi	r24, 0x00	; 0
    6c12:	90 e0       	ldi	r25, 0x00	; 0
    6c14:	2f cf       	rjmp	.-418    	; 0x6a74 <spi_FRAM_write>
    6c16:	08 95       	ret

00006c18 <framReadSerialNumber>:
}

void framReadSerialNumber(void)
{
	spi_FRAM_read(SN_ADDRESS,  (uint8_t *)&serialNumber, 2    );
    6c18:	42 e0       	ldi	r20, 0x02	; 2
    6c1a:	50 e0       	ldi	r21, 0x00	; 0
    6c1c:	6f ec       	ldi	r22, 0xCF	; 207
    6c1e:	73 e1       	ldi	r23, 0x13	; 19
    6c20:	80 e0       	ldi	r24, 0x00	; 0
    6c22:	90 e0       	ldi	r25, 0x00	; 0
    6c24:	4c df       	rcall	.-360    	; 0x6abe <spi_FRAM_read>
	printf("SN:%u\n", serialNumber);
    6c26:	80 91 d0 13 	lds	r24, 0x13D0	; 0x8013d0 <serialNumber+0x1>
    6c2a:	8f 93       	push	r24
    6c2c:	80 91 cf 13 	lds	r24, 0x13CF	; 0x8013cf <serialNumber>
    6c30:	8f 93       	push	r24
    6c32:	8f ec       	ldi	r24, 0xCF	; 207
    6c34:	91 e1       	ldi	r25, 0x11	; 17
    6c36:	9f 93       	push	r25
    6c38:	8f 93       	push	r24
    6c3a:	0e 94 63 42 	call	0x84c6	; 0x84c6 <printf>
}
    6c3e:	0f 90       	pop	r0
    6c40:	0f 90       	pop	r0
    6c42:	0f 90       	pop	r0
    6c44:	0f 90       	pop	r0
    6c46:	08 95       	ret

00006c48 <spi_RTC_Write>:
*   Transfer Bytes to the RTC via the SPI port.
*   first byte is the write command and register address
*
************************************/
uint8_t spi_RTC_Write(uint8_t addr, uint8_t *mosi,  uint8_t numBytes)
{
    6c48:	0f 93       	push	r16
    6c4a:	1f 93       	push	r17
    6c4c:	cf 93       	push	r28
    6c4e:	df 93       	push	r29
    6c50:	d8 2f       	mov	r29, r24
    6c52:	8b 01       	movw	r16, r22
    6c54:	c4 2f       	mov	r28, r20
	selectRTC();
    6c56:	0e 94 fc 2c 	call	0x59f8	; 0x59f8 <selectRTC>
	spiTransferByte( RTC_WRITE_CMD | addr);
    6c5a:	8d 2f       	mov	r24, r29
    6c5c:	80 62       	ori	r24, 0x20	; 32
    6c5e:	12 de       	rcall	.-988    	; 0x6884 <spiTransferByte>
	spiSendBytes(mosi, numBytes);
    6c60:	6c 2f       	mov	r22, r28
    6c62:	70 e0       	ldi	r23, 0x00	; 0
    6c64:	c8 01       	movw	r24, r16
    6c66:	14 de       	rcall	.-984    	; 0x6890 <spiSendBytes>
	deSelectRTC();
    6c68:	0e 94 f6 2c 	call	0x59ec	; 0x59ec <deSelectRTC>
	return numBytes;
}
    6c6c:	8c 2f       	mov	r24, r28
    6c6e:	df 91       	pop	r29
    6c70:	cf 91       	pop	r28
    6c72:	1f 91       	pop	r17
    6c74:	0f 91       	pop	r16
    6c76:	08 95       	ret

00006c78 <spi_RTC_Read>:

uint8_t spi_RTC_Read(uint8_t addr, uint8_t *miso,  uint8_t numBytes)
{
    6c78:	0f 93       	push	r16
    6c7a:	1f 93       	push	r17
    6c7c:	cf 93       	push	r28
    6c7e:	df 93       	push	r29
    6c80:	d8 2f       	mov	r29, r24
    6c82:	8b 01       	movw	r16, r22
    6c84:	c4 2f       	mov	r28, r20
	selectRTC();
    6c86:	0e 94 fc 2c 	call	0x59f8	; 0x59f8 <selectRTC>
	spiTransferByte(RTC_READ_CMD | addr);
    6c8a:	8d 2f       	mov	r24, r29
    6c8c:	80 6a       	ori	r24, 0xA0	; 160
    6c8e:	fa dd       	rcall	.-1036   	; 0x6884 <spiTransferByte>
	spiGetBytes(miso, numBytes);
    6c90:	6c 2f       	mov	r22, r28
    6c92:	70 e0       	ldi	r23, 0x00	; 0
    6c94:	c8 01       	movw	r24, r16
    6c96:	0e de       	rcall	.-996    	; 0x68b4 <spiGetBytes>
	deSelectRTC();
    6c98:	0e 94 f6 2c 	call	0x59ec	; 0x59ec <deSelectRTC>
	return numBytes;
}
    6c9c:	8c 2f       	mov	r24, r28
    6c9e:	df 91       	pop	r29
    6ca0:	cf 91       	pop	r28
    6ca2:	1f 91       	pop	r17
    6ca4:	0f 91       	pop	r16
    6ca6:	08 95       	ret

00006ca8 <getMuxConfiguration>:
*   Arguments: None
*
*      Return: active mux channel(s)
*******************************************************************************/
uint8_t getMuxConfiguration(void)
{
    6ca8:	cf 93       	push	r28
    6caa:	df 93       	push	r29
    6cac:	1f 92       	push	r1
    6cae:	cd b7       	in	r28, 0x3d	; 61
    6cb0:	de b7       	in	r29, 0x3e	; 62
	uint8_t channel;
	if (twi_read_bytes(I2C_PCA9546_MUX_ADDR, &channel, 1))
    6cb2:	41 e0       	ldi	r20, 0x01	; 1
    6cb4:	50 e0       	ldi	r21, 0x00	; 0
    6cb6:	be 01       	movw	r22, r28
    6cb8:	6f 5f       	subi	r22, 0xFF	; 255
    6cba:	7f 4f       	sbci	r23, 0xFF	; 255
    6cbc:	80 e7       	ldi	r24, 0x70	; 112
    6cbe:	80 d1       	rcall	.+768    	; 0x6fc0 <twi_read_bytes>
    6cc0:	89 2b       	or	r24, r25
    6cc2:	21 f0       	breq	.+8      	; 0x6ccc <getMuxConfiguration+0x24>
	{
		printf("error reading mux channel\n");
    6cc4:	86 ed       	ldi	r24, 0xD6	; 214
    6cc6:	91 e1       	ldi	r25, 0x11	; 17
    6cc8:	0e 94 a2 42 	call	0x8544	; 0x8544 <puts>
	}
	return channel;
}
    6ccc:	89 81       	ldd	r24, Y+1	; 0x01
    6cce:	0f 90       	pop	r0
    6cd0:	df 91       	pop	r29
    6cd2:	cf 91       	pop	r28
    6cd4:	08 95       	ret

00006cd6 <setI2Cmux>:
*   Arguments: whichMaes
*
*      Return: active muxchannel(s)
*******************************************************************************/
uint8_t setI2Cmux(uint8_t whichMUXch)
{
    6cd6:	cf 93       	push	r28
    6cd8:	df 93       	push	r29
    6cda:	1f 92       	push	r1
    6cdc:	cd b7       	in	r28, 0x3d	; 61
    6cde:	de b7       	in	r29, 0x3e	; 62
    6ce0:	89 83       	std	Y+1, r24	; 0x01
//	uint8_t bytesWritten=0;
	uint8_t ret_code = RETURN_OK;
	static  uint8_t numErrors[4] = {0,0,0,0};
	if ( whichMUXch<4 ) // one and only one channel selected?  0 is none selected; NOTE (x=whichMUXch-1) selects SDAx/SLAx 
    6ce2:	84 30       	cpi	r24, 0x04	; 4
    6ce4:	08 f0       	brcs	.+2      	; 0x6ce8 <setI2Cmux+0x12>
    6ce6:	4f c0       	rjmp	.+158    	; 0x6d86 <setI2Cmux+0xb0>
	{
			printf ("whichMUXch = %d \n", whichMUXch);
    6ce8:	1f 92       	push	r1
    6cea:	8f 93       	push	r24
    6cec:	80 ef       	ldi	r24, 0xF0	; 240
    6cee:	91 e1       	ldi	r25, 0x11	; 17
    6cf0:	9f 93       	push	r25
    6cf2:	8f 93       	push	r24
    6cf4:	0e 94 63 42 	call	0x84c6	; 0x84c6 <printf>
		if (twi_write_bytes(I2C_PCA9546_MUX_ADDR, &whichMUXch, 1))
    6cf8:	41 e0       	ldi	r20, 0x01	; 1
    6cfa:	be 01       	movw	r22, r28
    6cfc:	6f 5f       	subi	r22, 0xFF	; 255
    6cfe:	7f 4f       	sbci	r23, 0xFF	; 255
    6d00:	80 e7       	ldi	r24, 0x70	; 112
    6d02:	e7 d0       	rcall	.+462    	; 0x6ed2 <twi_write_bytes>
    6d04:	0f 90       	pop	r0
    6d06:	0f 90       	pop	r0
    6d08:	0f 90       	pop	r0
    6d0a:	0f 90       	pop	r0
    6d0c:	89 2b       	or	r24, r25
    6d0e:	09 f1       	breq	.+66     	; 0x6d52 <setI2Cmux+0x7c>
		{
			if (numErrors[whichMUXch] > 6) {
    6d10:	89 81       	ldd	r24, Y+1	; 0x01
    6d12:	e8 2f       	mov	r30, r24
    6d14:	f0 e0       	ldi	r31, 0x00	; 0
    6d16:	e7 58       	subi	r30, 0x87	; 135
    6d18:	fd 4e       	sbci	r31, 0xED	; 237
    6d1a:	90 81       	ld	r25, Z
    6d1c:	97 30       	cpi	r25, 0x07	; 7
//				flagError(I2C_LATCH);  // cleared only on reset
				init_twi();
    6d1e:	58 f0       	brcs	.+22     	; 0x6d36 <setI2Cmux+0x60>
    6d20:	61 d0       	rcall	.+194    	; 0x6de4 <init_twi>
				printf(" el ");
    6d22:	82 e0       	ldi	r24, 0x02	; 2
    6d24:	92 e1       	ldi	r25, 0x12	; 18
    6d26:	9f 93       	push	r25
    6d28:	8f 93       	push	r24
    6d2a:	0e 94 63 42 	call	0x84c6	; 0x84c6 <printf>
    6d2e:	0f 90       	pop	r0
    6d30:	0f 90       	pop	r0
			}
			else
				printf("ERROR - Setting MUX Channel = %d\n", whichMUXch);
			ret_code = RETURN_ERROR;
    6d32:	81 e0       	ldi	r24, 0x01	; 1
    6d34:	39 c0       	rjmp	.+114    	; 0x6da8 <setI2Cmux+0xd2>
//				flagError(I2C_LATCH);  // cleared only on reset
				init_twi();
				printf(" el ");
			}
			else
				printf("ERROR - Setting MUX Channel = %d\n", whichMUXch);
    6d36:	1f 92       	push	r1
    6d38:	8f 93       	push	r24
    6d3a:	87 e0       	ldi	r24, 0x07	; 7
    6d3c:	92 e1       	ldi	r25, 0x12	; 18
    6d3e:	9f 93       	push	r25
    6d40:	8f 93       	push	r24
    6d42:	0e 94 63 42 	call	0x84c6	; 0x84c6 <printf>
    6d46:	0f 90       	pop	r0
    6d48:	0f 90       	pop	r0
    6d4a:	0f 90       	pop	r0
    6d4c:	0f 90       	pop	r0
			ret_code = RETURN_ERROR;
    6d4e:	81 e0       	ldi	r24, 0x01	; 1
		}
		else if (getMuxConfiguration() != whichMUXch )
    6d50:	2b c0       	rjmp	.+86     	; 0x6da8 <setI2Cmux+0xd2>
    6d52:	aa df       	rcall	.-172    	; 0x6ca8 <getMuxConfiguration>
    6d54:	99 81       	ldd	r25, Y+1	; 0x01
    6d56:	89 17       	cp	r24, r25
    6d58:	21 f1       	breq	.+72     	; 0x6da2 <setI2Cmux+0xcc>
		{
			printf("ERROR - failed to confirm MUX channel.\r\n");
    6d5a:	89 e2       	ldi	r24, 0x29	; 41
    6d5c:	92 e1       	ldi	r25, 0x12	; 18
    6d5e:	0e 94 a2 42 	call	0x8544	; 0x8544 <puts>
			if (numErrors[whichMUXch] > 6) {
    6d62:	e9 81       	ldd	r30, Y+1	; 0x01
    6d64:	f0 e0       	ldi	r31, 0x00	; 0
    6d66:	e7 58       	subi	r30, 0x87	; 135
    6d68:	fd 4e       	sbci	r31, 0xED	; 237
    6d6a:	80 81       	ld	r24, Z
    6d6c:	87 30       	cpi	r24, 0x07	; 7
//				flagError(I2C_LATCH);  // cleared only on reset
				init_twi();
    6d6e:	d8 f0       	brcs	.+54     	; 0x6da6 <setI2Cmux+0xd0>
    6d70:	39 d0       	rcall	.+114    	; 0x6de4 <init_twi>
				printf(" em ");
    6d72:	81 e5       	ldi	r24, 0x51	; 81
    6d74:	92 e1       	ldi	r25, 0x12	; 18
    6d76:	9f 93       	push	r25
    6d78:	8f 93       	push	r24
    6d7a:	0e 94 63 42 	call	0x84c6	; 0x84c6 <printf>
    6d7e:	0f 90       	pop	r0
    6d80:	0f 90       	pop	r0
			}
			ret_code = RETURN_ERROR;
    6d82:	81 e0       	ldi	r24, 0x01	; 1
    6d84:	11 c0       	rjmp	.+34     	; 0x6da8 <setI2Cmux+0xd2>
		}
	}
	else
	{
		printf("ERROR - invalid MUX Channel = %d\r\n", whichMUXch);
    6d86:	1f 92       	push	r1
    6d88:	8f 93       	push	r24
    6d8a:	86 e5       	ldi	r24, 0x56	; 86
    6d8c:	92 e1       	ldi	r25, 0x12	; 18
    6d8e:	9f 93       	push	r25
    6d90:	8f 93       	push	r24
    6d92:	0e 94 63 42 	call	0x84c6	; 0x84c6 <printf>
    6d96:	0f 90       	pop	r0
    6d98:	0f 90       	pop	r0
    6d9a:	0f 90       	pop	r0
    6d9c:	0f 90       	pop	r0
		ret_code = RETURN_ERROR;
    6d9e:	81 e0       	ldi	r24, 0x01	; 1
    6da0:	03 c0       	rjmp	.+6      	; 0x6da8 <setI2Cmux+0xd2>
*      Return: active muxchannel(s)
*******************************************************************************/
uint8_t setI2Cmux(uint8_t whichMUXch)
{
//	uint8_t bytesWritten=0;
	uint8_t ret_code = RETURN_OK;
    6da2:	80 e0       	ldi	r24, 0x00	; 0
    6da4:	01 c0       	rjmp	.+2      	; 0x6da8 <setI2Cmux+0xd2>
			if (numErrors[whichMUXch] > 6) {
//				flagError(I2C_LATCH);  // cleared only on reset
				init_twi();
				printf(" em ");
			}
			ret_code = RETURN_ERROR;
    6da6:	81 e0       	ldi	r24, 0x01	; 1
		printf("ERROR - invalid MUX Channel = %d\r\n", whichMUXch);
		ret_code = RETURN_ERROR;

	}
	return ret_code;
}
    6da8:	0f 90       	pop	r0
    6daa:	df 91       	pop	r29
    6dac:	cf 91       	pop	r28
    6dae:	08 95       	ret

00006db0 <setStatus>:
  {
  	printf_P(message);
  	printf_P(s_fmt_twi_error, cr, status);
  }
  twi_stop();
}
    6db0:	9f 93       	push	r25
    6db2:	8f 93       	push	r24
    6db4:	8d e7       	ldi	r24, 0x7D	; 125
    6db6:	92 e1       	ldi	r25, 0x12	; 18
    6db8:	9f 93       	push	r25
    6dba:	8f 93       	push	r24
    6dbc:	0e 94 63 42 	call	0x84c6	; 0x84c6 <printf>
    6dc0:	0f 90       	pop	r0
    6dc2:	0f 90       	pop	r0
    6dc4:	0f 90       	pop	r0
    6dc6:	0f 90       	pop	r0
    6dc8:	08 95       	ret

00006dca <showERRORcode>:
    6dca:	1f 92       	push	r1
    6dcc:	8f 93       	push	r24
    6dce:	81 e9       	ldi	r24, 0x91	; 145
    6dd0:	92 e1       	ldi	r25, 0x12	; 18
    6dd2:	9f 93       	push	r25
    6dd4:	8f 93       	push	r24
    6dd6:	0e 94 63 42 	call	0x84c6	; 0x84c6 <printf>
    6dda:	0f 90       	pop	r0
    6ddc:	0f 90       	pop	r0
    6dde:	0f 90       	pop	r0
    6de0:	0f 90       	pop	r0
    6de2:	08 95       	ret

00006de4 <init_twi>:
    6de4:	84 e9       	ldi	r24, 0x94	; 148
    6de6:	80 93 bc 00 	sts	0x00BC, r24	; 0x8000bc <__TEXT_REGION_LENGTH__+0x7c00bc>
    6dea:	eb e0       	ldi	r30, 0x0B	; 11
    6dec:	f1 e0       	ldi	r31, 0x01	; 1
    6dee:	80 81       	ld	r24, Z
    6df0:	8f 7b       	andi	r24, 0xBF	; 191
    6df2:	80 83       	st	Z, r24
    6df4:	80 e0       	ldi	r24, 0x00	; 0
    6df6:	05 c0       	rjmp	.+10     	; 0x6e02 <init_twi+0x1e>
    6df8:	e3 e0       	ldi	r30, 0x03	; 3
    6dfa:	f8 e4       	ldi	r31, 0x48	; 72
    6dfc:	31 97       	sbiw	r30, 0x01	; 1
    6dfe:	f1 f7       	brne	.-4      	; 0x6dfc <init_twi+0x18>
    6e00:	8f 5f       	subi	r24, 0xFF	; 255
    6e02:	84 31       	cpi	r24, 0x14	; 20
    6e04:	c8 f3       	brcs	.-14     	; 0x6df8 <init_twi+0x14>
    6e06:	eb e0       	ldi	r30, 0x0B	; 11
    6e08:	f1 e0       	ldi	r31, 0x01	; 1
    6e0a:	80 81       	ld	r24, Z
    6e0c:	80 64       	ori	r24, 0x40	; 64
    6e0e:	80 83       	st	Z, r24
    6e10:	80 e0       	ldi	r24, 0x00	; 0
    6e12:	05 c0       	rjmp	.+10     	; 0x6e1e <init_twi+0x3a>
    6e14:	e3 e0       	ldi	r30, 0x03	; 3
    6e16:	f8 e4       	ldi	r31, 0x48	; 72
    6e18:	31 97       	sbiw	r30, 0x01	; 1
    6e1a:	f1 f7       	brne	.-4      	; 0x6e18 <init_twi+0x34>
    6e1c:	8f 5f       	subi	r24, 0xFF	; 255
    6e1e:	84 31       	cpi	r24, 0x14	; 20
    6e20:	c8 f3       	brcs	.-14     	; 0x6e14 <init_twi+0x30>
    6e22:	eb e0       	ldi	r30, 0x0B	; 11
    6e24:	f1 e0       	ldi	r31, 0x01	; 1
    6e26:	80 81       	ld	r24, Z
    6e28:	8f 7b       	andi	r24, 0xBF	; 191
    6e2a:	80 83       	st	Z, r24
    6e2c:	80 e0       	ldi	r24, 0x00	; 0
    6e2e:	05 c0       	rjmp	.+10     	; 0x6e3a <init_twi+0x56>
    6e30:	e3 e0       	ldi	r30, 0x03	; 3
    6e32:	f8 e4       	ldi	r31, 0x48	; 72
    6e34:	31 97       	sbiw	r30, 0x01	; 1
    6e36:	f1 f7       	brne	.-4      	; 0x6e34 <init_twi+0x50>
    6e38:	8f 5f       	subi	r24, 0xFF	; 255
    6e3a:	84 31       	cpi	r24, 0x14	; 20
    6e3c:	c8 f3       	brcs	.-14     	; 0x6e30 <init_twi+0x4c>
    6e3e:	eb e0       	ldi	r30, 0x0B	; 11
    6e40:	f1 e0       	ldi	r31, 0x01	; 1
    6e42:	80 81       	ld	r24, Z
    6e44:	80 64       	ori	r24, 0x40	; 64
    6e46:	80 83       	st	Z, r24
    6e48:	e9 eb       	ldi	r30, 0xB9	; 185
    6e4a:	f0 e0       	ldi	r31, 0x00	; 0
    6e4c:	80 81       	ld	r24, Z
    6e4e:	8c 7f       	andi	r24, 0xFC	; 252
    6e50:	80 83       	st	Z, r24
    6e52:	80 81       	ld	r24, Z
    6e54:	80 83       	st	Z, r24
    6e56:	80 e1       	ldi	r24, 0x10	; 16
    6e58:	80 93 b8 00 	sts	0x00B8, r24	; 0x8000b8 <__TEXT_REGION_LENGTH__+0x7c00b8>
    6e5c:	ec eb       	ldi	r30, 0xBC	; 188
    6e5e:	f0 e0       	ldi	r31, 0x00	; 0
    6e60:	80 81       	ld	r24, Z
    6e62:	84 60       	ori	r24, 0x04	; 4
    6e64:	80 83       	st	Z, r24
    6e66:	81 e0       	ldi	r24, 0x01	; 1
    6e68:	80 93 d1 13 	sts	0x13D1, r24	; 0x8013d1 <verbose>
    6e6c:	08 95       	ret

00006e6e <twi_start>:
    6e6e:	84 ea       	ldi	r24, 0xA4	; 164
    6e70:	80 93 bc 00 	sts	0x00BC, r24	; 0x8000bc <__TEXT_REGION_LENGTH__+0x7c00bc>
    6e74:	10 92 8d 13 	sts	0x138D, r1	; 0x80138d <__data_end+0x1>
    6e78:	10 92 8c 13 	sts	0x138C, r1	; 0x80138c <__data_end>
    6e7c:	80 91 bc 00 	lds	r24, 0x00BC	; 0x8000bc <__TEXT_REGION_LENGTH__+0x7c00bc>
    6e80:	88 23       	and	r24, r24
    6e82:	34 f0       	brlt	.+12     	; 0x6e90 <twi_start+0x22>
    6e84:	80 91 8c 13 	lds	r24, 0x138C	; 0x80138c <__data_end>
    6e88:	90 91 8d 13 	lds	r25, 0x138D	; 0x80138d <__data_end+0x1>
    6e8c:	4e 97       	sbiw	r24, 0x1e	; 30
    6e8e:	b0 f3       	brcs	.-20     	; 0x6e7c <twi_start+0xe>
    6e90:	80 91 8c 13 	lds	r24, 0x138C	; 0x80138c <__data_end>
    6e94:	90 91 8d 13 	lds	r25, 0x138D	; 0x80138d <__data_end+0x1>
    6e98:	4e 97       	sbiw	r24, 0x1e	; 30
    6e9a:	30 f0       	brcs	.+12     	; 0x6ea8 <twi_start+0x3a>
    6e9c:	84 ea       	ldi	r24, 0xA4	; 164
    6e9e:	92 e1       	ldi	r25, 0x12	; 18
    6ea0:	0e 94 a2 42 	call	0x8544	; 0x8544 <puts>
    6ea4:	81 e0       	ldi	r24, 0x01	; 1
    6ea6:	08 95       	ret
    6ea8:	80 91 b9 00 	lds	r24, 0x00B9	; 0x8000b9 <__TEXT_REGION_LENGTH__+0x7c00b9>
    6eac:	88 7f       	andi	r24, 0xF8	; 248
    6eae:	88 30       	cpi	r24, 0x08	; 8
    6eb0:	71 f0       	breq	.+28     	; 0x6ece <twi_start+0x60>
    6eb2:	1f 92       	push	r1
    6eb4:	8f 93       	push	r24
    6eb6:	8b eb       	ldi	r24, 0xBB	; 187
    6eb8:	92 e1       	ldi	r25, 0x12	; 18
    6eba:	9f 93       	push	r25
    6ebc:	8f 93       	push	r24
    6ebe:	0e 94 63 42 	call	0x84c6	; 0x84c6 <printf>
    6ec2:	0f 90       	pop	r0
    6ec4:	0f 90       	pop	r0
    6ec6:	0f 90       	pop	r0
    6ec8:	0f 90       	pop	r0
    6eca:	81 e0       	ldi	r24, 0x01	; 1
    6ecc:	08 95       	ret
    6ece:	80 e0       	ldi	r24, 0x00	; 0
    6ed0:	08 95       	ret

00006ed2 <twi_write_bytes>:
/*******************************************************
   write numBytes of *dataOut to twi address
	returns either RETURN_OK or RETURN_ERROR
********************************************************/
int twi_write_bytes(uint8_t twi_addr,  uint8_t* dataOut, uint8_t numBytes)
{
    6ed2:	0f 93       	push	r16
    6ed4:	1f 93       	push	r17
    6ed6:	cf 93       	push	r28
    6ed8:	df 93       	push	r29
    6eda:	08 2f       	mov	r16, r24
    6edc:	eb 01       	movw	r28, r22
    6ede:	14 2f       	mov	r17, r20

	if (twi_start()!=RETURN_OK)  { 	return RETURN_ERROR; 	}
    6ee0:	c6 df       	rcall	.-116    	; 0x6e6e <twi_start>
    6ee2:	81 11       	cpse	r24, r1
    6ee4:	66 c0       	rjmp	.+204    	; 0x6fb2 <twi_write_bytes+0xe0>

	sendByte( (twi_addr <<1) | TW_WRITE );  // send Address and write command
    6ee6:	00 0f       	add	r16, r16
/*******************************************************
// assign byte to TWDR then clear interrupt to start byte transmission.  
********************************************************/
inline void	sendByte(uint8_t byte)
{
	TWDR = byte;
    6ee8:	00 93 bb 00 	sts	0x00BB, r16	; 0x8000bb <__TEXT_REGION_LENGTH__+0x7c00bb>
	TWCR = _BV(TWINT) | _BV(TWEN); /* clear interrupt to start transmission */
    6eec:	84 e8       	ldi	r24, 0x84	; 132
    6eee:	80 93 bc 00 	sts	0x00BC, r24	; 0x8000bc <__TEXT_REGION_LENGTH__+0x7c00bc>
/*******************************************************
// wait until transmission is complete; return ERROR if timed out
********************************************************/
inline uint8_t waitForTransmit(void)
{
	ms_twiCount = 0; 
    6ef2:	10 92 8d 13 	sts	0x138D, r1	; 0x80138d <__data_end+0x1>
    6ef6:	10 92 8c 13 	sts	0x138C, r1	; 0x80138c <__data_end>
	while (!(TWCR & _BV(TWINT)) && (ms_twiCount < TWI_TIMEOUT)) 
    6efa:	80 91 bc 00 	lds	r24, 0x00BC	; 0x8000bc <__TEXT_REGION_LENGTH__+0x7c00bc>
    6efe:	88 23       	and	r24, r24
    6f00:	34 f0       	brlt	.+12     	; 0x6f0e <twi_write_bytes+0x3c>
    6f02:	80 91 8c 13 	lds	r24, 0x138C	; 0x80138c <__data_end>
    6f06:	90 91 8d 13 	lds	r25, 0x138D	; 0x80138d <__data_end+0x1>
    6f0a:	4e 97       	sbiw	r24, 0x1e	; 30
    6f0c:	b0 f3       	brcs	.-20     	; 0x6efa <twi_write_bytes+0x28>
	{;} 	
	return (ms_twiCount >= TWI_TIMEOUT);  // inconsistent coding practice here, but works as long as RETURN_ERROR==1
    6f0e:	80 91 8c 13 	lds	r24, 0x138C	; 0x80138c <__data_end>
    6f12:	90 91 8d 13 	lds	r25, 0x138D	; 0x80138d <__data_end+0x1>
	if (twi_start()!=RETURN_OK)  { 	return RETURN_ERROR; 	}

	sendByte( (twi_addr <<1) | TW_WRITE );  // send Address and write command
	waitForTransmit();

	uint8_t status = TWSR & 0xF8;
    6f16:	80 91 b9 00 	lds	r24, 0x00B9	; 0x8000b9 <__TEXT_REGION_LENGTH__+0x7c00b9>
    6f1a:	88 7f       	andi	r24, 0xF8	; 248
	if (status != TWI_SLA_W_SENT_ACK_RECIEVED)
    6f1c:	88 31       	cpi	r24, 0x18	; 24
    6f1e:	09 f4       	brne	.+2      	; 0x6f22 <twi_write_bytes+0x50>
    6f20:	3f c0       	rjmp	.+126    	; 0x6fa0 <twi_write_bytes+0xce>
/*******************************************************
 * STOP--signal the end of an TWI bus transfer 
********************************************************/
inline void twi_stop()
{
  TWCR = _BV(TWINT)|_BV(TWEN)|_BV(TWSTO);
    6f22:	84 e9       	ldi	r24, 0x94	; 148
    6f24:	80 93 bc 00 	sts	0x00BC, r24	; 0x8000bc <__TEXT_REGION_LENGTH__+0x7c00bc>

	uint8_t status = TWSR & 0xF8;
	if (status != TWI_SLA_W_SENT_ACK_RECIEVED)
	{
		twi_stop(); //TWCR = _BV(TWINT) | _BV(TWSTO) | _BV(TWEN); /* send stop condition */
		showERRORcode(TWI_SLA_W_SENT_ACK_NOT_RECIEVED);
    6f28:	80 e2       	ldi	r24, 0x20	; 32
    6f2a:	4f df       	rcall	.-354    	; 0x6dca <showERRORcode>
		return RETURN_ERROR;
    6f2c:	81 e0       	ldi	r24, 0x01	; 1
    6f2e:	90 e0       	ldi	r25, 0x00	; 0
    6f30:	42 c0       	rjmp	.+132    	; 0x6fb6 <twi_write_bytes+0xe4>
	}

	for (uint8_t i=0;i<numBytes; i++)
	{		
		sendByte(*dataOut++);
    6f32:	ae 01       	movw	r20, r28
    6f34:	4f 5f       	subi	r20, 0xFF	; 255
    6f36:	5f 4f       	sbci	r21, 0xFF	; 255
    6f38:	88 81       	ld	r24, Y
/*******************************************************
// assign byte to TWDR then clear interrupt to start byte transmission.  
********************************************************/
inline void	sendByte(uint8_t byte)
{
	TWDR = byte;
    6f3a:	80 93 bb 00 	sts	0x00BB, r24	; 0x8000bb <__TEXT_REGION_LENGTH__+0x7c00bb>
	TWCR = _BV(TWINT) | _BV(TWEN); /* clear interrupt to start transmission */
    6f3e:	84 e8       	ldi	r24, 0x84	; 132
    6f40:	80 93 bc 00 	sts	0x00BC, r24	; 0x8000bc <__TEXT_REGION_LENGTH__+0x7c00bc>
/*******************************************************
// wait until transmission is complete; return ERROR if timed out
********************************************************/
inline uint8_t waitForTransmit(void)
{
	ms_twiCount = 0; 
    6f44:	10 92 8d 13 	sts	0x138D, r1	; 0x80138d <__data_end+0x1>
    6f48:	10 92 8c 13 	sts	0x138C, r1	; 0x80138c <__data_end>
	while (!(TWCR & _BV(TWINT)) && (ms_twiCount < TWI_TIMEOUT)) 
    6f4c:	80 91 bc 00 	lds	r24, 0x00BC	; 0x8000bc <__TEXT_REGION_LENGTH__+0x7c00bc>
    6f50:	88 23       	and	r24, r24
    6f52:	34 f0       	brlt	.+12     	; 0x6f60 <twi_write_bytes+0x8e>
    6f54:	80 91 8c 13 	lds	r24, 0x138C	; 0x80138c <__data_end>
    6f58:	90 91 8d 13 	lds	r25, 0x138D	; 0x80138d <__data_end+0x1>
    6f5c:	4e 97       	sbiw	r24, 0x1e	; 30
    6f5e:	b0 f3       	brcs	.-20     	; 0x6f4c <twi_write_bytes+0x7a>
	{;} 	
	return (ms_twiCount >= TWI_TIMEOUT);  // inconsistent coding practice here, but works as long as RETURN_ERROR==1
    6f60:	80 91 8c 13 	lds	r24, 0x138C	; 0x80138c <__data_end>
    6f64:	90 91 8d 13 	lds	r25, 0x138D	; 0x80138d <__data_end+0x1>

	for (uint8_t i=0;i<numBytes; i++)
	{		
		sendByte(*dataOut++);
		waitForTransmit();
		status = TWSR & 0xF8;
    6f68:	80 91 b9 00 	lds	r24, 0x00B9	; 0x8000b9 <__TEXT_REGION_LENGTH__+0x7c00b9>
    6f6c:	88 7f       	andi	r24, 0xF8	; 248
		if (status != TWI_DATA_BYTE_SENT_ACK_RECIEVED )
    6f6e:	88 32       	cpi	r24, 0x28	; 40
    6f70:	a1 f0       	breq	.+40     	; 0x6f9a <twi_write_bytes+0xc8>
		{
			printf("byte sent status = =0x%02X\n",status);
    6f72:	1f 92       	push	r1
    6f74:	8f 93       	push	r24
    6f76:	8b ed       	ldi	r24, 0xDB	; 219
    6f78:	92 e1       	ldi	r25, 0x12	; 18
    6f7a:	9f 93       	push	r25
    6f7c:	8f 93       	push	r24
    6f7e:	0e 94 63 42 	call	0x84c6	; 0x84c6 <printf>
			TWCR = _BV(TWINT) | _BV(TWSTO) | _BV(TWEN);  /* send stop condition */
    6f82:	84 e9       	ldi	r24, 0x94	; 148
    6f84:	80 93 bc 00 	sts	0x00BC, r24	; 0x8000bc <__TEXT_REGION_LENGTH__+0x7c00bc>
			showERRORcode(TWI_DATA_BYTE_SENT_ACK_NOT_RECIEVED);
    6f88:	80 e3       	ldi	r24, 0x30	; 48
    6f8a:	1f df       	rcall	.-450    	; 0x6dca <showERRORcode>
			return RETURN_ERROR;
    6f8c:	0f 90       	pop	r0
    6f8e:	0f 90       	pop	r0
    6f90:	0f 90       	pop	r0
    6f92:	0f 90       	pop	r0
    6f94:	81 e0       	ldi	r24, 0x01	; 1
    6f96:	90 e0       	ldi	r25, 0x00	; 0
    6f98:	0e c0       	rjmp	.+28     	; 0x6fb6 <twi_write_bytes+0xe4>
		twi_stop(); //TWCR = _BV(TWINT) | _BV(TWSTO) | _BV(TWEN); /* send stop condition */
		showERRORcode(TWI_SLA_W_SENT_ACK_NOT_RECIEVED);
		return RETURN_ERROR;
	}

	for (uint8_t i=0;i<numBytes; i++)
    6f9a:	2f 5f       	subi	r18, 0xFF	; 255
	{		
		sendByte(*dataOut++);
    6f9c:	ea 01       	movw	r28, r20
    6f9e:	01 c0       	rjmp	.+2      	; 0x6fa2 <twi_write_bytes+0xd0>
    6fa0:	20 e0       	ldi	r18, 0x00	; 0
		twi_stop(); //TWCR = _BV(TWINT) | _BV(TWSTO) | _BV(TWEN); /* send stop condition */
		showERRORcode(TWI_SLA_W_SENT_ACK_NOT_RECIEVED);
		return RETURN_ERROR;
	}

	for (uint8_t i=0;i<numBytes; i++)
    6fa2:	21 17       	cp	r18, r17
    6fa4:	30 f2       	brcs	.-116    	; 0x6f32 <twi_write_bytes+0x60>
/*******************************************************
 * STOP--signal the end of an TWI bus transfer 
********************************************************/
inline void twi_stop()
{
  TWCR = _BV(TWINT)|_BV(TWEN)|_BV(TWSTO);
    6fa6:	84 e9       	ldi	r24, 0x94	; 148
    6fa8:	80 93 bc 00 	sts	0x00BC, r24	; 0x8000bc <__TEXT_REGION_LENGTH__+0x7c00bc>
			showERRORcode(TWI_DATA_BYTE_SENT_ACK_NOT_RECIEVED);
			return RETURN_ERROR;
		}
	}
	twi_stop();
	return RETURN_OK;
    6fac:	80 e0       	ldi	r24, 0x00	; 0
    6fae:	90 e0       	ldi	r25, 0x00	; 0
    6fb0:	02 c0       	rjmp	.+4      	; 0x6fb6 <twi_write_bytes+0xe4>
	returns either RETURN_OK or RETURN_ERROR
********************************************************/
int twi_write_bytes(uint8_t twi_addr,  uint8_t* dataOut, uint8_t numBytes)
{

	if (twi_start()!=RETURN_OK)  { 	return RETURN_ERROR; 	}
    6fb2:	81 e0       	ldi	r24, 0x01	; 1
    6fb4:	90 e0       	ldi	r25, 0x00	; 0
			return RETURN_ERROR;
		}
	}
	twi_stop();
	return RETURN_OK;
}
    6fb6:	df 91       	pop	r29
    6fb8:	cf 91       	pop	r28
    6fba:	1f 91       	pop	r17
    6fbc:	0f 91       	pop	r16
    6fbe:	08 95       	ret

00006fc0 <twi_read_bytes>:
 *  twi_read_bytes:  read 'len' bytes from address 'twi_addr' into '*buf'
 *
 *****************************************************************/

int twi_read_bytes(uint8_t twi_addr, uint8_t *buf, int len)
{
    6fc0:	ff 92       	push	r15
    6fc2:	0f 93       	push	r16
    6fc4:	1f 93       	push	r17
    6fc6:	cf 93       	push	r28
    6fc8:	df 93       	push	r29
    6fca:	f8 2e       	mov	r15, r24
    6fcc:	8b 01       	movw	r16, r22
    6fce:	ea 01       	movw	r28, r20
	if ( twi_start() != RETURN_OK )  { 	return RETURN_ERROR; 	}
    6fd0:	4e df       	rcall	.-356    	; 0x6e6e <twi_start>
    6fd2:	81 11       	cpse	r24, r1
    6fd4:	79 c0       	rjmp	.+242    	; 0x70c8 <twi_read_bytes+0x108>

	sendByte( (twi_addr <<1) | TW_READ );  // send Address and read command
    6fd6:	8f 2d       	mov	r24, r15
    6fd8:	90 e0       	ldi	r25, 0x00	; 0
    6fda:	88 0f       	add	r24, r24
    6fdc:	99 1f       	adc	r25, r25
    6fde:	81 60       	ori	r24, 0x01	; 1
/*******************************************************
// assign byte to TWDR then clear interrupt to start byte transmission.  
********************************************************/
inline void	sendByte(uint8_t byte)
{
	TWDR = byte;
    6fe0:	80 93 bb 00 	sts	0x00BB, r24	; 0x8000bb <__TEXT_REGION_LENGTH__+0x7c00bb>
	TWCR = _BV(TWINT) | _BV(TWEN); /* clear interrupt to start transmission */
    6fe4:	84 e8       	ldi	r24, 0x84	; 132
    6fe6:	80 93 bc 00 	sts	0x00BC, r24	; 0x8000bc <__TEXT_REGION_LENGTH__+0x7c00bc>
/*******************************************************
// wait until transmission is complete; return ERROR if timed out
********************************************************/
inline uint8_t waitForTransmit(void)
{
	ms_twiCount = 0; 
    6fea:	10 92 8d 13 	sts	0x138D, r1	; 0x80138d <__data_end+0x1>
    6fee:	10 92 8c 13 	sts	0x138C, r1	; 0x80138c <__data_end>
	while (!(TWCR & _BV(TWINT)) && (ms_twiCount < TWI_TIMEOUT)) 
    6ff2:	80 91 bc 00 	lds	r24, 0x00BC	; 0x8000bc <__TEXT_REGION_LENGTH__+0x7c00bc>
    6ff6:	88 23       	and	r24, r24
    6ff8:	34 f0       	brlt	.+12     	; 0x7006 <twi_read_bytes+0x46>
    6ffa:	80 91 8c 13 	lds	r24, 0x138C	; 0x80138c <__data_end>
    6ffe:	90 91 8d 13 	lds	r25, 0x138D	; 0x80138d <__data_end+0x1>
    7002:	4e 97       	sbiw	r24, 0x1e	; 30
    7004:	b0 f3       	brcs	.-20     	; 0x6ff2 <twi_read_bytes+0x32>
	{;} 	
	return (ms_twiCount >= TWI_TIMEOUT);  // inconsistent coding practice here, but works as long as RETURN_ERROR==1
    7006:	80 91 8c 13 	lds	r24, 0x138C	; 0x80138c <__data_end>
    700a:	90 91 8d 13 	lds	r25, 0x138D	; 0x80138d <__data_end+0x1>
{
	if ( twi_start() != RETURN_OK )  { 	return RETURN_ERROR; 	}

	sendByte( (twi_addr <<1) | TW_READ );  // send Address and read command
	waitForTransmit();
	uint8_t status = TWSR & 0xF8;
    700e:	80 91 b9 00 	lds	r24, 0x00B9	; 0x8000b9 <__TEXT_REGION_LENGTH__+0x7c00b9>
    7012:	88 7f       	andi	r24, 0xF8	; 248
	if (status != TWI_SLA_R_SENT_ACK_RECIEVED)
    7014:	80 34       	cpi	r24, 0x40	; 64
    7016:	09 f4       	brne	.+2      	; 0x701a <twi_read_bytes+0x5a>
    7018:	4d c0       	rjmp	.+154    	; 0x70b4 <twi_read_bytes+0xf4>
	{
		showERRORcode(TWI_SLA_R_SENT_ACK_NOT_RECIEVED);
    701a:	88 e4       	ldi	r24, 0x48	; 72
    701c:	d6 de       	rcall	.-596    	; 0x6dca <showERRORcode>
/*******************************************************
 * STOP--signal the end of an TWI bus transfer 
********************************************************/
inline void twi_stop()
{
  TWCR = _BV(TWINT)|_BV(TWEN)|_BV(TWSTO);
    701e:	84 e9       	ldi	r24, 0x94	; 148
    7020:	80 93 bc 00 	sts	0x00BC, r24	; 0x8000bc <__TEXT_REGION_LENGTH__+0x7c00bc>
	uint8_t status = TWSR & 0xF8;
	if (status != TWI_SLA_R_SENT_ACK_RECIEVED)
	{
		showERRORcode(TWI_SLA_R_SENT_ACK_NOT_RECIEVED);
		twi_stop();
		setStatus(E_TWI_ERROR);
    7024:	87 ef       	ldi	r24, 0xF7	; 247
    7026:	92 e1       	ldi	r25, 0x12	; 18
    7028:	c3 de       	rcall	.-634    	; 0x6db0 <setStatus>
		return RETURN_ERROR;
    702a:	81 e0       	ldi	r24, 0x01	; 1
    702c:	90 e0       	ldi	r25, 0x00	; 0
    702e:	4e c0       	rjmp	.+156    	; 0x70cc <twi_read_bytes+0x10c>
	}


	for (; len > 0; len--)
	{
		ms_twiCount =0;
    7030:	10 92 8d 13 	sts	0x138D, r1	; 0x80138d <__data_end+0x1>
    7034:	10 92 8c 13 	sts	0x138C, r1	; 0x80138c <__data_end>
		TWCR = (len==1) ?  (_BV(TWINT)|_BV(TWEN)) : (_BV(TWINT)|_BV(TWEN)|_BV(TWEA));  // clear interrupt to enable and no ACK on last byte	
    7038:	c1 30       	cpi	r28, 0x01	; 1
    703a:	d1 05       	cpc	r29, r1
    703c:	11 f4       	brne	.+4      	; 0x7042 <twi_read_bytes+0x82>
    703e:	84 e8       	ldi	r24, 0x84	; 132
    7040:	01 c0       	rjmp	.+2      	; 0x7044 <twi_read_bytes+0x84>
    7042:	84 ec       	ldi	r24, 0xC4	; 196
    7044:	80 93 bc 00 	sts	0x00BC, r24	; 0x8000bc <__TEXT_REGION_LENGTH__+0x7c00bc>
/*******************************************************
// wait until transmission is complete; return ERROR if timed out
********************************************************/
inline uint8_t waitForTransmit(void)
{
	ms_twiCount = 0; 
    7048:	10 92 8d 13 	sts	0x138D, r1	; 0x80138d <__data_end+0x1>
    704c:	10 92 8c 13 	sts	0x138C, r1	; 0x80138c <__data_end>
	while (!(TWCR & _BV(TWINT)) && (ms_twiCount < TWI_TIMEOUT)) 
    7050:	80 91 bc 00 	lds	r24, 0x00BC	; 0x8000bc <__TEXT_REGION_LENGTH__+0x7c00bc>
    7054:	88 23       	and	r24, r24
    7056:	34 f0       	brlt	.+12     	; 0x7064 <twi_read_bytes+0xa4>
    7058:	80 91 8c 13 	lds	r24, 0x138C	; 0x80138c <__data_end>
    705c:	90 91 8d 13 	lds	r25, 0x138D	; 0x80138d <__data_end+0x1>
    7060:	4e 97       	sbiw	r24, 0x1e	; 30
    7062:	b0 f3       	brcs	.-20     	; 0x7050 <twi_read_bytes+0x90>
	{;} 	
	return (ms_twiCount >= TWI_TIMEOUT);  // inconsistent coding practice here, but works as long as RETURN_ERROR==1
    7064:	80 91 8c 13 	lds	r24, 0x138C	; 0x80138c <__data_end>
    7068:	90 91 8d 13 	lds	r25, 0x138D	; 0x80138d <__data_end+0x1>

	for (; len > 0; len--)
	{
		ms_twiCount =0;
		TWCR = (len==1) ?  (_BV(TWINT)|_BV(TWEN)) : (_BV(TWINT)|_BV(TWEN)|_BV(TWEA));  // clear interrupt to enable and no ACK on last byte	
		if (waitForTransmit())  
    706c:	4e 97       	sbiw	r24, 0x1e	; 30
    706e:	d8 f0       	brcs	.+54     	; 0x70a6 <twi_read_bytes+0xe6>
		{
			printf("ERROR read failed with %d bytes left, status=0x%02X\r\n", len, TWSR );
    7070:	80 91 b9 00 	lds	r24, 0x00B9	; 0x8000b9 <__TEXT_REGION_LENGTH__+0x7c00b9>
    7074:	1f 92       	push	r1
    7076:	8f 93       	push	r24
    7078:	df 93       	push	r29
    707a:	cf 93       	push	r28
    707c:	80 e0       	ldi	r24, 0x00	; 0
    707e:	93 e1       	ldi	r25, 0x13	; 19
    7080:	9f 93       	push	r25
    7082:	8f 93       	push	r24
    7084:	0e 94 63 42 	call	0x84c6	; 0x84c6 <printf>
/*******************************************************
 * STOP--signal the end of an TWI bus transfer 
********************************************************/
inline void twi_stop()
{
  TWCR = _BV(TWINT)|_BV(TWEN)|_BV(TWSTO);
    7088:	84 e9       	ldi	r24, 0x94	; 148
    708a:	80 93 bc 00 	sts	0x00BC, r24	; 0x8000bc <__TEXT_REGION_LENGTH__+0x7c00bc>
		TWCR = (len==1) ?  (_BV(TWINT)|_BV(TWEN)) : (_BV(TWINT)|_BV(TWEN)|_BV(TWEA));  // clear interrupt to enable and no ACK on last byte	
		if (waitForTransmit())  
		{
			printf("ERROR read failed with %d bytes left, status=0x%02X\r\n", len, TWSR );
			twi_stop();
			setStatus(E_TWI_ERROR);
    708e:	87 ef       	ldi	r24, 0xF7	; 247
    7090:	92 e1       	ldi	r25, 0x12	; 18
    7092:	8e de       	rcall	.-740    	; 0x6db0 <setStatus>
			return RETURN_ERROR;
    7094:	0f 90       	pop	r0
    7096:	0f 90       	pop	r0
    7098:	0f 90       	pop	r0
    709a:	0f 90       	pop	r0
    709c:	0f 90       	pop	r0
    709e:	0f 90       	pop	r0
    70a0:	81 e0       	ldi	r24, 0x01	; 1
    70a2:	90 e0       	ldi	r25, 0x00	; 0
    70a4:	13 c0       	rjmp	.+38     	; 0x70cc <twi_read_bytes+0x10c>
		}
		*buf++ = TWDR;
    70a6:	80 91 bb 00 	lds	r24, 0x00BB	; 0x8000bb <__TEXT_REGION_LENGTH__+0x7c00bb>
    70aa:	f8 01       	movw	r30, r16
    70ac:	80 83       	st	Z, r24
		setStatus(E_TWI_ERROR);
		return RETURN_ERROR;
	}


	for (; len > 0; len--)
    70ae:	21 97       	sbiw	r28, 0x01	; 1
			printf("ERROR read failed with %d bytes left, status=0x%02X\r\n", len, TWSR );
			twi_stop();
			setStatus(E_TWI_ERROR);
			return RETURN_ERROR;
		}
		*buf++ = TWDR;
    70b0:	0f 5f       	subi	r16, 0xFF	; 255
    70b2:	1f 4f       	sbci	r17, 0xFF	; 255
		setStatus(E_TWI_ERROR);
		return RETURN_ERROR;
	}


	for (; len > 0; len--)
    70b4:	1c 16       	cp	r1, r28
    70b6:	1d 06       	cpc	r1, r29
    70b8:	0c f4       	brge	.+2      	; 0x70bc <twi_read_bytes+0xfc>
    70ba:	ba cf       	rjmp	.-140    	; 0x7030 <twi_read_bytes+0x70>
/*******************************************************
 * STOP--signal the end of an TWI bus transfer 
********************************************************/
inline void twi_stop()
{
  TWCR = _BV(TWINT)|_BV(TWEN)|_BV(TWSTO);
    70bc:	84 e9       	ldi	r24, 0x94	; 148
    70be:	80 93 bc 00 	sts	0x00BC, r24	; 0x8000bc <__TEXT_REGION_LENGTH__+0x7c00bc>
			return RETURN_ERROR;
		}
		*buf++ = TWDR;
	}
	twi_stop();
	return RETURN_OK;
    70c2:	80 e0       	ldi	r24, 0x00	; 0
    70c4:	90 e0       	ldi	r25, 0x00	; 0
    70c6:	02 c0       	rjmp	.+4      	; 0x70cc <twi_read_bytes+0x10c>
 *
 *****************************************************************/

int twi_read_bytes(uint8_t twi_addr, uint8_t *buf, int len)
{
	if ( twi_start() != RETURN_OK )  { 	return RETURN_ERROR; 	}
    70c8:	81 e0       	ldi	r24, 0x01	; 1
    70ca:	90 e0       	ldi	r25, 0x00	; 0
		}
		*buf++ = TWDR;
	}
	twi_stop();
	return RETURN_OK;
}
    70cc:	df 91       	pop	r29
    70ce:	cf 91       	pop	r28
    70d0:	1f 91       	pop	r17
    70d2:	0f 91       	pop	r16
    70d4:	ff 90       	pop	r15
    70d6:	08 95       	ret

000070d8 <init_Ports>:
}


void init_Ports(void)
{
	DDRA = DDRA_SETTING;
    70d8:	8f ef       	ldi	r24, 0xFF	; 255
    70da:	81 b9       	out	0x01, r24	; 1
	DDRB = DDRB_SETTING;
    70dc:	97 ef       	ldi	r25, 0xF7	; 247
    70de:	94 b9       	out	0x04, r25	; 4
	DDRC = DDRC_SETTING;
    70e0:	87 b9       	out	0x07, r24	; 7
	DDRD = DDRD_SETTING;
    70e2:	9b eb       	ldi	r25, 0xBB	; 187
    70e4:	9a b9       	out	0x0a, r25	; 10
	DDRE = DDRE_SETTING;
    70e6:	9e e3       	ldi	r25, 0x3E	; 62
    70e8:	9d b9       	out	0x0d, r25	; 13
	DDRF = DDRF_SETTING;
    70ea:	10 ba       	out	0x10, r1	; 16
	DDRG = DDRG_SETTING;
    70ec:	83 bb       	out	0x13, r24	; 19
	DDRH = DDRH_SETTING;
    70ee:	9f e7       	ldi	r25, 0x7F	; 127
    70f0:	90 93 01 01 	sts	0x0101, r25	; 0x800101 <__TEXT_REGION_LENGTH__+0x7c0101>
	DDRJ = DDRJ_SETTING;
    70f4:	92 e7       	ldi	r25, 0x72	; 114
    70f6:	90 93 04 01 	sts	0x0104, r25	; 0x800104 <__TEXT_REGION_LENGTH__+0x7c0104>
	DDRK = DDRK_SETTING;	
    70fa:	10 92 07 01 	sts	0x0107, r1	; 0x800107 <__TEXT_REGION_LENGTH__+0x7c0107>
	DDRL = DDRL_SETTING;
    70fe:	80 93 0a 01 	sts	0x010A, r24	; 0x80010a <__TEXT_REGION_LENGTH__+0x7c010a>
	
	PORTC = 0xFF;
    7102:	88 b9       	out	0x08, r24	; 8
	PORTH = 0xFF;
    7104:	80 93 02 01 	sts	0x0102, r24	; 0x800102 <__TEXT_REGION_LENGTH__+0x7c0102>
	
	disablePowerOutputs();	
	deSelectSDcard();
    7108:	0c 94 08 2d 	jmp	0x5a10	; 0x5a10 <deSelectSDcard>
    710c:	08 95       	ret

0000710e <initialize>:




void initialize(void)
{
    710e:	cf 93       	push	r28
    7110:	df 93       	push	r29
	
	stdout = stdin = &uart_str;
    7112:	e3 e7       	ldi	r30, 0x73	; 115
    7114:	f6 e1       	ldi	r31, 0x16	; 22
    7116:	8f e1       	ldi	r24, 0x1F	; 31
    7118:	97 e0       	ldi	r25, 0x07	; 7
    711a:	91 83       	std	Z+1, r25	; 0x01
    711c:	80 83       	st	Z, r24
    711e:	93 83       	std	Z+3, r25	; 0x03
    7120:	82 83       	std	Z+2, r24	; 0x02
	init_uart(0);	
    7122:	80 e0       	ldi	r24, 0x00	; 0
    7124:	c4 d0       	rcall	.+392    	; 0x72ae <init_uart>
	init_Ports();
    7126:	d8 df       	rcall	.-80     	; 0x70d8 <init_Ports>

	init_spi();
    7128:	a3 db       	rcall	.-2234   	; 0x6870 <init_spi>
    712a:	0e 94 93 13 	call	0x2726	; 0x2726 <init_CountersIimers>

	init_CountersIimers();
    712e:	8f e0       	ldi	r24, 0x0F	; 15
	hdwConfig.activeADCs = 0x8F0F; // 0x8F0F = psv(15), lcur(11), wick(10), case(9), HS(8), Optics(3), mod(2), init(1), cond (0);
    7130:	9f e8       	ldi	r25, 0x8F	; 143
    7132:	90 93 c2 15 	sts	0x15C2, r25	; 0x8015c2 <hdwConfig+0x1>
    7136:	80 93 c1 15 	sts	0x15C1, r24	; 0x8015c1 <hdwConfig>
    713a:	c0 e0       	ldi	r28, 0x00	; 0
//	initDACs();

	for (uint16_t i=0;i<80;i++)	printf(".");
    713c:	d0 e0       	ldi	r29, 0x00	; 0
    713e:	05 c0       	rjmp	.+10     	; 0x714a <initialize+0x3c>
    7140:	8e e2       	ldi	r24, 0x2E	; 46
    7142:	90 e0       	ldi	r25, 0x00	; 0
    7144:	0e 94 9d 42 	call	0x853a	; 0x853a <putchar>
    7148:	21 96       	adiw	r28, 0x01	; 1
    714a:	c0 35       	cpi	r28, 0x50	; 80
    714c:	d1 05       	cpc	r29, r1
    714e:	c0 f3       	brcs	.-16     	; 0x7140 <initialize+0x32>
    7150:	8a e0       	ldi	r24, 0x0A	; 10
	printf("\n");
    7152:	90 e0       	ldi	r25, 0x00	; 0
    7154:	0e 94 9d 42 	call	0x853a	; 0x853a <putchar>

	RTC_config();
    7158:	29 db       	rcall	.-2478   	; 0x67ac <RTC_config>
	initADC2518();
    715a:	0e 94 ce 13 	call	0x279c	; 0x279c <initADC2518>
	
//	init_Port_DDAs();
//	 
//  init_Port_Settings(); 
//	init_1024HzInterrupt();
	init_twi();
    715e:	42 de       	rcall	.-892    	; 0x6de4 <init_twi>
    7160:	0e 94 37 2b 	call	0x566e	; 0x566e <initPressureSensors>
	initPressureSensors();	
    7164:	0e 94 8e 15 	call	0x2b1c	; 0x2b1c <init_adc>
	init_adc();
    7168:	0e 94 37 2b 	call	0x566e	; 0x566e <initPressureSensors>
//	initDisplayPort();
	initPressureSensors();
    716c:	78 94       	sei
	ENABLE_INTERRUPTS;
    716e:	86 e3       	ldi	r24, 0x36	; 54
//	RTC_config();
	//printf("%s \n", get_fmtTime());
//	init_RH();   // do after reading settings.	
	printf(".....\n....\n...\n.\n");
    7170:	93 e1       	ldi	r25, 0x13	; 19
    7172:	0e 94 a2 42 	call	0x8544	; 0x8544 <puts>
    7176:	df 91       	pop	r29
}
    7178:	cf 91       	pop	r28
    717a:	08 95       	ret

0000717c <main>:
configuration  hdwConfig;

int main(void)
{
	
	initialize();
    717c:	c8 df       	rcall	.-112    	; 0x710e <initialize>
	printf("initialized\n");		
    717e:	87 e4       	ldi	r24, 0x47	; 71
    7180:	93 e1       	ldi	r25, 0x13	; 19
    7182:	0e 94 a2 42 	call	0x8544	; 0x8544 <puts>

	
    while (1) 
    {
		doUart();    
    7186:	25 d2       	rcall	.+1098   	; 0x75d2 <doUart>
		if   (commandCompleteFlag0)  {
    7188:	80 91 d9 13 	lds	r24, 0x13D9	; 0x8013d9 <commandCompleteFlag0>
    718c:	88 23       	and	r24, r24
    718e:	21 f0       	breq	.+8      	; 0x7198 <main+0x1c>
			processCommand();
    7190:	0e 94 6a 0b 	call	0x16d4	; 0x16d4 <processCommand>
			commandCompleteFlag0 = 0;   // processed complete command, can now process more characters. Needs to be after previous line, or new keys could be accepted before reseting those variables.
    7194:	10 92 d9 13 	sts	0x13D9, r1	; 0x8013d9 <commandCompleteFlag0>
		
		if (adcCompleteFlag){
//			doAdc();
		}
		
		if (halfSecFlag) {
    7198:	80 91 8e 13 	lds	r24, 0x138E	; 0x80138e <halfSecFlag>
    719c:	88 23       	and	r24, r24
    719e:	41 f0       	breq	.+16     	; 0x71b0 <main+0x34>
			TOGGLE_HEARTBEAT();			
    71a0:	eb e0       	ldi	r30, 0x0B	; 11
    71a2:	f1 e0       	ldi	r31, 0x01	; 1
    71a4:	90 81       	ld	r25, Z
    71a6:	81 e0       	ldi	r24, 0x01	; 1
    71a8:	89 27       	eor	r24, r25
    71aa:	80 83       	st	Z, r24
			halfSecFlag = 0;
    71ac:	10 92 8e 13 	sts	0x138E, r1	; 0x80138e <halfSecFlag>
		//	selectRTC();
		}
		
		if (oneSecFlag) {
    71b0:	80 91 8f 13 	lds	r24, 0x138F	; 0x80138f <oneSecFlag>
    71b4:	88 23       	and	r24, r24
    71b6:	39 f3       	breq	.-50     	; 0x7186 <main+0xa>
			TOGGLE_HEARTBEAT();			
    71b8:	eb e0       	ldi	r30, 0x0B	; 11
    71ba:	f1 e0       	ldi	r31, 0x01	; 1
    71bc:	90 81       	ld	r25, Z
    71be:	81 e0       	ldi	r24, 0x01	; 1
    71c0:	89 27       	eor	r24, r25
    71c2:	80 83       	st	Z, r24
			if (pauseOutputForCmdCnt) --pauseOutputForCmdCnt;	
    71c4:	80 91 d3 13 	lds	r24, 0x13D3	; 0x8013d3 <pauseOutputForCmdCnt>
    71c8:	88 23       	and	r24, r24
    71ca:	19 f0       	breq	.+6      	; 0x71d2 <main+0x56>
    71cc:	81 50       	subi	r24, 0x01	; 1
    71ce:	80 93 d3 13 	sts	0x13D3, r24	; 0x8013d3 <pauseOutputForCmdCnt>
			oneSecFlag = 0;					
    71d2:	10 92 8f 13 	sts	0x138F, r1	; 0x80138f <oneSecFlag>
    71d6:	d7 cf       	rjmp	.-82     	; 0x7186 <main+0xa>

000071d8 <majorGeneral_get_line>:
	{
		return MAJORGENERAL_NUM_LINES;
	}
	
	void majorGeneral_get_line(uint8_t linenum, char* buffer)
	{
    71d8:	9b 01       	movw	r18, r22
		strcpy_P(buffer, majorGeneral[linenum]);
    71da:	4e e3       	ldi	r20, 0x3E	; 62
    71dc:	84 9f       	mul	r24, r20
    71de:	c0 01       	movw	r24, r0
    71e0:	11 24       	eor	r1, r1
    71e2:	bc 01       	movw	r22, r24
    71e4:	60 52       	subi	r22, 0x20	; 32
    71e6:	7b 4f       	sbci	r23, 0xFB	; 251
    71e8:	c9 01       	movw	r24, r18
    71ea:	0c 94 e0 41 	jmp	0x83c0	; 0x83c0 <strcpy_P>
    71ee:	08 95       	ret

000071f0 <ringbuf_init>:
{
	if (c == '\n') 	uart3_putchar('\r', stdout);
	loop_until_bit_is_set(UCSR3A, UDRE3);
	UDR3 = c;
	return 0;
}
    71f0:	ea ec       	ldi	r30, 0xCA	; 202
    71f2:	f5 e1       	ldi	r31, 0x15	; 21
    71f4:	60 83       	st	Z, r22
    71f6:	11 82       	std	Z+1, r1	; 0x01
    71f8:	93 83       	std	Z+3, r25	; 0x03
    71fa:	82 83       	std	Z+2, r24	; 0x02
    71fc:	95 83       	std	Z+5, r25	; 0x05
    71fe:	84 83       	std	Z+4, r24	; 0x04
    7200:	97 83       	std	Z+7, r25	; 0x07
    7202:	86 83       	std	Z+6, r24	; 0x06
    7204:	08 95       	ret

00007206 <ringbuf_get>:
    7206:	9f b7       	in	r25, 0x3f	; 63
    7208:	f8 94       	cli
    720a:	80 91 cb 15 	lds	r24, 0x15CB	; 0x8015cb <rb+0x1>
    720e:	81 11       	cpse	r24, r1
    7210:	04 c0       	rjmp	.+8      	; 0x721a <ringbuf_get+0x14>
    7212:	99 23       	and	r25, r25
    7214:	04 f5       	brge	.+64     	; 0x7256 <ringbuf_get+0x50>
    7216:	78 94       	sei
    7218:	08 95       	ret
    721a:	ea ec       	ldi	r30, 0xCA	; 202
    721c:	f5 e1       	ldi	r31, 0x15	; 21
    721e:	a4 81       	ldd	r26, Z+4	; 0x04
    7220:	b5 81       	ldd	r27, Z+5	; 0x05
    7222:	9d 01       	movw	r18, r26
    7224:	2f 5f       	subi	r18, 0xFF	; 255
    7226:	3f 4f       	sbci	r19, 0xFF	; 255
    7228:	35 83       	std	Z+5, r19	; 0x05
    722a:	24 83       	std	Z+4, r18	; 0x04
    722c:	8c 91       	ld	r24, X
    722e:	21 81       	ldd	r18, Z+1	; 0x01
    7230:	21 50       	subi	r18, 0x01	; 1
    7232:	21 83       	std	Z+1, r18	; 0x01
    7234:	44 81       	ldd	r20, Z+4	; 0x04
    7236:	55 81       	ldd	r21, Z+5	; 0x05
    7238:	26 81       	ldd	r18, Z+6	; 0x06
    723a:	37 81       	ldd	r19, Z+7	; 0x07
    723c:	60 81       	ld	r22, Z
    723e:	26 0f       	add	r18, r22
    7240:	31 1d       	adc	r19, r1
    7242:	42 17       	cp	r20, r18
    7244:	53 07       	cpc	r21, r19
    7246:	20 f0       	brcs	.+8      	; 0x7250 <ringbuf_get+0x4a>
    7248:	26 81       	ldd	r18, Z+6	; 0x06
    724a:	37 81       	ldd	r19, Z+7	; 0x07
    724c:	35 83       	std	Z+5, r19	; 0x05
    724e:	24 83       	std	Z+4, r18	; 0x04
    7250:	99 23       	and	r25, r25
    7252:	0c f4       	brge	.+2      	; 0x7256 <ringbuf_get+0x50>
    7254:	78 94       	sei
    7256:	08 95       	ret

00007258 <ringbuf_put>:
    7258:	9f b7       	in	r25, 0x3f	; 63
    725a:	f8 94       	cli
    725c:	ea ec       	ldi	r30, 0xCA	; 202
    725e:	f5 e1       	ldi	r31, 0x15	; 21
    7260:	31 81       	ldd	r19, Z+1	; 0x01
    7262:	20 81       	ld	r18, Z
    7264:	32 17       	cp	r19, r18
    7266:	20 f0       	brcs	.+8      	; 0x7270 <ringbuf_put+0x18>
    7268:	99 23       	and	r25, r25
    726a:	04 f5       	brge	.+64     	; 0x72ac <ringbuf_put+0x54>
    726c:	78 94       	sei
    726e:	08 95       	ret
    7270:	ea ec       	ldi	r30, 0xCA	; 202
    7272:	f5 e1       	ldi	r31, 0x15	; 21
    7274:	a2 81       	ldd	r26, Z+2	; 0x02
    7276:	b3 81       	ldd	r27, Z+3	; 0x03
    7278:	9d 01       	movw	r18, r26
    727a:	2f 5f       	subi	r18, 0xFF	; 255
    727c:	3f 4f       	sbci	r19, 0xFF	; 255
    727e:	33 83       	std	Z+3, r19	; 0x03
    7280:	22 83       	std	Z+2, r18	; 0x02
    7282:	8c 93       	st	X, r24
    7284:	81 81       	ldd	r24, Z+1	; 0x01
    7286:	8f 5f       	subi	r24, 0xFF	; 255
    7288:	81 83       	std	Z+1, r24	; 0x01
    728a:	42 81       	ldd	r20, Z+2	; 0x02
    728c:	53 81       	ldd	r21, Z+3	; 0x03
    728e:	26 81       	ldd	r18, Z+6	; 0x06
    7290:	37 81       	ldd	r19, Z+7	; 0x07
    7292:	80 81       	ld	r24, Z
    7294:	28 0f       	add	r18, r24
    7296:	31 1d       	adc	r19, r1
    7298:	42 17       	cp	r20, r18
    729a:	53 07       	cpc	r21, r19
    729c:	20 f0       	brcs	.+8      	; 0x72a6 <ringbuf_put+0x4e>
    729e:	26 81       	ldd	r18, Z+6	; 0x06
    72a0:	37 81       	ldd	r19, Z+7	; 0x07
    72a2:	33 83       	std	Z+3, r19	; 0x03
    72a4:	22 83       	std	Z+2, r18	; 0x02
    72a6:	99 23       	and	r25, r25
    72a8:	0c f4       	brge	.+2      	; 0x72ac <ringbuf_put+0x54>
    72aa:	78 94       	sei
    72ac:	08 95       	ret

000072ae <init_uart>:
    72ae:	82 30       	cpi	r24, 0x02	; 2
    72b0:	b9 f1       	breq	.+110    	; 0x7320 <init_uart+0x72>
    72b2:	84 30       	cpi	r24, 0x04	; 4
    72b4:	b8 f5       	brcc	.+110    	; 0x7324 <init_uart+0x76>
    72b6:	80 93 d2 13 	sts	0x13D2, r24	; 0x8013d2 <currentUart>
    72ba:	90 91 8a 15 	lds	r25, 0x158A	; 0x80158a <userSettings>
    72be:	91 30       	cpi	r25, 0x01	; 1
    72c0:	19 f0       	breq	.+6      	; 0x72c8 <init_uart+0x1a>
    72c2:	92 30       	cpi	r25, 0x02	; 2
    72c4:	39 f0       	breq	.+14     	; 0x72d4 <init_uart+0x26>
    72c6:	03 c0       	rjmp	.+6      	; 0x72ce <init_uart+0x20>
    72c8:	9f e5       	ldi	r25, 0x5F	; 95
    72ca:	20 e0       	ldi	r18, 0x00	; 0
    72cc:	05 c0       	rjmp	.+10     	; 0x72d8 <init_uart+0x2a>
    72ce:	97 e0       	ldi	r25, 0x07	; 7
    72d0:	20 e0       	ldi	r18, 0x00	; 0
    72d2:	02 c0       	rjmp	.+4      	; 0x72d8 <init_uart+0x2a>
    72d4:	91 e0       	ldi	r25, 0x01	; 1
    72d6:	20 e0       	ldi	r18, 0x00	; 0
    72d8:	81 30       	cpi	r24, 0x01	; 1
    72da:	19 f0       	breq	.+6      	; 0x72e2 <init_uart+0x34>
    72dc:	83 30       	cpi	r24, 0x03	; 3
    72de:	71 f0       	breq	.+28     	; 0x72fc <init_uart+0x4e>
    72e0:	16 c0       	rjmp	.+44     	; 0x730e <init_uart+0x60>
    72e2:	20 93 cd 00 	sts	0x00CD, r18	; 0x8000cd <__TEXT_REGION_LENGTH__+0x7c00cd>
    72e6:	90 93 cc 00 	sts	0x00CC, r25	; 0x8000cc <__TEXT_REGION_LENGTH__+0x7c00cc>
    72ea:	88 e9       	ldi	r24, 0x98	; 152
    72ec:	80 93 c9 00 	sts	0x00C9, r24	; 0x8000c9 <__TEXT_REGION_LENGTH__+0x7c00c9>
    72f0:	60 e8       	ldi	r22, 0x80	; 128
    72f2:	82 ed       	ldi	r24, 0xD2	; 210
    72f4:	95 e1       	ldi	r25, 0x15	; 21
    72f6:	7c df       	rcall	.-264    	; 0x71f0 <ringbuf_init>
    72f8:	80 e0       	ldi	r24, 0x00	; 0
    72fa:	08 95       	ret
    72fc:	20 93 35 01 	sts	0x0135, r18	; 0x800135 <__TEXT_REGION_LENGTH__+0x7c0135>
    7300:	90 93 34 01 	sts	0x0134, r25	; 0x800134 <__TEXT_REGION_LENGTH__+0x7c0134>
    7304:	88 e9       	ldi	r24, 0x98	; 152
    7306:	80 93 31 01 	sts	0x0131, r24	; 0x800131 <__TEXT_REGION_LENGTH__+0x7c0131>
    730a:	80 e0       	ldi	r24, 0x00	; 0
    730c:	08 95       	ret
    730e:	20 93 c5 00 	sts	0x00C5, r18	; 0x8000c5 <__TEXT_REGION_LENGTH__+0x7c00c5>
    7312:	90 93 c4 00 	sts	0x00C4, r25	; 0x8000c4 <__TEXT_REGION_LENGTH__+0x7c00c4>
    7316:	88 e9       	ldi	r24, 0x98	; 152
    7318:	80 93 c1 00 	sts	0x00C1, r24	; 0x8000c1 <__TEXT_REGION_LENGTH__+0x7c00c1>
    731c:	80 e0       	ldi	r24, 0x00	; 0
    731e:	08 95       	ret
    7320:	81 e0       	ldi	r24, 0x01	; 1
    7322:	08 95       	ret
    7324:	81 e0       	ldi	r24, 0x01	; 1
    7326:	08 95       	ret

00007328 <uart0_putchar>:
    7328:	cf 93       	push	r28
    732a:	c8 2f       	mov	r28, r24
    732c:	8a 30       	cpi	r24, 0x0A	; 10
    732e:	31 f4       	brne	.+12     	; 0x733c <uart0_putchar+0x14>
    7330:	60 91 75 16 	lds	r22, 0x1675	; 0x801675 <__iob+0x2>
    7334:	70 91 76 16 	lds	r23, 0x1676	; 0x801676 <__iob+0x3>
    7338:	8d e0       	ldi	r24, 0x0D	; 13
    733a:	f6 df       	rcall	.-20     	; 0x7328 <uart0_putchar>
    733c:	80 91 c0 00 	lds	r24, 0x00C0	; 0x8000c0 <__TEXT_REGION_LENGTH__+0x7c00c0>
    7340:	85 ff       	sbrs	r24, 5
    7342:	fc cf       	rjmp	.-8      	; 0x733c <uart0_putchar+0x14>
    7344:	c0 93 c6 00 	sts	0x00C6, r28	; 0x8000c6 <__TEXT_REGION_LENGTH__+0x7c00c6>
    7348:	80 e0       	ldi	r24, 0x00	; 0
    734a:	90 e0       	ldi	r25, 0x00	; 0
    734c:	cf 91       	pop	r28
    734e:	08 95       	ret

00007350 <uart1_put>:
    7350:	cf 93       	push	r28
    7352:	c8 2f       	mov	r28, r24
    7354:	8a 30       	cpi	r24, 0x0A	; 10
    7356:	11 f4       	brne	.+4      	; 0x735c <uart1_put+0xc>
    7358:	8d e0       	ldi	r24, 0x0D	; 13
    735a:	fa df       	rcall	.-12     	; 0x7350 <uart1_put>
    735c:	80 91 c8 00 	lds	r24, 0x00C8	; 0x8000c8 <__TEXT_REGION_LENGTH__+0x7c00c8>
    7360:	85 ff       	sbrs	r24, 5
    7362:	fc cf       	rjmp	.-8      	; 0x735c <uart1_put+0xc>
    7364:	c0 93 ce 00 	sts	0x00CE, r28	; 0x8000ce <__TEXT_REGION_LENGTH__+0x7c00ce>
    7368:	80 e0       	ldi	r24, 0x00	; 0
    736a:	90 e0       	ldi	r25, 0x00	; 0
    736c:	cf 91       	pop	r28
    736e:	08 95       	ret

00007370 <uarts_getchar>:

int uarts_getchar(FILE *stream)    // don't use getchar() so have dummy function
{
	return 0;  
}
    7370:	80 e0       	ldi	r24, 0x00	; 0
    7372:	90 e0       	ldi	r25, 0x00	; 0
    7374:	08 95       	ret

00007376 <__vector_25>:
*              think we do but I do anyway.
*      Return: -1, or -2 on error
*              returns 1 if got character, returns 2 is we lost a character.
******************************************************************************/
ISR(USART0_RX_vect)
{
    7376:	1f 92       	push	r1
    7378:	0f 92       	push	r0
    737a:	0f b6       	in	r0, 0x3f	; 63
    737c:	0f 92       	push	r0
    737e:	11 24       	eor	r1, r1
    7380:	0b b6       	in	r0, 0x3b	; 59
    7382:	0f 92       	push	r0
    7384:	2f 93       	push	r18
    7386:	3f 93       	push	r19
    7388:	4f 93       	push	r20
    738a:	5f 93       	push	r21
    738c:	6f 93       	push	r22
    738e:	7f 93       	push	r23
    7390:	8f 93       	push	r24
    7392:	9f 93       	push	r25
    7394:	af 93       	push	r26
    7396:	bf 93       	push	r27
    7398:	cf 93       	push	r28
    739a:	df 93       	push	r29
    739c:	ef 93       	push	r30
    739e:	ff 93       	push	r31
	if (UCSR0A & _BV(FE0) ||  UCSR0A & _BV(DOR0) || commandCompleteFlag0) {
    73a0:	80 91 c0 00 	lds	r24, 0x00C0	; 0x8000c0 <__TEXT_REGION_LENGTH__+0x7c00c0>
    73a4:	84 fd       	sbrc	r24, 4
    73a6:	08 c0       	rjmp	.+16     	; 0x73b8 <__vector_25+0x42>
    73a8:	80 91 c0 00 	lds	r24, 0x00C0	; 0x8000c0 <__TEXT_REGION_LENGTH__+0x7c00c0>
    73ac:	83 fd       	sbrc	r24, 3
    73ae:	04 c0       	rjmp	.+8      	; 0x73b8 <__vector_25+0x42>
    73b0:	80 91 d9 13 	lds	r24, 0x13D9	; 0x8013d9 <commandCompleteFlag0>
    73b4:	88 23       	and	r24, r24
    73b6:	41 f0       	breq	.+16     	; 0x73c8 <__vector_25+0x52>
		clrError = UDR0; // clear error	or if comandCompleteFlag ignore character
    73b8:	80 91 c6 00 	lds	r24, 0x00C6	; 0x8000c6 <__TEXT_REGION_LENGTH__+0x7c00c6>
    73bc:	90 e0       	ldi	r25, 0x00	; 0
    73be:	90 93 d8 13 	sts	0x13D8, r25	; 0x8013d8 <clrError+0x1>
    73c2:	80 93 d7 13 	sts	0x13D7, r24	; 0x8013d7 <clrError>
    73c6:	a1 c0       	rjmp	.+322    	; 0x750a <__vector_25+0x194>
	}
    else if (bufIndex0 > RX_BUFSIZE -2)  {  // buffer full.  Drop command. 
    73c8:	80 91 d6 13 	lds	r24, 0x13D6	; 0x8013d6 <bufIndex0>
    73cc:	8f 31       	cpi	r24, 0x1F	; 31
    73ce:	80 f0       	brcs	.+32     	; 0x73f0 <__vector_25+0x7a>
		clrError  = UDR0;
    73d0:	80 91 c6 00 	lds	r24, 0x00C6	; 0x8000c6 <__TEXT_REGION_LENGTH__+0x7c00c6>
    73d4:	90 e0       	ldi	r25, 0x00	; 0
    73d6:	90 93 d8 13 	sts	0x13D8, r25	; 0x8013d8 <clrError+0x1>
    73da:	80 93 d7 13 	sts	0x13D7, r24	; 0x8013d7 <clrError>
		bufIndex0 = 0; //RX_BUFSIZE;
    73de:	10 92 d6 13 	sts	0x13D6, r1	; 0x8013d6 <bufIndex0>
		buf[RX_BUFSIZE -1] = 0;
    73e2:	10 92 72 16 	sts	0x1672, r1	; 0x801672 <buf+0x1f>
		commandCompleteFlag0 = 0;
    73e6:	10 92 d9 13 	sts	0x13D9, r1	; 0x8013d9 <commandCompleteFlag0>
		commandSize = 0;			
    73ea:	10 92 d5 13 	sts	0x13D5, r1	; 0x8013d5 <commandSize>
    73ee:	8d c0       	rjmp	.+282    	; 0x750a <__vector_25+0x194>
//		uart0_putchar('\r',stdout);
	}
	else  {
		buf[bufIndex0] = UDR0;
    73f0:	e0 91 d6 13 	lds	r30, 0x13D6	; 0x8013d6 <bufIndex0>
    73f4:	f0 e0       	ldi	r31, 0x00	; 0
    73f6:	80 91 c6 00 	lds	r24, 0x00C6	; 0x8000c6 <__TEXT_REGION_LENGTH__+0x7c00c6>
    73fa:	ed 5a       	subi	r30, 0xAD	; 173
    73fc:	f9 4e       	sbci	r31, 0xE9	; 233
    73fe:	80 83       	st	Z, r24
	    if ((buf[bufIndex0] == '\n') || (buf[bufIndex0] == '\r')) {
    7400:	e0 91 d6 13 	lds	r30, 0x13D6	; 0x8013d6 <bufIndex0>
    7404:	f0 e0       	ldi	r31, 0x00	; 0
    7406:	ed 5a       	subi	r30, 0xAD	; 173
    7408:	f9 4e       	sbci	r31, 0xE9	; 233
    740a:	80 81       	ld	r24, Z
    740c:	8a 30       	cpi	r24, 0x0A	; 10
    740e:	41 f0       	breq	.+16     	; 0x7420 <__vector_25+0xaa>
    7410:	e0 91 d6 13 	lds	r30, 0x13D6	; 0x8013d6 <bufIndex0>
    7414:	f0 e0       	ldi	r31, 0x00	; 0
    7416:	ed 5a       	subi	r30, 0xAD	; 173
    7418:	f9 4e       	sbci	r31, 0xE9	; 233
    741a:	80 81       	ld	r24, Z
    741c:	8d 30       	cpi	r24, 0x0D	; 13
    741e:	89 f4       	brne	.+34     	; 0x7442 <__vector_25+0xcc>
			commandCompleteFlag0 = 1;  
    7420:	81 e0       	ldi	r24, 0x01	; 1
    7422:	80 93 d9 13 	sts	0x13D9, r24	; 0x8013d9 <commandCompleteFlag0>
			++commandSize; 
    7426:	80 91 d5 13 	lds	r24, 0x13D5	; 0x8013d5 <commandSize>
    742a:	8f 5f       	subi	r24, 0xFF	; 255
    742c:	80 93 d5 13 	sts	0x13D5, r24	; 0x8013d5 <commandSize>
			buf[bufIndex0] = 0;
    7430:	e0 91 d6 13 	lds	r30, 0x13D6	; 0x8013d6 <bufIndex0>
    7434:	f0 e0       	ldi	r31, 0x00	; 0
    7436:	ed 5a       	subi	r30, 0xAD	; 173
    7438:	f9 4e       	sbci	r31, 0xE9	; 233
    743a:	10 82       	st	Z, r1
			bufIndex0 = 0; 
    743c:	10 92 d6 13 	sts	0x13D6, r1	; 0x8013d6 <bufIndex0>
    7440:	64 c0       	rjmp	.+200    	; 0x750a <__vector_25+0x194>
	    }
		else if (buf[bufIndex0] == 0x08 || buf[bufIndex0] == 0x7F )   {  // backspace or delete
    7442:	e0 91 d6 13 	lds	r30, 0x13D6	; 0x8013d6 <bufIndex0>
    7446:	f0 e0       	ldi	r31, 0x00	; 0
    7448:	ed 5a       	subi	r30, 0xAD	; 173
    744a:	f9 4e       	sbci	r31, 0xE9	; 233
    744c:	80 81       	ld	r24, Z
    744e:	88 30       	cpi	r24, 0x08	; 8
    7450:	41 f0       	breq	.+16     	; 0x7462 <__vector_25+0xec>
    7452:	e0 91 d6 13 	lds	r30, 0x13D6	; 0x8013d6 <bufIndex0>
    7456:	f0 e0       	ldi	r31, 0x00	; 0
    7458:	ed 5a       	subi	r30, 0xAD	; 173
    745a:	f9 4e       	sbci	r31, 0xE9	; 233
    745c:	80 81       	ld	r24, Z
    745e:	8f 37       	cpi	r24, 0x7F	; 127
    7460:	39 f5       	brne	.+78     	; 0x74b0 <__vector_25+0x13a>
			if (bufIndex0>0) {
    7462:	80 91 d6 13 	lds	r24, 0x13D6	; 0x8013d6 <bufIndex0>
    7466:	88 23       	and	r24, r24
    7468:	09 f4       	brne	.+2      	; 0x746c <__vector_25+0xf6>
    746a:	4f c0       	rjmp	.+158    	; 0x750a <__vector_25+0x194>
				uart0_putchar(0x08,stdout);
    746c:	c3 e7       	ldi	r28, 0x73	; 115
    746e:	d6 e1       	ldi	r29, 0x16	; 22
    7470:	6a 81       	ldd	r22, Y+2	; 0x02
    7472:	7b 81       	ldd	r23, Y+3	; 0x03
    7474:	88 e0       	ldi	r24, 0x08	; 8
    7476:	58 df       	rcall	.-336    	; 0x7328 <uart0_putchar>
				uart0_putchar(' ',stdout);
    7478:	6a 81       	ldd	r22, Y+2	; 0x02
    747a:	7b 81       	ldd	r23, Y+3	; 0x03
    747c:	80 e2       	ldi	r24, 0x20	; 32
    747e:	54 df       	rcall	.-344    	; 0x7328 <uart0_putchar>
				uart0_putchar(0x08,stdout);
    7480:	6a 81       	ldd	r22, Y+2	; 0x02
    7482:	7b 81       	ldd	r23, Y+3	; 0x03
    7484:	88 e0       	ldi	r24, 0x08	; 8
    7486:	50 df       	rcall	.-352    	; 0x7328 <uart0_putchar>
				bufIndex0--;
    7488:	80 91 d6 13 	lds	r24, 0x13D6	; 0x8013d6 <bufIndex0>
    748c:	81 50       	subi	r24, 0x01	; 1
    748e:	80 93 d6 13 	sts	0x13D6, r24	; 0x8013d6 <bufIndex0>
				--commandSize; 
    7492:	80 91 d5 13 	lds	r24, 0x13D5	; 0x8013d5 <commandSize>
    7496:	81 50       	subi	r24, 0x01	; 1
    7498:	80 93 d5 13 	sts	0x13D5, r24	; 0x8013d5 <commandSize>
				if (outputCharacters)  --outputCharacters; 
    749c:	80 91 d4 13 	lds	r24, 0x13D4	; 0x8013d4 <outputCharacters>
    74a0:	88 23       	and	r24, r24
    74a2:	99 f1       	breq	.+102    	; 0x750a <__vector_25+0x194>
    74a4:	80 91 d4 13 	lds	r24, 0x13D4	; 0x8013d4 <outputCharacters>
    74a8:	81 50       	subi	r24, 0x01	; 1
    74aa:	80 93 d4 13 	sts	0x13D4, r24	; 0x8013d4 <outputCharacters>
    74ae:	2d c0       	rjmp	.+90     	; 0x750a <__vector_25+0x194>
			}
		}
		
//		else if (buf[bufIndex0] == 0x08 || buf[bufIndex0] == 0x7F       // backspace or delete
//		       || (( buf[bufIndex0] > '+' ) && (buf[bufIndex0] < '{')) ) {  // accept ',' thru 'z',  but ignores spaces and the following: ! " # $ % & '( ) 
		else if (( buf[bufIndex0] > '+' ) && (buf[bufIndex0] < '{'))  {  // accept ',' thru 'z',  but ignores spaces and the following: ! " # $ % & '( ) 
    74b0:	e0 91 d6 13 	lds	r30, 0x13D6	; 0x8013d6 <bufIndex0>
    74b4:	f0 e0       	ldi	r31, 0x00	; 0
    74b6:	ed 5a       	subi	r30, 0xAD	; 173
    74b8:	f9 4e       	sbci	r31, 0xE9	; 233
    74ba:	80 81       	ld	r24, Z
    74bc:	8c 32       	cpi	r24, 0x2C	; 44
    74be:	98 f0       	brcs	.+38     	; 0x74e6 <__vector_25+0x170>
    74c0:	e0 91 d6 13 	lds	r30, 0x13D6	; 0x8013d6 <bufIndex0>
    74c4:	f0 e0       	ldi	r31, 0x00	; 0
    74c6:	ed 5a       	subi	r30, 0xAD	; 173
    74c8:	f9 4e       	sbci	r31, 0xE9	; 233
    74ca:	80 81       	ld	r24, Z
    74cc:	8b 37       	cpi	r24, 0x7B	; 123
    74ce:	58 f4       	brcc	.+22     	; 0x74e6 <__vector_25+0x170>
			bufIndex0++;
    74d0:	80 91 d6 13 	lds	r24, 0x13D6	; 0x8013d6 <bufIndex0>
    74d4:	8f 5f       	subi	r24, 0xFF	; 255
    74d6:	80 93 d6 13 	sts	0x13D6, r24	; 0x8013d6 <bufIndex0>
			++commandSize;
    74da:	80 91 d5 13 	lds	r24, 0x13D5	; 0x8013d5 <commandSize>
    74de:	8f 5f       	subi	r24, 0xFF	; 255
    74e0:	80 93 d5 13 	sts	0x13D5, r24	; 0x8013d5 <commandSize>
    74e4:	12 c0       	rjmp	.+36     	; 0x750a <__vector_25+0x194>
		}
		else if (buf[bufIndex0] == 0x1B)  // 'esc' -- kill buffer
    74e6:	e0 91 d6 13 	lds	r30, 0x13D6	; 0x8013d6 <bufIndex0>
    74ea:	f0 e0       	ldi	r31, 0x00	; 0
    74ec:	ed 5a       	subi	r30, 0xAD	; 173
    74ee:	f9 4e       	sbci	r31, 0xE9	; 233
    74f0:	80 81       	ld	r24, Z
    74f2:	8b 31       	cpi	r24, 0x1B	; 27
    74f4:	51 f4       	brne	.+20     	; 0x750a <__vector_25+0x194>
		{
			uart0_putchar('\r',stdout);
    74f6:	60 91 75 16 	lds	r22, 0x1675	; 0x801675 <__iob+0x2>
    74fa:	70 91 76 16 	lds	r23, 0x1676	; 0x801676 <__iob+0x3>
    74fe:	8d e0       	ldi	r24, 0x0D	; 13
    7500:	13 df       	rcall	.-474    	; 0x7328 <uart0_putchar>
			bufIndex0 = 0;
    7502:	10 92 d6 13 	sts	0x13D6, r1	; 0x8013d6 <bufIndex0>
			commandSize = 0;	
    7506:	10 92 d5 13 	sts	0x13D5, r1	; 0x8013d5 <commandSize>
		}
	}
}
    750a:	ff 91       	pop	r31
    750c:	ef 91       	pop	r30
    750e:	df 91       	pop	r29
    7510:	cf 91       	pop	r28
    7512:	bf 91       	pop	r27
    7514:	af 91       	pop	r26
    7516:	9f 91       	pop	r25
    7518:	8f 91       	pop	r24
    751a:	7f 91       	pop	r23
    751c:	6f 91       	pop	r22
    751e:	5f 91       	pop	r21
    7520:	4f 91       	pop	r20
    7522:	3f 91       	pop	r19
    7524:	2f 91       	pop	r18
    7526:	0f 90       	pop	r0
    7528:	0b be       	out	0x3b, r0	; 59
    752a:	0f 90       	pop	r0
    752c:	0f be       	out	0x3f, r0	; 63
    752e:	0f 90       	pop	r0
    7530:	1f 90       	pop	r1
    7532:	18 95       	reti

00007534 <__vector_36>:
*              think we do but I do anyway.
*      Return: -1, or -2 on error
*              returns 1 if got character, returns 2 is we lost a character.
******************************************************************************/
ISR(USART1_RX_vect)
{
    7534:	1f 92       	push	r1
    7536:	0f 92       	push	r0
    7538:	0f b6       	in	r0, 0x3f	; 63
    753a:	0f 92       	push	r0
    753c:	11 24       	eor	r1, r1
    753e:	0b b6       	in	r0, 0x3b	; 59
    7540:	0f 92       	push	r0
    7542:	2f 93       	push	r18
    7544:	3f 93       	push	r19
    7546:	4f 93       	push	r20
    7548:	5f 93       	push	r21
    754a:	6f 93       	push	r22
    754c:	7f 93       	push	r23
    754e:	8f 93       	push	r24
    7550:	9f 93       	push	r25
    7552:	af 93       	push	r26
    7554:	bf 93       	push	r27
    7556:	ef 93       	push	r30
    7558:	ff 93       	push	r31
	
	if (UCSR1A & _BV(FE1) ||  UCSR1A & _BV(DOR1) ) {
    755a:	80 91 c8 00 	lds	r24, 0x00C8	; 0x8000c8 <__TEXT_REGION_LENGTH__+0x7c00c8>
    755e:	84 fd       	sbrc	r24, 4
    7560:	04 c0       	rjmp	.+8      	; 0x756a <__vector_36+0x36>
    7562:	80 91 c8 00 	lds	r24, 0x00C8	; 0x8000c8 <__TEXT_REGION_LENGTH__+0x7c00c8>
    7566:	83 ff       	sbrs	r24, 3
    7568:	08 c0       	rjmp	.+16     	; 0x757a <__vector_36+0x46>
		clrError = UDR1; // clear error	or if comandCompleteFlag ignore character
    756a:	80 91 ce 00 	lds	r24, 0x00CE	; 0x8000ce <__TEXT_REGION_LENGTH__+0x7c00ce>
    756e:	90 e0       	ldi	r25, 0x00	; 0
    7570:	90 93 d8 13 	sts	0x13D8, r25	; 0x8013d8 <clrError+0x1>
    7574:	80 93 d7 13 	sts	0x13D7, r24	; 0x8013d7 <clrError>
    7578:	19 c0       	rjmp	.+50     	; 0x75ac <__vector_36+0x78>
	}
	else  {
		char c = UDR1;
    757a:	80 91 ce 00 	lds	r24, 0x00CE	; 0x8000ce <__TEXT_REGION_LENGTH__+0x7c00ce>
		if ((c == '\n') ) {
    757e:	8a 30       	cpi	r24, 0x0A	; 10
    7580:	41 f4       	brne	.+16     	; 0x7592 <__vector_36+0x5e>
			ringbuf_put('\0');  // replace line return with end of string.
    7582:	80 e0       	ldi	r24, 0x00	; 0
    7584:	69 de       	rcall	.-814    	; 0x7258 <ringbuf_put>
			commandCompleteFlag1++;
    7586:	80 91 52 16 	lds	r24, 0x1652	; 0x801652 <commandCompleteFlag1>
    758a:	8f 5f       	subi	r24, 0xFF	; 255
    758c:	80 93 52 16 	sts	0x1652, r24	; 0x801652 <commandCompleteFlag1>
    7590:	0d c0       	rjmp	.+26     	; 0x75ac <__vector_36+0x78>
		}
		else if ((c == '\r')) {   // ignore
    7592:	8d 30       	cpi	r24, 0x0D	; 13
    7594:	59 f0       	breq	.+22     	; 0x75ac <__vector_36+0x78>
			//ringbuf_put('\n');
			;
		}

		else if (c == 0x08 || c == 0x7F )   {  // backspace or delete
    7596:	88 30       	cpi	r24, 0x08	; 8
    7598:	11 f0       	breq	.+4      	; 0x759e <__vector_36+0x6a>
    759a:	8f 37       	cpi	r24, 0x7F	; 127
			c = ringbuf_get();
    759c:	11 f4       	brne	.+4      	; 0x75a2 <__vector_36+0x6e>
    759e:	33 de       	rcall	.-922    	; 0x7206 <ringbuf_get>
    75a0:	05 c0       	rjmp	.+10     	; 0x75ac <__vector_36+0x78>
		}
		else if ( ( c > 0x1F ) && (c < 0x7F )  ) {  // accept printable characters
    75a2:	90 ee       	ldi	r25, 0xE0	; 224
    75a4:	98 0f       	add	r25, r24
    75a6:	9f 35       	cpi	r25, 0x5F	; 95
			ringbuf_put(c);
    75a8:	08 f4       	brcc	.+2      	; 0x75ac <__vector_36+0x78>
    75aa:	56 de       	rcall	.-852    	; 0x7258 <ringbuf_put>
		}
		//		else if (c == 0x1B)  { // 'esc' -- kill buffer
		//			bufIndex1 = 0;
		//		}
	}
}
    75ac:	ff 91       	pop	r31
    75ae:	ef 91       	pop	r30
    75b0:	bf 91       	pop	r27
    75b2:	af 91       	pop	r26
    75b4:	9f 91       	pop	r25
    75b6:	8f 91       	pop	r24
    75b8:	7f 91       	pop	r23
    75ba:	6f 91       	pop	r22
    75bc:	5f 91       	pop	r21
    75be:	4f 91       	pop	r20
    75c0:	3f 91       	pop	r19
    75c2:	2f 91       	pop	r18
    75c4:	0f 90       	pop	r0
    75c6:	0b be       	out	0x3b, r0	; 59
    75c8:	0f 90       	pop	r0
    75ca:	0f be       	out	0x3f, r0	; 63
    75cc:	0f 90       	pop	r0
    75ce:	1f 90       	pop	r1
    75d0:	18 95       	reti

000075d2 <doUart>:


	
void doUart(void)
{
	if (commandSize) {
    75d2:	80 91 d5 13 	lds	r24, 0x13D5	; 0x8013d5 <commandSize>
    75d6:	88 23       	and	r24, r24
    75d8:	69 f1       	breq	.+90     	; 0x7634 <doUart+0x62>
		if (outputCharacters<commandSize) {
    75da:	90 91 d4 13 	lds	r25, 0x13D4	; 0x8013d4 <outputCharacters>
    75de:	80 91 d5 13 	lds	r24, 0x13D5	; 0x8013d5 <commandSize>
    75e2:	98 17       	cp	r25, r24
    75e4:	c0 f4       	brcc	.+48     	; 0x7616 <doUart+0x44>
			if (!commandCompleteFlag0) uart0_putchar(buf[outputCharacters],stdout);
    75e6:	80 91 d9 13 	lds	r24, 0x13D9	; 0x8013d9 <commandCompleteFlag0>
    75ea:	81 11       	cpse	r24, r1
    75ec:	0b c0       	rjmp	.+22     	; 0x7604 <doUart+0x32>
    75ee:	60 91 75 16 	lds	r22, 0x1675	; 0x801675 <__iob+0x2>
    75f2:	70 91 76 16 	lds	r23, 0x1676	; 0x801676 <__iob+0x3>
    75f6:	e0 91 d4 13 	lds	r30, 0x13D4	; 0x8013d4 <outputCharacters>
    75fa:	f0 e0       	ldi	r31, 0x00	; 0
    75fc:	ed 5a       	subi	r30, 0xAD	; 173
    75fe:	f9 4e       	sbci	r31, 0xE9	; 233
    7600:	80 81       	ld	r24, Z
    7602:	92 de       	rcall	.-732    	; 0x7328 <uart0_putchar>
			++outputCharacters;
    7604:	80 91 d4 13 	lds	r24, 0x13D4	; 0x8013d4 <outputCharacters>
    7608:	8f 5f       	subi	r24, 0xFF	; 255
    760a:	80 93 d4 13 	sts	0x13D4, r24	; 0x8013d4 <outputCharacters>
			pauseOutputForCmdCnt = 10;			// decremented once per second
    760e:	8a e0       	ldi	r24, 0x0A	; 10
    7610:	80 93 d3 13 	sts	0x13D3, r24	; 0x8013d3 <pauseOutputForCmdCnt>
    7614:	13 c0       	rjmp	.+38     	; 0x763c <doUart+0x6a>
		} else if (!pauseOutputForCmdCnt) {   // timed out
    7616:	80 91 d3 13 	lds	r24, 0x13D3	; 0x8013d3 <pauseOutputForCmdCnt>
    761a:	81 11       	cpse	r24, r1
    761c:	0f c0       	rjmp	.+30     	; 0x763c <doUart+0x6a>
			DISABLE_INTERRUPTS;
    761e:	8f b7       	in	r24, 0x3f	; 63
    7620:	8f 77       	andi	r24, 0x7F	; 127
    7622:	8f bf       	out	0x3f, r24	; 63
			outputCharacters = 0;
    7624:	10 92 d4 13 	sts	0x13D4, r1	; 0x8013d4 <outputCharacters>
			commandSize = 0;
    7628:	10 92 d5 13 	sts	0x13D5, r1	; 0x8013d5 <commandSize>
			bufIndex0 = 0;		
    762c:	10 92 d6 13 	sts	0x13D6, r1	; 0x8013d6 <bufIndex0>
			ENABLE_INTERRUPTS;		
    7630:	78 94       	sei
    7632:	04 c0       	rjmp	.+8      	; 0x763c <doUart+0x6a>
		}			
	} else {
		outputCharacters = 0; 
    7634:	10 92 d4 13 	sts	0x13D4, r1	; 0x8013d4 <outputCharacters>
		pauseOutputForCmdCnt = 0;		// needed if esc is pressed or if all characters were deleted.
    7638:	10 92 d3 13 	sts	0x13D3, r1	; 0x8013d3 <pauseOutputForCmdCnt>
	}
	
	if (commandCompleteFlag0) 	{
    763c:	80 91 d9 13 	lds	r24, 0x13D9	; 0x8013d9 <commandCompleteFlag0>
    7640:	88 23       	and	r24, r24
    7642:	a9 f0       	breq	.+42     	; 0x766e <doUart+0x9c>
//		uart0_putchar(':',stdout);
//		uart0_putchar(' ',stdout);
//		parseCommand(buf);
		printf("    : %s\n",buf);
    7644:	83 e5       	ldi	r24, 0x53	; 83
    7646:	96 e1       	ldi	r25, 0x16	; 22
    7648:	9f 93       	push	r25
    764a:	8f 93       	push	r24
    764c:	83 e5       	ldi	r24, 0x53	; 83
    764e:	93 e1       	ldi	r25, 0x13	; 19
    7650:	9f 93       	push	r25
    7652:	8f 93       	push	r24
    7654:	38 d7       	rcall	.+3696   	; 0x84c6 <printf>
		outputCharacters = commandSize = pauseOutputForCmdCnt = bufIndex0 = 0;		
    7656:	10 92 d6 13 	sts	0x13D6, r1	; 0x8013d6 <bufIndex0>
    765a:	10 92 d3 13 	sts	0x13D3, r1	; 0x8013d3 <pauseOutputForCmdCnt>
    765e:	10 92 d5 13 	sts	0x13D5, r1	; 0x8013d5 <commandSize>
    7662:	10 92 d4 13 	sts	0x13D4, r1	; 0x8013d4 <outputCharacters>
    7666:	0f 90       	pop	r0
    7668:	0f 90       	pop	r0
    766a:	0f 90       	pop	r0
    766c:	0f 90       	pop	r0
	}	
	
	if (commandCompleteFlag1) {
    766e:	80 91 52 16 	lds	r24, 0x1652	; 0x801652 <commandCompleteFlag1>
    7672:	88 23       	and	r24, r24
    7674:	99 f0       	breq	.+38     	; 0x769c <doUart+0xca>
		printf("got Uart1 COmplete:%s \n", buf1);
    7676:	82 ed       	ldi	r24, 0xD2	; 210
    7678:	95 e1       	ldi	r25, 0x15	; 21
    767a:	9f 93       	push	r25
    767c:	8f 93       	push	r24
    767e:	8d e5       	ldi	r24, 0x5D	; 93
    7680:	93 e1       	ldi	r25, 0x13	; 19
    7682:	9f 93       	push	r25
    7684:	8f 93       	push	r24
		uart1_put('~');
    7686:	1f d7       	rcall	.+3646   	; 0x84c6 <printf>
    7688:	8e e7       	ldi	r24, 0x7E	; 126
		uart1_put('*');
    768a:	62 de       	rcall	.-828    	; 0x7350 <uart1_put>
    768c:	8a e2       	ldi	r24, 0x2A	; 42
    768e:	60 de       	rcall	.-832    	; 0x7350 <uart1_put>
		uart1_put('~');		
    7690:	8e e7       	ldi	r24, 0x7E	; 126
    7692:	5e de       	rcall	.-836    	; 0x7350 <uart1_put>
    7694:	0f 90       	pop	r0
    7696:	0f 90       	pop	r0
    7698:	0f 90       	pop	r0
    769a:	0f 90       	pop	r0
    769c:	08 95       	ret

0000769e <__fixunssfsi>:
    769e:	70 d0       	rcall	.+224    	; 0x7780 <__fp_splitA>
    76a0:	88 f0       	brcs	.+34     	; 0x76c4 <__fixunssfsi+0x26>
    76a2:	9f 57       	subi	r25, 0x7F	; 127
    76a4:	90 f0       	brcs	.+36     	; 0x76ca <__fixunssfsi+0x2c>
    76a6:	b9 2f       	mov	r27, r25
    76a8:	99 27       	eor	r25, r25
    76aa:	b7 51       	subi	r27, 0x17	; 23
    76ac:	a0 f0       	brcs	.+40     	; 0x76d6 <__fixunssfsi+0x38>
    76ae:	d1 f0       	breq	.+52     	; 0x76e4 <__fixunssfsi+0x46>
    76b0:	66 0f       	add	r22, r22
    76b2:	77 1f       	adc	r23, r23
    76b4:	88 1f       	adc	r24, r24
    76b6:	99 1f       	adc	r25, r25
    76b8:	1a f0       	brmi	.+6      	; 0x76c0 <__fixunssfsi+0x22>
    76ba:	ba 95       	dec	r27
    76bc:	c9 f7       	brne	.-14     	; 0x76b0 <__fixunssfsi+0x12>
    76be:	12 c0       	rjmp	.+36     	; 0x76e4 <__fixunssfsi+0x46>
    76c0:	b1 30       	cpi	r27, 0x01	; 1
    76c2:	81 f0       	breq	.+32     	; 0x76e4 <__fixunssfsi+0x46>
    76c4:	77 d0       	rcall	.+238    	; 0x77b4 <__fp_zero>
    76c6:	b1 e0       	ldi	r27, 0x01	; 1
    76c8:	08 95       	ret
    76ca:	74 c0       	rjmp	.+232    	; 0x77b4 <__fp_zero>
    76cc:	67 2f       	mov	r22, r23
    76ce:	78 2f       	mov	r23, r24
    76d0:	88 27       	eor	r24, r24
    76d2:	b8 5f       	subi	r27, 0xF8	; 248
    76d4:	39 f0       	breq	.+14     	; 0x76e4 <__fixunssfsi+0x46>
    76d6:	b9 3f       	cpi	r27, 0xF9	; 249
    76d8:	cc f3       	brlt	.-14     	; 0x76cc <__fixunssfsi+0x2e>
    76da:	86 95       	lsr	r24
    76dc:	77 95       	ror	r23
    76de:	67 95       	ror	r22
    76e0:	b3 95       	inc	r27
    76e2:	d9 f7       	brne	.-10     	; 0x76da <__fixunssfsi+0x3c>
    76e4:	3e f4       	brtc	.+14     	; 0x76f4 <__fixunssfsi+0x56>
    76e6:	90 95       	com	r25
    76e8:	80 95       	com	r24
    76ea:	70 95       	com	r23
    76ec:	61 95       	neg	r22
    76ee:	7f 4f       	sbci	r23, 0xFF	; 255
    76f0:	8f 4f       	sbci	r24, 0xFF	; 255
    76f2:	9f 4f       	sbci	r25, 0xFF	; 255
    76f4:	08 95       	ret

000076f6 <__floatunsisf>:
    76f6:	e8 94       	clt
    76f8:	09 c0       	rjmp	.+18     	; 0x770c <__floatsisf+0x12>

000076fa <__floatsisf>:
    76fa:	97 fb       	bst	r25, 7
    76fc:	3e f4       	brtc	.+14     	; 0x770c <__floatsisf+0x12>
    76fe:	90 95       	com	r25
    7700:	80 95       	com	r24
    7702:	70 95       	com	r23
    7704:	61 95       	neg	r22
    7706:	7f 4f       	sbci	r23, 0xFF	; 255
    7708:	8f 4f       	sbci	r24, 0xFF	; 255
    770a:	9f 4f       	sbci	r25, 0xFF	; 255
    770c:	99 23       	and	r25, r25
    770e:	a9 f0       	breq	.+42     	; 0x773a <__floatsisf+0x40>
    7710:	f9 2f       	mov	r31, r25
    7712:	96 e9       	ldi	r25, 0x96	; 150
    7714:	bb 27       	eor	r27, r27
    7716:	93 95       	inc	r25
    7718:	f6 95       	lsr	r31
    771a:	87 95       	ror	r24
    771c:	77 95       	ror	r23
    771e:	67 95       	ror	r22
    7720:	b7 95       	ror	r27
    7722:	f1 11       	cpse	r31, r1
    7724:	f8 cf       	rjmp	.-16     	; 0x7716 <__floatsisf+0x1c>
    7726:	fa f4       	brpl	.+62     	; 0x7766 <__floatsisf+0x6c>
    7728:	bb 0f       	add	r27, r27
    772a:	11 f4       	brne	.+4      	; 0x7730 <__floatsisf+0x36>
    772c:	60 ff       	sbrs	r22, 0
    772e:	1b c0       	rjmp	.+54     	; 0x7766 <__floatsisf+0x6c>
    7730:	6f 5f       	subi	r22, 0xFF	; 255
    7732:	7f 4f       	sbci	r23, 0xFF	; 255
    7734:	8f 4f       	sbci	r24, 0xFF	; 255
    7736:	9f 4f       	sbci	r25, 0xFF	; 255
    7738:	16 c0       	rjmp	.+44     	; 0x7766 <__floatsisf+0x6c>
    773a:	88 23       	and	r24, r24
    773c:	11 f0       	breq	.+4      	; 0x7742 <__floatsisf+0x48>
    773e:	96 e9       	ldi	r25, 0x96	; 150
    7740:	11 c0       	rjmp	.+34     	; 0x7764 <__floatsisf+0x6a>
    7742:	77 23       	and	r23, r23
    7744:	21 f0       	breq	.+8      	; 0x774e <__floatsisf+0x54>
    7746:	9e e8       	ldi	r25, 0x8E	; 142
    7748:	87 2f       	mov	r24, r23
    774a:	76 2f       	mov	r23, r22
    774c:	05 c0       	rjmp	.+10     	; 0x7758 <__floatsisf+0x5e>
    774e:	66 23       	and	r22, r22
    7750:	71 f0       	breq	.+28     	; 0x776e <__floatsisf+0x74>
    7752:	96 e8       	ldi	r25, 0x86	; 134
    7754:	86 2f       	mov	r24, r22
    7756:	70 e0       	ldi	r23, 0x00	; 0
    7758:	60 e0       	ldi	r22, 0x00	; 0
    775a:	2a f0       	brmi	.+10     	; 0x7766 <__floatsisf+0x6c>
    775c:	9a 95       	dec	r25
    775e:	66 0f       	add	r22, r22
    7760:	77 1f       	adc	r23, r23
    7762:	88 1f       	adc	r24, r24
    7764:	da f7       	brpl	.-10     	; 0x775c <__floatsisf+0x62>
    7766:	88 0f       	add	r24, r24
    7768:	96 95       	lsr	r25
    776a:	87 95       	ror	r24
    776c:	97 f9       	bld	r25, 7
    776e:	08 95       	ret

00007770 <__fp_split3>:
    7770:	57 fd       	sbrc	r21, 7
    7772:	90 58       	subi	r25, 0x80	; 128
    7774:	44 0f       	add	r20, r20
    7776:	55 1f       	adc	r21, r21
    7778:	59 f0       	breq	.+22     	; 0x7790 <__fp_splitA+0x10>
    777a:	5f 3f       	cpi	r21, 0xFF	; 255
    777c:	71 f0       	breq	.+28     	; 0x779a <__fp_splitA+0x1a>
    777e:	47 95       	ror	r20

00007780 <__fp_splitA>:
    7780:	88 0f       	add	r24, r24
    7782:	97 fb       	bst	r25, 7
    7784:	99 1f       	adc	r25, r25
    7786:	61 f0       	breq	.+24     	; 0x77a0 <__fp_splitA+0x20>
    7788:	9f 3f       	cpi	r25, 0xFF	; 255
    778a:	79 f0       	breq	.+30     	; 0x77aa <__fp_splitA+0x2a>
    778c:	87 95       	ror	r24
    778e:	08 95       	ret
    7790:	12 16       	cp	r1, r18
    7792:	13 06       	cpc	r1, r19
    7794:	14 06       	cpc	r1, r20
    7796:	55 1f       	adc	r21, r21
    7798:	f2 cf       	rjmp	.-28     	; 0x777e <__fp_split3+0xe>
    779a:	46 95       	lsr	r20
    779c:	f1 df       	rcall	.-30     	; 0x7780 <__fp_splitA>
    779e:	08 c0       	rjmp	.+16     	; 0x77b0 <__fp_splitA+0x30>
    77a0:	16 16       	cp	r1, r22
    77a2:	17 06       	cpc	r1, r23
    77a4:	18 06       	cpc	r1, r24
    77a6:	99 1f       	adc	r25, r25
    77a8:	f1 cf       	rjmp	.-30     	; 0x778c <__fp_splitA+0xc>
    77aa:	86 95       	lsr	r24
    77ac:	71 05       	cpc	r23, r1
    77ae:	61 05       	cpc	r22, r1
    77b0:	08 94       	sec
    77b2:	08 95       	ret

000077b4 <__fp_zero>:
    77b4:	e8 94       	clt

000077b6 <__fp_szero>:
    77b6:	bb 27       	eor	r27, r27
    77b8:	66 27       	eor	r22, r22
    77ba:	77 27       	eor	r23, r23
    77bc:	cb 01       	movw	r24, r22
    77be:	97 f9       	bld	r25, 7
    77c0:	08 95       	ret

000077c2 <__mulsf3>:
    77c2:	0b d0       	rcall	.+22     	; 0x77da <__mulsf3x>
    77c4:	78 c0       	rjmp	.+240    	; 0x78b6 <__fp_round>
    77c6:	69 d0       	rcall	.+210    	; 0x789a <__fp_pscA>
    77c8:	28 f0       	brcs	.+10     	; 0x77d4 <__mulsf3+0x12>
    77ca:	6e d0       	rcall	.+220    	; 0x78a8 <__fp_pscB>
    77cc:	18 f0       	brcs	.+6      	; 0x77d4 <__mulsf3+0x12>
    77ce:	95 23       	and	r25, r21
    77d0:	09 f0       	breq	.+2      	; 0x77d4 <__mulsf3+0x12>
    77d2:	5a c0       	rjmp	.+180    	; 0x7888 <__fp_inf>
    77d4:	5f c0       	rjmp	.+190    	; 0x7894 <__fp_nan>
    77d6:	11 24       	eor	r1, r1
    77d8:	ee cf       	rjmp	.-36     	; 0x77b6 <__fp_szero>

000077da <__mulsf3x>:
    77da:	ca df       	rcall	.-108    	; 0x7770 <__fp_split3>
    77dc:	a0 f3       	brcs	.-24     	; 0x77c6 <__mulsf3+0x4>

000077de <__mulsf3_pse>:
    77de:	95 9f       	mul	r25, r21
    77e0:	d1 f3       	breq	.-12     	; 0x77d6 <__mulsf3+0x14>
    77e2:	95 0f       	add	r25, r21
    77e4:	50 e0       	ldi	r21, 0x00	; 0
    77e6:	55 1f       	adc	r21, r21
    77e8:	62 9f       	mul	r22, r18
    77ea:	f0 01       	movw	r30, r0
    77ec:	72 9f       	mul	r23, r18
    77ee:	bb 27       	eor	r27, r27
    77f0:	f0 0d       	add	r31, r0
    77f2:	b1 1d       	adc	r27, r1
    77f4:	63 9f       	mul	r22, r19
    77f6:	aa 27       	eor	r26, r26
    77f8:	f0 0d       	add	r31, r0
    77fa:	b1 1d       	adc	r27, r1
    77fc:	aa 1f       	adc	r26, r26
    77fe:	64 9f       	mul	r22, r20
    7800:	66 27       	eor	r22, r22
    7802:	b0 0d       	add	r27, r0
    7804:	a1 1d       	adc	r26, r1
    7806:	66 1f       	adc	r22, r22
    7808:	82 9f       	mul	r24, r18
    780a:	22 27       	eor	r18, r18
    780c:	b0 0d       	add	r27, r0
    780e:	a1 1d       	adc	r26, r1
    7810:	62 1f       	adc	r22, r18
    7812:	73 9f       	mul	r23, r19
    7814:	b0 0d       	add	r27, r0
    7816:	a1 1d       	adc	r26, r1
    7818:	62 1f       	adc	r22, r18
    781a:	83 9f       	mul	r24, r19
    781c:	a0 0d       	add	r26, r0
    781e:	61 1d       	adc	r22, r1
    7820:	22 1f       	adc	r18, r18
    7822:	74 9f       	mul	r23, r20
    7824:	33 27       	eor	r19, r19
    7826:	a0 0d       	add	r26, r0
    7828:	61 1d       	adc	r22, r1
    782a:	23 1f       	adc	r18, r19
    782c:	84 9f       	mul	r24, r20
    782e:	60 0d       	add	r22, r0
    7830:	21 1d       	adc	r18, r1
    7832:	82 2f       	mov	r24, r18
    7834:	76 2f       	mov	r23, r22
    7836:	6a 2f       	mov	r22, r26
    7838:	11 24       	eor	r1, r1
    783a:	9f 57       	subi	r25, 0x7F	; 127
    783c:	50 40       	sbci	r21, 0x00	; 0
    783e:	8a f0       	brmi	.+34     	; 0x7862 <__mulsf3_pse+0x84>
    7840:	e1 f0       	breq	.+56     	; 0x787a <__mulsf3_pse+0x9c>
    7842:	88 23       	and	r24, r24
    7844:	4a f0       	brmi	.+18     	; 0x7858 <__mulsf3_pse+0x7a>
    7846:	ee 0f       	add	r30, r30
    7848:	ff 1f       	adc	r31, r31
    784a:	bb 1f       	adc	r27, r27
    784c:	66 1f       	adc	r22, r22
    784e:	77 1f       	adc	r23, r23
    7850:	88 1f       	adc	r24, r24
    7852:	91 50       	subi	r25, 0x01	; 1
    7854:	50 40       	sbci	r21, 0x00	; 0
    7856:	a9 f7       	brne	.-22     	; 0x7842 <__mulsf3_pse+0x64>
    7858:	9e 3f       	cpi	r25, 0xFE	; 254
    785a:	51 05       	cpc	r21, r1
    785c:	70 f0       	brcs	.+28     	; 0x787a <__mulsf3_pse+0x9c>
    785e:	14 c0       	rjmp	.+40     	; 0x7888 <__fp_inf>
    7860:	aa cf       	rjmp	.-172    	; 0x77b6 <__fp_szero>
    7862:	5f 3f       	cpi	r21, 0xFF	; 255
    7864:	ec f3       	brlt	.-6      	; 0x7860 <__mulsf3_pse+0x82>
    7866:	98 3e       	cpi	r25, 0xE8	; 232
    7868:	dc f3       	brlt	.-10     	; 0x7860 <__mulsf3_pse+0x82>
    786a:	86 95       	lsr	r24
    786c:	77 95       	ror	r23
    786e:	67 95       	ror	r22
    7870:	b7 95       	ror	r27
    7872:	f7 95       	ror	r31
    7874:	e7 95       	ror	r30
    7876:	9f 5f       	subi	r25, 0xFF	; 255
    7878:	c1 f7       	brne	.-16     	; 0x786a <__mulsf3_pse+0x8c>
    787a:	fe 2b       	or	r31, r30
    787c:	88 0f       	add	r24, r24
    787e:	91 1d       	adc	r25, r1
    7880:	96 95       	lsr	r25
    7882:	87 95       	ror	r24
    7884:	97 f9       	bld	r25, 7
    7886:	08 95       	ret

00007888 <__fp_inf>:
    7888:	97 f9       	bld	r25, 7
    788a:	9f 67       	ori	r25, 0x7F	; 127
    788c:	80 e8       	ldi	r24, 0x80	; 128
    788e:	70 e0       	ldi	r23, 0x00	; 0
    7890:	60 e0       	ldi	r22, 0x00	; 0
    7892:	08 95       	ret

00007894 <__fp_nan>:
    7894:	9f ef       	ldi	r25, 0xFF	; 255
    7896:	80 ec       	ldi	r24, 0xC0	; 192
    7898:	08 95       	ret

0000789a <__fp_pscA>:
    789a:	00 24       	eor	r0, r0
    789c:	0a 94       	dec	r0
    789e:	16 16       	cp	r1, r22
    78a0:	17 06       	cpc	r1, r23
    78a2:	18 06       	cpc	r1, r24
    78a4:	09 06       	cpc	r0, r25
    78a6:	08 95       	ret

000078a8 <__fp_pscB>:
    78a8:	00 24       	eor	r0, r0
    78aa:	0a 94       	dec	r0
    78ac:	12 16       	cp	r1, r18
    78ae:	13 06       	cpc	r1, r19
    78b0:	14 06       	cpc	r1, r20
    78b2:	05 06       	cpc	r0, r21
    78b4:	08 95       	ret

000078b6 <__fp_round>:
    78b6:	09 2e       	mov	r0, r25
    78b8:	03 94       	inc	r0
    78ba:	00 0c       	add	r0, r0
    78bc:	11 f4       	brne	.+4      	; 0x78c2 <__fp_round+0xc>
    78be:	88 23       	and	r24, r24
    78c0:	52 f0       	brmi	.+20     	; 0x78d6 <__fp_round+0x20>
    78c2:	bb 0f       	add	r27, r27
    78c4:	40 f4       	brcc	.+16     	; 0x78d6 <__fp_round+0x20>
    78c6:	bf 2b       	or	r27, r31
    78c8:	11 f4       	brne	.+4      	; 0x78ce <__fp_round+0x18>
    78ca:	60 ff       	sbrs	r22, 0
    78cc:	04 c0       	rjmp	.+8      	; 0x78d6 <__fp_round+0x20>
    78ce:	6f 5f       	subi	r22, 0xFF	; 255
    78d0:	7f 4f       	sbci	r23, 0xFF	; 255
    78d2:	8f 4f       	sbci	r24, 0xFF	; 255
    78d4:	9f 4f       	sbci	r25, 0xFF	; 255
    78d6:	08 95       	ret

000078d8 <vfprintf>:
    78d8:	2f 92       	push	r2
    78da:	3f 92       	push	r3
    78dc:	4f 92       	push	r4
    78de:	5f 92       	push	r5
    78e0:	6f 92       	push	r6
    78e2:	7f 92       	push	r7
    78e4:	8f 92       	push	r8
    78e6:	9f 92       	push	r9
    78e8:	af 92       	push	r10
    78ea:	bf 92       	push	r11
    78ec:	cf 92       	push	r12
    78ee:	df 92       	push	r13
    78f0:	ef 92       	push	r14
    78f2:	ff 92       	push	r15
    78f4:	0f 93       	push	r16
    78f6:	1f 93       	push	r17
    78f8:	cf 93       	push	r28
    78fa:	df 93       	push	r29
    78fc:	cd b7       	in	r28, 0x3d	; 61
    78fe:	de b7       	in	r29, 0x3e	; 62
    7900:	60 97       	sbiw	r28, 0x10	; 16
    7902:	0f b6       	in	r0, 0x3f	; 63
    7904:	f8 94       	cli
    7906:	de bf       	out	0x3e, r29	; 62
    7908:	0f be       	out	0x3f, r0	; 63
    790a:	cd bf       	out	0x3d, r28	; 61
    790c:	7c 01       	movw	r14, r24
    790e:	1b 01       	movw	r2, r22
    7910:	6a 01       	movw	r12, r20
    7912:	fc 01       	movw	r30, r24
    7914:	17 82       	std	Z+7, r1	; 0x07
    7916:	16 82       	std	Z+6, r1	; 0x06
    7918:	83 81       	ldd	r24, Z+3	; 0x03
    791a:	81 ff       	sbrs	r24, 1
    791c:	2a c3       	rjmp	.+1620   	; 0x7f72 <vfprintf+0x69a>
    791e:	9e 01       	movw	r18, r28
    7920:	2f 5f       	subi	r18, 0xFF	; 255
    7922:	3f 4f       	sbci	r19, 0xFF	; 255
    7924:	39 01       	movw	r6, r18
    7926:	f7 01       	movw	r30, r14
    7928:	93 81       	ldd	r25, Z+3	; 0x03
    792a:	f1 01       	movw	r30, r2
    792c:	93 fd       	sbrc	r25, 3
    792e:	85 91       	lpm	r24, Z+
    7930:	93 ff       	sbrs	r25, 3
    7932:	81 91       	ld	r24, Z+
    7934:	1f 01       	movw	r2, r30
    7936:	88 23       	and	r24, r24
    7938:	09 f4       	brne	.+2      	; 0x793c <vfprintf+0x64>
    793a:	17 c3       	rjmp	.+1582   	; 0x7f6a <vfprintf+0x692>
    793c:	85 32       	cpi	r24, 0x25	; 37
    793e:	39 f4       	brne	.+14     	; 0x794e <vfprintf+0x76>
    7940:	93 fd       	sbrc	r25, 3
    7942:	85 91       	lpm	r24, Z+
    7944:	93 ff       	sbrs	r25, 3
    7946:	81 91       	ld	r24, Z+
    7948:	1f 01       	movw	r2, r30
    794a:	85 32       	cpi	r24, 0x25	; 37
    794c:	31 f4       	brne	.+12     	; 0x795a <vfprintf+0x82>
    794e:	b7 01       	movw	r22, r14
    7950:	90 e0       	ldi	r25, 0x00	; 0
    7952:	7d d5       	rcall	.+2810   	; 0x844e <fputc>
    7954:	56 01       	movw	r10, r12
    7956:	65 01       	movw	r12, r10
    7958:	e6 cf       	rjmp	.-52     	; 0x7926 <vfprintf+0x4e>
    795a:	10 e0       	ldi	r17, 0x00	; 0
    795c:	51 2c       	mov	r5, r1
    795e:	91 2c       	mov	r9, r1
    7960:	ff e1       	ldi	r31, 0x1F	; 31
    7962:	f9 15       	cp	r31, r9
    7964:	d8 f0       	brcs	.+54     	; 0x799c <vfprintf+0xc4>
    7966:	8b 32       	cpi	r24, 0x2B	; 43
    7968:	79 f0       	breq	.+30     	; 0x7988 <vfprintf+0xb0>
    796a:	38 f4       	brcc	.+14     	; 0x797a <vfprintf+0xa2>
    796c:	80 32       	cpi	r24, 0x20	; 32
    796e:	79 f0       	breq	.+30     	; 0x798e <vfprintf+0xb6>
    7970:	83 32       	cpi	r24, 0x23	; 35
    7972:	a1 f4       	brne	.+40     	; 0x799c <vfprintf+0xc4>
    7974:	f9 2d       	mov	r31, r9
    7976:	f0 61       	ori	r31, 0x10	; 16
    7978:	2e c0       	rjmp	.+92     	; 0x79d6 <vfprintf+0xfe>
    797a:	8d 32       	cpi	r24, 0x2D	; 45
    797c:	61 f0       	breq	.+24     	; 0x7996 <vfprintf+0xbe>
    797e:	80 33       	cpi	r24, 0x30	; 48
    7980:	69 f4       	brne	.+26     	; 0x799c <vfprintf+0xc4>
    7982:	29 2d       	mov	r18, r9
    7984:	21 60       	ori	r18, 0x01	; 1
    7986:	2d c0       	rjmp	.+90     	; 0x79e2 <vfprintf+0x10a>
    7988:	39 2d       	mov	r19, r9
    798a:	32 60       	ori	r19, 0x02	; 2
    798c:	93 2e       	mov	r9, r19
    798e:	89 2d       	mov	r24, r9
    7990:	84 60       	ori	r24, 0x04	; 4
    7992:	98 2e       	mov	r9, r24
    7994:	2a c0       	rjmp	.+84     	; 0x79ea <vfprintf+0x112>
    7996:	e9 2d       	mov	r30, r9
    7998:	e8 60       	ori	r30, 0x08	; 8
    799a:	15 c0       	rjmp	.+42     	; 0x79c6 <vfprintf+0xee>
    799c:	97 fc       	sbrc	r9, 7
    799e:	2d c0       	rjmp	.+90     	; 0x79fa <vfprintf+0x122>
    79a0:	20 ed       	ldi	r18, 0xD0	; 208
    79a2:	28 0f       	add	r18, r24
    79a4:	2a 30       	cpi	r18, 0x0A	; 10
    79a6:	88 f4       	brcc	.+34     	; 0x79ca <vfprintf+0xf2>
    79a8:	96 fe       	sbrs	r9, 6
    79aa:	06 c0       	rjmp	.+12     	; 0x79b8 <vfprintf+0xe0>
    79ac:	3a e0       	ldi	r19, 0x0A	; 10
    79ae:	13 9f       	mul	r17, r19
    79b0:	20 0d       	add	r18, r0
    79b2:	11 24       	eor	r1, r1
    79b4:	12 2f       	mov	r17, r18
    79b6:	19 c0       	rjmp	.+50     	; 0x79ea <vfprintf+0x112>
    79b8:	8a e0       	ldi	r24, 0x0A	; 10
    79ba:	58 9e       	mul	r5, r24
    79bc:	20 0d       	add	r18, r0
    79be:	11 24       	eor	r1, r1
    79c0:	52 2e       	mov	r5, r18
    79c2:	e9 2d       	mov	r30, r9
    79c4:	e0 62       	ori	r30, 0x20	; 32
    79c6:	9e 2e       	mov	r9, r30
    79c8:	10 c0       	rjmp	.+32     	; 0x79ea <vfprintf+0x112>
    79ca:	8e 32       	cpi	r24, 0x2E	; 46
    79cc:	31 f4       	brne	.+12     	; 0x79da <vfprintf+0x102>
    79ce:	96 fc       	sbrc	r9, 6
    79d0:	cc c2       	rjmp	.+1432   	; 0x7f6a <vfprintf+0x692>
    79d2:	f9 2d       	mov	r31, r9
    79d4:	f0 64       	ori	r31, 0x40	; 64
    79d6:	9f 2e       	mov	r9, r31
    79d8:	08 c0       	rjmp	.+16     	; 0x79ea <vfprintf+0x112>
    79da:	8c 36       	cpi	r24, 0x6C	; 108
    79dc:	21 f4       	brne	.+8      	; 0x79e6 <vfprintf+0x10e>
    79de:	29 2d       	mov	r18, r9
    79e0:	20 68       	ori	r18, 0x80	; 128
    79e2:	92 2e       	mov	r9, r18
    79e4:	02 c0       	rjmp	.+4      	; 0x79ea <vfprintf+0x112>
    79e6:	88 36       	cpi	r24, 0x68	; 104
    79e8:	41 f4       	brne	.+16     	; 0x79fa <vfprintf+0x122>
    79ea:	f1 01       	movw	r30, r2
    79ec:	93 fd       	sbrc	r25, 3
    79ee:	85 91       	lpm	r24, Z+
    79f0:	93 ff       	sbrs	r25, 3
    79f2:	81 91       	ld	r24, Z+
    79f4:	1f 01       	movw	r2, r30
    79f6:	81 11       	cpse	r24, r1
    79f8:	b3 cf       	rjmp	.-154    	; 0x7960 <vfprintf+0x88>
    79fa:	9b eb       	ldi	r25, 0xBB	; 187
    79fc:	98 0f       	add	r25, r24
    79fe:	93 30       	cpi	r25, 0x03	; 3
    7a00:	20 f4       	brcc	.+8      	; 0x7a0a <vfprintf+0x132>
    7a02:	99 2d       	mov	r25, r9
    7a04:	90 61       	ori	r25, 0x10	; 16
    7a06:	80 5e       	subi	r24, 0xE0	; 224
    7a08:	07 c0       	rjmp	.+14     	; 0x7a18 <vfprintf+0x140>
    7a0a:	9b e9       	ldi	r25, 0x9B	; 155
    7a0c:	98 0f       	add	r25, r24
    7a0e:	93 30       	cpi	r25, 0x03	; 3
    7a10:	08 f0       	brcs	.+2      	; 0x7a14 <vfprintf+0x13c>
    7a12:	59 c1       	rjmp	.+690    	; 0x7cc6 <vfprintf+0x3ee>
    7a14:	99 2d       	mov	r25, r9
    7a16:	9f 7e       	andi	r25, 0xEF	; 239
    7a18:	96 ff       	sbrs	r25, 6
    7a1a:	16 e0       	ldi	r17, 0x06	; 6
    7a1c:	9f 73       	andi	r25, 0x3F	; 63
    7a1e:	99 2e       	mov	r9, r25
    7a20:	85 36       	cpi	r24, 0x65	; 101
    7a22:	19 f4       	brne	.+6      	; 0x7a2a <vfprintf+0x152>
    7a24:	90 64       	ori	r25, 0x40	; 64
    7a26:	99 2e       	mov	r9, r25
    7a28:	08 c0       	rjmp	.+16     	; 0x7a3a <vfprintf+0x162>
    7a2a:	86 36       	cpi	r24, 0x66	; 102
    7a2c:	21 f4       	brne	.+8      	; 0x7a36 <vfprintf+0x15e>
    7a2e:	39 2f       	mov	r19, r25
    7a30:	30 68       	ori	r19, 0x80	; 128
    7a32:	93 2e       	mov	r9, r19
    7a34:	02 c0       	rjmp	.+4      	; 0x7a3a <vfprintf+0x162>
    7a36:	11 11       	cpse	r17, r1
    7a38:	11 50       	subi	r17, 0x01	; 1
    7a3a:	97 fe       	sbrs	r9, 7
    7a3c:	07 c0       	rjmp	.+14     	; 0x7a4c <vfprintf+0x174>
    7a3e:	1c 33       	cpi	r17, 0x3C	; 60
    7a40:	50 f4       	brcc	.+20     	; 0x7a56 <vfprintf+0x17e>
    7a42:	44 24       	eor	r4, r4
    7a44:	43 94       	inc	r4
    7a46:	41 0e       	add	r4, r17
    7a48:	27 e0       	ldi	r18, 0x07	; 7
    7a4a:	0b c0       	rjmp	.+22     	; 0x7a62 <vfprintf+0x18a>
    7a4c:	18 30       	cpi	r17, 0x08	; 8
    7a4e:	38 f0       	brcs	.+14     	; 0x7a5e <vfprintf+0x186>
    7a50:	27 e0       	ldi	r18, 0x07	; 7
    7a52:	17 e0       	ldi	r17, 0x07	; 7
    7a54:	05 c0       	rjmp	.+10     	; 0x7a60 <vfprintf+0x188>
    7a56:	27 e0       	ldi	r18, 0x07	; 7
    7a58:	9c e3       	ldi	r25, 0x3C	; 60
    7a5a:	49 2e       	mov	r4, r25
    7a5c:	02 c0       	rjmp	.+4      	; 0x7a62 <vfprintf+0x18a>
    7a5e:	21 2f       	mov	r18, r17
    7a60:	41 2c       	mov	r4, r1
    7a62:	56 01       	movw	r10, r12
    7a64:	84 e0       	ldi	r24, 0x04	; 4
    7a66:	a8 0e       	add	r10, r24
    7a68:	b1 1c       	adc	r11, r1
    7a6a:	f6 01       	movw	r30, r12
    7a6c:	60 81       	ld	r22, Z
    7a6e:	71 81       	ldd	r23, Z+1	; 0x01
    7a70:	82 81       	ldd	r24, Z+2	; 0x02
    7a72:	93 81       	ldd	r25, Z+3	; 0x03
    7a74:	04 2d       	mov	r16, r4
    7a76:	a3 01       	movw	r20, r6
    7a78:	cb d3       	rcall	.+1942   	; 0x8210 <__ftoa_engine>
    7a7a:	6c 01       	movw	r12, r24
    7a7c:	f9 81       	ldd	r31, Y+1	; 0x01
    7a7e:	fc 87       	std	Y+12, r31	; 0x0c
    7a80:	f0 ff       	sbrs	r31, 0
    7a82:	02 c0       	rjmp	.+4      	; 0x7a88 <vfprintf+0x1b0>
    7a84:	f3 ff       	sbrs	r31, 3
    7a86:	06 c0       	rjmp	.+12     	; 0x7a94 <vfprintf+0x1bc>
    7a88:	91 fc       	sbrc	r9, 1
    7a8a:	06 c0       	rjmp	.+12     	; 0x7a98 <vfprintf+0x1c0>
    7a8c:	92 fe       	sbrs	r9, 2
    7a8e:	06 c0       	rjmp	.+12     	; 0x7a9c <vfprintf+0x1c4>
    7a90:	00 e2       	ldi	r16, 0x20	; 32
    7a92:	05 c0       	rjmp	.+10     	; 0x7a9e <vfprintf+0x1c6>
    7a94:	0d e2       	ldi	r16, 0x2D	; 45
    7a96:	03 c0       	rjmp	.+6      	; 0x7a9e <vfprintf+0x1c6>
    7a98:	0b e2       	ldi	r16, 0x2B	; 43
    7a9a:	01 c0       	rjmp	.+2      	; 0x7a9e <vfprintf+0x1c6>
    7a9c:	00 e0       	ldi	r16, 0x00	; 0
    7a9e:	8c 85       	ldd	r24, Y+12	; 0x0c
    7aa0:	8c 70       	andi	r24, 0x0C	; 12
    7aa2:	19 f0       	breq	.+6      	; 0x7aaa <vfprintf+0x1d2>
    7aa4:	01 11       	cpse	r16, r1
    7aa6:	43 c2       	rjmp	.+1158   	; 0x7f2e <vfprintf+0x656>
    7aa8:	80 c2       	rjmp	.+1280   	; 0x7faa <vfprintf+0x6d2>
    7aaa:	97 fe       	sbrs	r9, 7
    7aac:	10 c0       	rjmp	.+32     	; 0x7ace <vfprintf+0x1f6>
    7aae:	4c 0c       	add	r4, r12
    7ab0:	fc 85       	ldd	r31, Y+12	; 0x0c
    7ab2:	f4 ff       	sbrs	r31, 4
    7ab4:	04 c0       	rjmp	.+8      	; 0x7abe <vfprintf+0x1e6>
    7ab6:	8a 81       	ldd	r24, Y+2	; 0x02
    7ab8:	81 33       	cpi	r24, 0x31	; 49
    7aba:	09 f4       	brne	.+2      	; 0x7abe <vfprintf+0x1e6>
    7abc:	4a 94       	dec	r4
    7abe:	14 14       	cp	r1, r4
    7ac0:	74 f5       	brge	.+92     	; 0x7b1e <vfprintf+0x246>
    7ac2:	28 e0       	ldi	r18, 0x08	; 8
    7ac4:	24 15       	cp	r18, r4
    7ac6:	78 f5       	brcc	.+94     	; 0x7b26 <vfprintf+0x24e>
    7ac8:	88 e0       	ldi	r24, 0x08	; 8
    7aca:	48 2e       	mov	r4, r24
    7acc:	2c c0       	rjmp	.+88     	; 0x7b26 <vfprintf+0x24e>
    7ace:	96 fc       	sbrc	r9, 6
    7ad0:	2a c0       	rjmp	.+84     	; 0x7b26 <vfprintf+0x24e>
    7ad2:	81 2f       	mov	r24, r17
    7ad4:	90 e0       	ldi	r25, 0x00	; 0
    7ad6:	8c 15       	cp	r24, r12
    7ad8:	9d 05       	cpc	r25, r13
    7ada:	9c f0       	brlt	.+38     	; 0x7b02 <vfprintf+0x22a>
    7adc:	3c ef       	ldi	r19, 0xFC	; 252
    7ade:	c3 16       	cp	r12, r19
    7ae0:	3f ef       	ldi	r19, 0xFF	; 255
    7ae2:	d3 06       	cpc	r13, r19
    7ae4:	74 f0       	brlt	.+28     	; 0x7b02 <vfprintf+0x22a>
    7ae6:	89 2d       	mov	r24, r9
    7ae8:	80 68       	ori	r24, 0x80	; 128
    7aea:	98 2e       	mov	r9, r24
    7aec:	0a c0       	rjmp	.+20     	; 0x7b02 <vfprintf+0x22a>
    7aee:	e2 e0       	ldi	r30, 0x02	; 2
    7af0:	f0 e0       	ldi	r31, 0x00	; 0
    7af2:	ec 0f       	add	r30, r28
    7af4:	fd 1f       	adc	r31, r29
    7af6:	e1 0f       	add	r30, r17
    7af8:	f1 1d       	adc	r31, r1
    7afa:	80 81       	ld	r24, Z
    7afc:	80 33       	cpi	r24, 0x30	; 48
    7afe:	19 f4       	brne	.+6      	; 0x7b06 <vfprintf+0x22e>
    7b00:	11 50       	subi	r17, 0x01	; 1
    7b02:	11 11       	cpse	r17, r1
    7b04:	f4 cf       	rjmp	.-24     	; 0x7aee <vfprintf+0x216>
    7b06:	97 fe       	sbrs	r9, 7
    7b08:	0e c0       	rjmp	.+28     	; 0x7b26 <vfprintf+0x24e>
    7b0a:	44 24       	eor	r4, r4
    7b0c:	43 94       	inc	r4
    7b0e:	41 0e       	add	r4, r17
    7b10:	81 2f       	mov	r24, r17
    7b12:	90 e0       	ldi	r25, 0x00	; 0
    7b14:	c8 16       	cp	r12, r24
    7b16:	d9 06       	cpc	r13, r25
    7b18:	2c f4       	brge	.+10     	; 0x7b24 <vfprintf+0x24c>
    7b1a:	1c 19       	sub	r17, r12
    7b1c:	04 c0       	rjmp	.+8      	; 0x7b26 <vfprintf+0x24e>
    7b1e:	44 24       	eor	r4, r4
    7b20:	43 94       	inc	r4
    7b22:	01 c0       	rjmp	.+2      	; 0x7b26 <vfprintf+0x24e>
    7b24:	10 e0       	ldi	r17, 0x00	; 0
    7b26:	97 fe       	sbrs	r9, 7
    7b28:	06 c0       	rjmp	.+12     	; 0x7b36 <vfprintf+0x25e>
    7b2a:	1c 14       	cp	r1, r12
    7b2c:	1d 04       	cpc	r1, r13
    7b2e:	34 f4       	brge	.+12     	; 0x7b3c <vfprintf+0x264>
    7b30:	c6 01       	movw	r24, r12
    7b32:	01 96       	adiw	r24, 0x01	; 1
    7b34:	05 c0       	rjmp	.+10     	; 0x7b40 <vfprintf+0x268>
    7b36:	85 e0       	ldi	r24, 0x05	; 5
    7b38:	90 e0       	ldi	r25, 0x00	; 0
    7b3a:	02 c0       	rjmp	.+4      	; 0x7b40 <vfprintf+0x268>
    7b3c:	81 e0       	ldi	r24, 0x01	; 1
    7b3e:	90 e0       	ldi	r25, 0x00	; 0
    7b40:	01 11       	cpse	r16, r1
    7b42:	01 96       	adiw	r24, 0x01	; 1
    7b44:	11 23       	and	r17, r17
    7b46:	31 f0       	breq	.+12     	; 0x7b54 <vfprintf+0x27c>
    7b48:	21 2f       	mov	r18, r17
    7b4a:	30 e0       	ldi	r19, 0x00	; 0
    7b4c:	2f 5f       	subi	r18, 0xFF	; 255
    7b4e:	3f 4f       	sbci	r19, 0xFF	; 255
    7b50:	82 0f       	add	r24, r18
    7b52:	93 1f       	adc	r25, r19
    7b54:	25 2d       	mov	r18, r5
    7b56:	30 e0       	ldi	r19, 0x00	; 0
    7b58:	82 17       	cp	r24, r18
    7b5a:	93 07       	cpc	r25, r19
    7b5c:	14 f4       	brge	.+4      	; 0x7b62 <vfprintf+0x28a>
    7b5e:	58 1a       	sub	r5, r24
    7b60:	01 c0       	rjmp	.+2      	; 0x7b64 <vfprintf+0x28c>
    7b62:	51 2c       	mov	r5, r1
    7b64:	89 2d       	mov	r24, r9
    7b66:	89 70       	andi	r24, 0x09	; 9
    7b68:	41 f4       	brne	.+16     	; 0x7b7a <vfprintf+0x2a2>
    7b6a:	55 20       	and	r5, r5
    7b6c:	31 f0       	breq	.+12     	; 0x7b7a <vfprintf+0x2a2>
    7b6e:	b7 01       	movw	r22, r14
    7b70:	80 e2       	ldi	r24, 0x20	; 32
    7b72:	90 e0       	ldi	r25, 0x00	; 0
    7b74:	6c d4       	rcall	.+2264   	; 0x844e <fputc>
    7b76:	5a 94       	dec	r5
    7b78:	f8 cf       	rjmp	.-16     	; 0x7b6a <vfprintf+0x292>
    7b7a:	00 23       	and	r16, r16
    7b7c:	21 f0       	breq	.+8      	; 0x7b86 <vfprintf+0x2ae>
    7b7e:	b7 01       	movw	r22, r14
    7b80:	80 2f       	mov	r24, r16
    7b82:	90 e0       	ldi	r25, 0x00	; 0
    7b84:	64 d4       	rcall	.+2248   	; 0x844e <fputc>
    7b86:	93 fc       	sbrc	r9, 3
    7b88:	08 c0       	rjmp	.+16     	; 0x7b9a <vfprintf+0x2c2>
    7b8a:	55 20       	and	r5, r5
    7b8c:	31 f0       	breq	.+12     	; 0x7b9a <vfprintf+0x2c2>
    7b8e:	b7 01       	movw	r22, r14
    7b90:	80 e3       	ldi	r24, 0x30	; 48
    7b92:	90 e0       	ldi	r25, 0x00	; 0
    7b94:	5c d4       	rcall	.+2232   	; 0x844e <fputc>
    7b96:	5a 94       	dec	r5
    7b98:	f8 cf       	rjmp	.-16     	; 0x7b8a <vfprintf+0x2b2>
    7b9a:	97 fe       	sbrs	r9, 7
    7b9c:	4a c0       	rjmp	.+148    	; 0x7c32 <vfprintf+0x35a>
    7b9e:	46 01       	movw	r8, r12
    7ba0:	d7 fe       	sbrs	r13, 7
    7ba2:	02 c0       	rjmp	.+4      	; 0x7ba8 <vfprintf+0x2d0>
    7ba4:	81 2c       	mov	r8, r1
    7ba6:	91 2c       	mov	r9, r1
    7ba8:	c6 01       	movw	r24, r12
    7baa:	88 19       	sub	r24, r8
    7bac:	99 09       	sbc	r25, r9
    7bae:	f3 01       	movw	r30, r6
    7bb0:	e8 0f       	add	r30, r24
    7bb2:	f9 1f       	adc	r31, r25
    7bb4:	fe 87       	std	Y+14, r31	; 0x0e
    7bb6:	ed 87       	std	Y+13, r30	; 0x0d
    7bb8:	96 01       	movw	r18, r12
    7bba:	24 19       	sub	r18, r4
    7bbc:	31 09       	sbc	r19, r1
    7bbe:	38 8b       	std	Y+16, r19	; 0x10
    7bc0:	2f 87       	std	Y+15, r18	; 0x0f
    7bc2:	01 2f       	mov	r16, r17
    7bc4:	10 e0       	ldi	r17, 0x00	; 0
    7bc6:	11 95       	neg	r17
    7bc8:	01 95       	neg	r16
    7bca:	11 09       	sbc	r17, r1
    7bcc:	3f ef       	ldi	r19, 0xFF	; 255
    7bce:	83 16       	cp	r8, r19
    7bd0:	93 06       	cpc	r9, r19
    7bd2:	21 f4       	brne	.+8      	; 0x7bdc <vfprintf+0x304>
    7bd4:	b7 01       	movw	r22, r14
    7bd6:	8e e2       	ldi	r24, 0x2E	; 46
    7bd8:	90 e0       	ldi	r25, 0x00	; 0
    7bda:	39 d4       	rcall	.+2162   	; 0x844e <fputc>
    7bdc:	c8 14       	cp	r12, r8
    7bde:	d9 04       	cpc	r13, r9
    7be0:	4c f0       	brlt	.+18     	; 0x7bf4 <vfprintf+0x31c>
    7be2:	8f 85       	ldd	r24, Y+15	; 0x0f
    7be4:	98 89       	ldd	r25, Y+16	; 0x10
    7be6:	88 15       	cp	r24, r8
    7be8:	99 05       	cpc	r25, r9
    7bea:	24 f4       	brge	.+8      	; 0x7bf4 <vfprintf+0x31c>
    7bec:	ed 85       	ldd	r30, Y+13	; 0x0d
    7bee:	fe 85       	ldd	r31, Y+14	; 0x0e
    7bf0:	81 81       	ldd	r24, Z+1	; 0x01
    7bf2:	01 c0       	rjmp	.+2      	; 0x7bf6 <vfprintf+0x31e>
    7bf4:	80 e3       	ldi	r24, 0x30	; 48
    7bf6:	f1 e0       	ldi	r31, 0x01	; 1
    7bf8:	8f 1a       	sub	r8, r31
    7bfa:	91 08       	sbc	r9, r1
    7bfc:	2d 85       	ldd	r18, Y+13	; 0x0d
    7bfe:	3e 85       	ldd	r19, Y+14	; 0x0e
    7c00:	2f 5f       	subi	r18, 0xFF	; 255
    7c02:	3f 4f       	sbci	r19, 0xFF	; 255
    7c04:	3e 87       	std	Y+14, r19	; 0x0e
    7c06:	2d 87       	std	Y+13, r18	; 0x0d
    7c08:	80 16       	cp	r8, r16
    7c0a:	91 06       	cpc	r9, r17
    7c0c:	24 f0       	brlt	.+8      	; 0x7c16 <vfprintf+0x33e>
    7c0e:	b7 01       	movw	r22, r14
    7c10:	90 e0       	ldi	r25, 0x00	; 0
    7c12:	1d d4       	rcall	.+2106   	; 0x844e <fputc>
    7c14:	db cf       	rjmp	.-74     	; 0x7bcc <vfprintf+0x2f4>
    7c16:	c8 14       	cp	r12, r8
    7c18:	d9 04       	cpc	r13, r9
    7c1a:	41 f4       	brne	.+16     	; 0x7c2c <vfprintf+0x354>
    7c1c:	9a 81       	ldd	r25, Y+2	; 0x02
    7c1e:	96 33       	cpi	r25, 0x36	; 54
    7c20:	20 f4       	brcc	.+8      	; 0x7c2a <vfprintf+0x352>
    7c22:	95 33       	cpi	r25, 0x35	; 53
    7c24:	19 f4       	brne	.+6      	; 0x7c2c <vfprintf+0x354>
    7c26:	3c 85       	ldd	r19, Y+12	; 0x0c
    7c28:	34 ff       	sbrs	r19, 4
    7c2a:	81 e3       	ldi	r24, 0x31	; 49
    7c2c:	b7 01       	movw	r22, r14
    7c2e:	90 e0       	ldi	r25, 0x00	; 0
    7c30:	48 c0       	rjmp	.+144    	; 0x7cc2 <vfprintf+0x3ea>
    7c32:	8a 81       	ldd	r24, Y+2	; 0x02
    7c34:	81 33       	cpi	r24, 0x31	; 49
    7c36:	19 f0       	breq	.+6      	; 0x7c3e <vfprintf+0x366>
    7c38:	9c 85       	ldd	r25, Y+12	; 0x0c
    7c3a:	9f 7e       	andi	r25, 0xEF	; 239
    7c3c:	9c 87       	std	Y+12, r25	; 0x0c
    7c3e:	b7 01       	movw	r22, r14
    7c40:	90 e0       	ldi	r25, 0x00	; 0
    7c42:	05 d4       	rcall	.+2058   	; 0x844e <fputc>
    7c44:	11 11       	cpse	r17, r1
    7c46:	05 c0       	rjmp	.+10     	; 0x7c52 <vfprintf+0x37a>
    7c48:	94 fc       	sbrc	r9, 4
    7c4a:	16 c0       	rjmp	.+44     	; 0x7c78 <vfprintf+0x3a0>
    7c4c:	85 e6       	ldi	r24, 0x65	; 101
    7c4e:	90 e0       	ldi	r25, 0x00	; 0
    7c50:	15 c0       	rjmp	.+42     	; 0x7c7c <vfprintf+0x3a4>
    7c52:	b7 01       	movw	r22, r14
    7c54:	8e e2       	ldi	r24, 0x2E	; 46
    7c56:	90 e0       	ldi	r25, 0x00	; 0
    7c58:	fa d3       	rcall	.+2036   	; 0x844e <fputc>
    7c5a:	1e 5f       	subi	r17, 0xFE	; 254
    7c5c:	82 e0       	ldi	r24, 0x02	; 2
    7c5e:	01 e0       	ldi	r16, 0x01	; 1
    7c60:	08 0f       	add	r16, r24
    7c62:	f3 01       	movw	r30, r6
    7c64:	e8 0f       	add	r30, r24
    7c66:	f1 1d       	adc	r31, r1
    7c68:	80 81       	ld	r24, Z
    7c6a:	b7 01       	movw	r22, r14
    7c6c:	90 e0       	ldi	r25, 0x00	; 0
    7c6e:	ef d3       	rcall	.+2014   	; 0x844e <fputc>
    7c70:	80 2f       	mov	r24, r16
    7c72:	01 13       	cpse	r16, r17
    7c74:	f4 cf       	rjmp	.-24     	; 0x7c5e <vfprintf+0x386>
    7c76:	e8 cf       	rjmp	.-48     	; 0x7c48 <vfprintf+0x370>
    7c78:	85 e4       	ldi	r24, 0x45	; 69
    7c7a:	90 e0       	ldi	r25, 0x00	; 0
    7c7c:	b7 01       	movw	r22, r14
    7c7e:	e7 d3       	rcall	.+1998   	; 0x844e <fputc>
    7c80:	d7 fc       	sbrc	r13, 7
    7c82:	06 c0       	rjmp	.+12     	; 0x7c90 <vfprintf+0x3b8>
    7c84:	c1 14       	cp	r12, r1
    7c86:	d1 04       	cpc	r13, r1
    7c88:	41 f4       	brne	.+16     	; 0x7c9a <vfprintf+0x3c2>
    7c8a:	ec 85       	ldd	r30, Y+12	; 0x0c
    7c8c:	e4 ff       	sbrs	r30, 4
    7c8e:	05 c0       	rjmp	.+10     	; 0x7c9a <vfprintf+0x3c2>
    7c90:	d1 94       	neg	r13
    7c92:	c1 94       	neg	r12
    7c94:	d1 08       	sbc	r13, r1
    7c96:	8d e2       	ldi	r24, 0x2D	; 45
    7c98:	01 c0       	rjmp	.+2      	; 0x7c9c <vfprintf+0x3c4>
    7c9a:	8b e2       	ldi	r24, 0x2B	; 43
    7c9c:	b7 01       	movw	r22, r14
    7c9e:	90 e0       	ldi	r25, 0x00	; 0
    7ca0:	d6 d3       	rcall	.+1964   	; 0x844e <fputc>
    7ca2:	80 e3       	ldi	r24, 0x30	; 48
    7ca4:	2a e0       	ldi	r18, 0x0A	; 10
    7ca6:	c2 16       	cp	r12, r18
    7ca8:	d1 04       	cpc	r13, r1
    7caa:	2c f0       	brlt	.+10     	; 0x7cb6 <vfprintf+0x3de>
    7cac:	8f 5f       	subi	r24, 0xFF	; 255
    7cae:	fa e0       	ldi	r31, 0x0A	; 10
    7cb0:	cf 1a       	sub	r12, r31
    7cb2:	d1 08       	sbc	r13, r1
    7cb4:	f7 cf       	rjmp	.-18     	; 0x7ca4 <vfprintf+0x3cc>
    7cb6:	b7 01       	movw	r22, r14
    7cb8:	90 e0       	ldi	r25, 0x00	; 0
    7cba:	c9 d3       	rcall	.+1938   	; 0x844e <fputc>
    7cbc:	b7 01       	movw	r22, r14
    7cbe:	c6 01       	movw	r24, r12
    7cc0:	c0 96       	adiw	r24, 0x30	; 48
    7cc2:	c5 d3       	rcall	.+1930   	; 0x844e <fputc>
    7cc4:	49 c1       	rjmp	.+658    	; 0x7f58 <vfprintf+0x680>
    7cc6:	83 36       	cpi	r24, 0x63	; 99
    7cc8:	31 f0       	breq	.+12     	; 0x7cd6 <vfprintf+0x3fe>
    7cca:	83 37       	cpi	r24, 0x73	; 115
    7ccc:	79 f0       	breq	.+30     	; 0x7cec <vfprintf+0x414>
    7cce:	83 35       	cpi	r24, 0x53	; 83
    7cd0:	09 f0       	breq	.+2      	; 0x7cd4 <vfprintf+0x3fc>
    7cd2:	52 c0       	rjmp	.+164    	; 0x7d78 <vfprintf+0x4a0>
    7cd4:	1f c0       	rjmp	.+62     	; 0x7d14 <vfprintf+0x43c>
    7cd6:	56 01       	movw	r10, r12
    7cd8:	32 e0       	ldi	r19, 0x02	; 2
    7cda:	a3 0e       	add	r10, r19
    7cdc:	b1 1c       	adc	r11, r1
    7cde:	f6 01       	movw	r30, r12
    7ce0:	80 81       	ld	r24, Z
    7ce2:	89 83       	std	Y+1, r24	; 0x01
    7ce4:	01 e0       	ldi	r16, 0x01	; 1
    7ce6:	10 e0       	ldi	r17, 0x00	; 0
    7ce8:	63 01       	movw	r12, r6
    7cea:	11 c0       	rjmp	.+34     	; 0x7d0e <vfprintf+0x436>
    7cec:	56 01       	movw	r10, r12
    7cee:	f2 e0       	ldi	r31, 0x02	; 2
    7cf0:	af 0e       	add	r10, r31
    7cf2:	b1 1c       	adc	r11, r1
    7cf4:	f6 01       	movw	r30, r12
    7cf6:	c0 80       	ld	r12, Z
    7cf8:	d1 80       	ldd	r13, Z+1	; 0x01
    7cfa:	96 fe       	sbrs	r9, 6
    7cfc:	03 c0       	rjmp	.+6      	; 0x7d04 <vfprintf+0x42c>
    7cfe:	61 2f       	mov	r22, r17
    7d00:	70 e0       	ldi	r23, 0x00	; 0
    7d02:	02 c0       	rjmp	.+4      	; 0x7d08 <vfprintf+0x430>
    7d04:	6f ef       	ldi	r22, 0xFF	; 255
    7d06:	7f ef       	ldi	r23, 0xFF	; 255
    7d08:	c6 01       	movw	r24, r12
    7d0a:	8e d3       	rcall	.+1820   	; 0x8428 <strnlen>
    7d0c:	8c 01       	movw	r16, r24
    7d0e:	f9 2d       	mov	r31, r9
    7d10:	ff 77       	andi	r31, 0x7F	; 127
    7d12:	13 c0       	rjmp	.+38     	; 0x7d3a <vfprintf+0x462>
    7d14:	56 01       	movw	r10, r12
    7d16:	22 e0       	ldi	r18, 0x02	; 2
    7d18:	a2 0e       	add	r10, r18
    7d1a:	b1 1c       	adc	r11, r1
    7d1c:	f6 01       	movw	r30, r12
    7d1e:	c0 80       	ld	r12, Z
    7d20:	d1 80       	ldd	r13, Z+1	; 0x01
    7d22:	96 fe       	sbrs	r9, 6
    7d24:	03 c0       	rjmp	.+6      	; 0x7d2c <vfprintf+0x454>
    7d26:	61 2f       	mov	r22, r17
    7d28:	70 e0       	ldi	r23, 0x00	; 0
    7d2a:	02 c0       	rjmp	.+4      	; 0x7d30 <vfprintf+0x458>
    7d2c:	6f ef       	ldi	r22, 0xFF	; 255
    7d2e:	7f ef       	ldi	r23, 0xFF	; 255
    7d30:	c6 01       	movw	r24, r12
    7d32:	4d d3       	rcall	.+1690   	; 0x83ce <strnlen_P>
    7d34:	8c 01       	movw	r16, r24
    7d36:	f9 2d       	mov	r31, r9
    7d38:	f0 68       	ori	r31, 0x80	; 128
    7d3a:	9f 2e       	mov	r9, r31
    7d3c:	f3 fd       	sbrc	r31, 3
    7d3e:	18 c0       	rjmp	.+48     	; 0x7d70 <vfprintf+0x498>
    7d40:	85 2d       	mov	r24, r5
    7d42:	90 e0       	ldi	r25, 0x00	; 0
    7d44:	08 17       	cp	r16, r24
    7d46:	19 07       	cpc	r17, r25
    7d48:	98 f4       	brcc	.+38     	; 0x7d70 <vfprintf+0x498>
    7d4a:	b7 01       	movw	r22, r14
    7d4c:	80 e2       	ldi	r24, 0x20	; 32
    7d4e:	90 e0       	ldi	r25, 0x00	; 0
    7d50:	7e d3       	rcall	.+1788   	; 0x844e <fputc>
    7d52:	5a 94       	dec	r5
    7d54:	f5 cf       	rjmp	.-22     	; 0x7d40 <vfprintf+0x468>
    7d56:	f6 01       	movw	r30, r12
    7d58:	97 fc       	sbrc	r9, 7
    7d5a:	85 91       	lpm	r24, Z+
    7d5c:	97 fe       	sbrs	r9, 7
    7d5e:	81 91       	ld	r24, Z+
    7d60:	6f 01       	movw	r12, r30
    7d62:	b7 01       	movw	r22, r14
    7d64:	90 e0       	ldi	r25, 0x00	; 0
    7d66:	73 d3       	rcall	.+1766   	; 0x844e <fputc>
    7d68:	51 10       	cpse	r5, r1
    7d6a:	5a 94       	dec	r5
    7d6c:	01 50       	subi	r16, 0x01	; 1
    7d6e:	11 09       	sbc	r17, r1
    7d70:	01 15       	cp	r16, r1
    7d72:	11 05       	cpc	r17, r1
    7d74:	81 f7       	brne	.-32     	; 0x7d56 <vfprintf+0x47e>
    7d76:	f0 c0       	rjmp	.+480    	; 0x7f58 <vfprintf+0x680>
    7d78:	84 36       	cpi	r24, 0x64	; 100
    7d7a:	11 f0       	breq	.+4      	; 0x7d80 <vfprintf+0x4a8>
    7d7c:	89 36       	cpi	r24, 0x69	; 105
    7d7e:	59 f5       	brne	.+86     	; 0x7dd6 <vfprintf+0x4fe>
    7d80:	56 01       	movw	r10, r12
    7d82:	97 fe       	sbrs	r9, 7
    7d84:	09 c0       	rjmp	.+18     	; 0x7d98 <vfprintf+0x4c0>
    7d86:	24 e0       	ldi	r18, 0x04	; 4
    7d88:	a2 0e       	add	r10, r18
    7d8a:	b1 1c       	adc	r11, r1
    7d8c:	f6 01       	movw	r30, r12
    7d8e:	60 81       	ld	r22, Z
    7d90:	71 81       	ldd	r23, Z+1	; 0x01
    7d92:	82 81       	ldd	r24, Z+2	; 0x02
    7d94:	93 81       	ldd	r25, Z+3	; 0x03
    7d96:	0a c0       	rjmp	.+20     	; 0x7dac <vfprintf+0x4d4>
    7d98:	f2 e0       	ldi	r31, 0x02	; 2
    7d9a:	af 0e       	add	r10, r31
    7d9c:	b1 1c       	adc	r11, r1
    7d9e:	f6 01       	movw	r30, r12
    7da0:	60 81       	ld	r22, Z
    7da2:	71 81       	ldd	r23, Z+1	; 0x01
    7da4:	07 2e       	mov	r0, r23
    7da6:	00 0c       	add	r0, r0
    7da8:	88 0b       	sbc	r24, r24
    7daa:	99 0b       	sbc	r25, r25
    7dac:	f9 2d       	mov	r31, r9
    7dae:	ff 76       	andi	r31, 0x6F	; 111
    7db0:	9f 2e       	mov	r9, r31
    7db2:	97 ff       	sbrs	r25, 7
    7db4:	09 c0       	rjmp	.+18     	; 0x7dc8 <vfprintf+0x4f0>
    7db6:	90 95       	com	r25
    7db8:	80 95       	com	r24
    7dba:	70 95       	com	r23
    7dbc:	61 95       	neg	r22
    7dbe:	7f 4f       	sbci	r23, 0xFF	; 255
    7dc0:	8f 4f       	sbci	r24, 0xFF	; 255
    7dc2:	9f 4f       	sbci	r25, 0xFF	; 255
    7dc4:	f0 68       	ori	r31, 0x80	; 128
    7dc6:	9f 2e       	mov	r9, r31
    7dc8:	2a e0       	ldi	r18, 0x0A	; 10
    7dca:	30 e0       	ldi	r19, 0x00	; 0
    7dcc:	a3 01       	movw	r20, r6
    7dce:	ea d3       	rcall	.+2004   	; 0x85a4 <__ultoa_invert>
    7dd0:	c8 2e       	mov	r12, r24
    7dd2:	c6 18       	sub	r12, r6
    7dd4:	3e c0       	rjmp	.+124    	; 0x7e52 <vfprintf+0x57a>
    7dd6:	09 2d       	mov	r16, r9
    7dd8:	85 37       	cpi	r24, 0x75	; 117
    7dda:	21 f4       	brne	.+8      	; 0x7de4 <vfprintf+0x50c>
    7ddc:	0f 7e       	andi	r16, 0xEF	; 239
    7dde:	2a e0       	ldi	r18, 0x0A	; 10
    7de0:	30 e0       	ldi	r19, 0x00	; 0
    7de2:	1d c0       	rjmp	.+58     	; 0x7e1e <vfprintf+0x546>
    7de4:	09 7f       	andi	r16, 0xF9	; 249
    7de6:	8f 36       	cpi	r24, 0x6F	; 111
    7de8:	91 f0       	breq	.+36     	; 0x7e0e <vfprintf+0x536>
    7dea:	18 f4       	brcc	.+6      	; 0x7df2 <vfprintf+0x51a>
    7dec:	88 35       	cpi	r24, 0x58	; 88
    7dee:	59 f0       	breq	.+22     	; 0x7e06 <vfprintf+0x52e>
    7df0:	bc c0       	rjmp	.+376    	; 0x7f6a <vfprintf+0x692>
    7df2:	80 37       	cpi	r24, 0x70	; 112
    7df4:	19 f0       	breq	.+6      	; 0x7dfc <vfprintf+0x524>
    7df6:	88 37       	cpi	r24, 0x78	; 120
    7df8:	11 f0       	breq	.+4      	; 0x7dfe <vfprintf+0x526>
    7dfa:	b7 c0       	rjmp	.+366    	; 0x7f6a <vfprintf+0x692>
    7dfc:	00 61       	ori	r16, 0x10	; 16
    7dfe:	04 ff       	sbrs	r16, 4
    7e00:	09 c0       	rjmp	.+18     	; 0x7e14 <vfprintf+0x53c>
    7e02:	04 60       	ori	r16, 0x04	; 4
    7e04:	07 c0       	rjmp	.+14     	; 0x7e14 <vfprintf+0x53c>
    7e06:	94 fe       	sbrs	r9, 4
    7e08:	08 c0       	rjmp	.+16     	; 0x7e1a <vfprintf+0x542>
    7e0a:	06 60       	ori	r16, 0x06	; 6
    7e0c:	06 c0       	rjmp	.+12     	; 0x7e1a <vfprintf+0x542>
    7e0e:	28 e0       	ldi	r18, 0x08	; 8
    7e10:	30 e0       	ldi	r19, 0x00	; 0
    7e12:	05 c0       	rjmp	.+10     	; 0x7e1e <vfprintf+0x546>
    7e14:	20 e1       	ldi	r18, 0x10	; 16
    7e16:	30 e0       	ldi	r19, 0x00	; 0
    7e18:	02 c0       	rjmp	.+4      	; 0x7e1e <vfprintf+0x546>
    7e1a:	20 e1       	ldi	r18, 0x10	; 16
    7e1c:	32 e0       	ldi	r19, 0x02	; 2
    7e1e:	56 01       	movw	r10, r12
    7e20:	07 ff       	sbrs	r16, 7
    7e22:	09 c0       	rjmp	.+18     	; 0x7e36 <vfprintf+0x55e>
    7e24:	84 e0       	ldi	r24, 0x04	; 4
    7e26:	a8 0e       	add	r10, r24
    7e28:	b1 1c       	adc	r11, r1
    7e2a:	f6 01       	movw	r30, r12
    7e2c:	60 81       	ld	r22, Z
    7e2e:	71 81       	ldd	r23, Z+1	; 0x01
    7e30:	82 81       	ldd	r24, Z+2	; 0x02
    7e32:	93 81       	ldd	r25, Z+3	; 0x03
    7e34:	08 c0       	rjmp	.+16     	; 0x7e46 <vfprintf+0x56e>
    7e36:	f2 e0       	ldi	r31, 0x02	; 2
    7e38:	af 0e       	add	r10, r31
    7e3a:	b1 1c       	adc	r11, r1
    7e3c:	f6 01       	movw	r30, r12
    7e3e:	60 81       	ld	r22, Z
    7e40:	71 81       	ldd	r23, Z+1	; 0x01
    7e42:	80 e0       	ldi	r24, 0x00	; 0
    7e44:	90 e0       	ldi	r25, 0x00	; 0
    7e46:	a3 01       	movw	r20, r6
    7e48:	ad d3       	rcall	.+1882   	; 0x85a4 <__ultoa_invert>
    7e4a:	c8 2e       	mov	r12, r24
    7e4c:	c6 18       	sub	r12, r6
    7e4e:	0f 77       	andi	r16, 0x7F	; 127
    7e50:	90 2e       	mov	r9, r16
    7e52:	96 fe       	sbrs	r9, 6
    7e54:	0b c0       	rjmp	.+22     	; 0x7e6c <vfprintf+0x594>
    7e56:	09 2d       	mov	r16, r9
    7e58:	0e 7f       	andi	r16, 0xFE	; 254
    7e5a:	c1 16       	cp	r12, r17
    7e5c:	50 f4       	brcc	.+20     	; 0x7e72 <vfprintf+0x59a>
    7e5e:	94 fe       	sbrs	r9, 4
    7e60:	0a c0       	rjmp	.+20     	; 0x7e76 <vfprintf+0x59e>
    7e62:	92 fc       	sbrc	r9, 2
    7e64:	08 c0       	rjmp	.+16     	; 0x7e76 <vfprintf+0x59e>
    7e66:	09 2d       	mov	r16, r9
    7e68:	0e 7e       	andi	r16, 0xEE	; 238
    7e6a:	05 c0       	rjmp	.+10     	; 0x7e76 <vfprintf+0x59e>
    7e6c:	dc 2c       	mov	r13, r12
    7e6e:	09 2d       	mov	r16, r9
    7e70:	03 c0       	rjmp	.+6      	; 0x7e78 <vfprintf+0x5a0>
    7e72:	dc 2c       	mov	r13, r12
    7e74:	01 c0       	rjmp	.+2      	; 0x7e78 <vfprintf+0x5a0>
    7e76:	d1 2e       	mov	r13, r17
    7e78:	04 ff       	sbrs	r16, 4
    7e7a:	0d c0       	rjmp	.+26     	; 0x7e96 <vfprintf+0x5be>
    7e7c:	fe 01       	movw	r30, r28
    7e7e:	ec 0d       	add	r30, r12
    7e80:	f1 1d       	adc	r31, r1
    7e82:	80 81       	ld	r24, Z
    7e84:	80 33       	cpi	r24, 0x30	; 48
    7e86:	11 f4       	brne	.+4      	; 0x7e8c <vfprintf+0x5b4>
    7e88:	09 7e       	andi	r16, 0xE9	; 233
    7e8a:	09 c0       	rjmp	.+18     	; 0x7e9e <vfprintf+0x5c6>
    7e8c:	02 ff       	sbrs	r16, 2
    7e8e:	06 c0       	rjmp	.+12     	; 0x7e9c <vfprintf+0x5c4>
    7e90:	d3 94       	inc	r13
    7e92:	d3 94       	inc	r13
    7e94:	04 c0       	rjmp	.+8      	; 0x7e9e <vfprintf+0x5c6>
    7e96:	80 2f       	mov	r24, r16
    7e98:	86 78       	andi	r24, 0x86	; 134
    7e9a:	09 f0       	breq	.+2      	; 0x7e9e <vfprintf+0x5c6>
    7e9c:	d3 94       	inc	r13
    7e9e:	03 fd       	sbrc	r16, 3
    7ea0:	10 c0       	rjmp	.+32     	; 0x7ec2 <vfprintf+0x5ea>
    7ea2:	00 ff       	sbrs	r16, 0
    7ea4:	06 c0       	rjmp	.+12     	; 0x7eb2 <vfprintf+0x5da>
    7ea6:	1c 2d       	mov	r17, r12
    7ea8:	d5 14       	cp	r13, r5
    7eaa:	78 f4       	brcc	.+30     	; 0x7eca <vfprintf+0x5f2>
    7eac:	15 0d       	add	r17, r5
    7eae:	1d 19       	sub	r17, r13
    7eb0:	0c c0       	rjmp	.+24     	; 0x7eca <vfprintf+0x5f2>
    7eb2:	d5 14       	cp	r13, r5
    7eb4:	50 f4       	brcc	.+20     	; 0x7eca <vfprintf+0x5f2>
    7eb6:	b7 01       	movw	r22, r14
    7eb8:	80 e2       	ldi	r24, 0x20	; 32
    7eba:	90 e0       	ldi	r25, 0x00	; 0
    7ebc:	c8 d2       	rcall	.+1424   	; 0x844e <fputc>
    7ebe:	d3 94       	inc	r13
    7ec0:	f8 cf       	rjmp	.-16     	; 0x7eb2 <vfprintf+0x5da>
    7ec2:	d5 14       	cp	r13, r5
    7ec4:	10 f4       	brcc	.+4      	; 0x7eca <vfprintf+0x5f2>
    7ec6:	5d 18       	sub	r5, r13
    7ec8:	01 c0       	rjmp	.+2      	; 0x7ecc <vfprintf+0x5f4>
    7eca:	51 2c       	mov	r5, r1
    7ecc:	04 ff       	sbrs	r16, 4
    7ece:	0f c0       	rjmp	.+30     	; 0x7eee <vfprintf+0x616>
    7ed0:	b7 01       	movw	r22, r14
    7ed2:	80 e3       	ldi	r24, 0x30	; 48
    7ed4:	90 e0       	ldi	r25, 0x00	; 0
    7ed6:	bb d2       	rcall	.+1398   	; 0x844e <fputc>
    7ed8:	02 ff       	sbrs	r16, 2
    7eda:	16 c0       	rjmp	.+44     	; 0x7f08 <vfprintf+0x630>
    7edc:	01 fd       	sbrc	r16, 1
    7ede:	03 c0       	rjmp	.+6      	; 0x7ee6 <vfprintf+0x60e>
    7ee0:	88 e7       	ldi	r24, 0x78	; 120
    7ee2:	90 e0       	ldi	r25, 0x00	; 0
    7ee4:	02 c0       	rjmp	.+4      	; 0x7eea <vfprintf+0x612>
    7ee6:	88 e5       	ldi	r24, 0x58	; 88
    7ee8:	90 e0       	ldi	r25, 0x00	; 0
    7eea:	b7 01       	movw	r22, r14
    7eec:	0c c0       	rjmp	.+24     	; 0x7f06 <vfprintf+0x62e>
    7eee:	80 2f       	mov	r24, r16
    7ef0:	86 78       	andi	r24, 0x86	; 134
    7ef2:	51 f0       	breq	.+20     	; 0x7f08 <vfprintf+0x630>
    7ef4:	01 ff       	sbrs	r16, 1
    7ef6:	02 c0       	rjmp	.+4      	; 0x7efc <vfprintf+0x624>
    7ef8:	8b e2       	ldi	r24, 0x2B	; 43
    7efa:	01 c0       	rjmp	.+2      	; 0x7efe <vfprintf+0x626>
    7efc:	80 e2       	ldi	r24, 0x20	; 32
    7efe:	07 fd       	sbrc	r16, 7
    7f00:	8d e2       	ldi	r24, 0x2D	; 45
    7f02:	b7 01       	movw	r22, r14
    7f04:	90 e0       	ldi	r25, 0x00	; 0
    7f06:	a3 d2       	rcall	.+1350   	; 0x844e <fputc>
    7f08:	c1 16       	cp	r12, r17
    7f0a:	30 f4       	brcc	.+12     	; 0x7f18 <vfprintf+0x640>
    7f0c:	b7 01       	movw	r22, r14
    7f0e:	80 e3       	ldi	r24, 0x30	; 48
    7f10:	90 e0       	ldi	r25, 0x00	; 0
    7f12:	9d d2       	rcall	.+1338   	; 0x844e <fputc>
    7f14:	11 50       	subi	r17, 0x01	; 1
    7f16:	f8 cf       	rjmp	.-16     	; 0x7f08 <vfprintf+0x630>
    7f18:	ca 94       	dec	r12
    7f1a:	f3 01       	movw	r30, r6
    7f1c:	ec 0d       	add	r30, r12
    7f1e:	f1 1d       	adc	r31, r1
    7f20:	80 81       	ld	r24, Z
    7f22:	b7 01       	movw	r22, r14
    7f24:	90 e0       	ldi	r25, 0x00	; 0
    7f26:	93 d2       	rcall	.+1318   	; 0x844e <fputc>
    7f28:	c1 10       	cpse	r12, r1
    7f2a:	f6 cf       	rjmp	.-20     	; 0x7f18 <vfprintf+0x640>
    7f2c:	15 c0       	rjmp	.+42     	; 0x7f58 <vfprintf+0x680>
    7f2e:	f4 e0       	ldi	r31, 0x04	; 4
    7f30:	f5 15       	cp	r31, r5
    7f32:	50 f5       	brcc	.+84     	; 0x7f88 <vfprintf+0x6b0>
    7f34:	84 e0       	ldi	r24, 0x04	; 4
    7f36:	58 1a       	sub	r5, r24
    7f38:	93 fe       	sbrs	r9, 3
    7f3a:	1e c0       	rjmp	.+60     	; 0x7f78 <vfprintf+0x6a0>
    7f3c:	01 11       	cpse	r16, r1
    7f3e:	25 c0       	rjmp	.+74     	; 0x7f8a <vfprintf+0x6b2>
    7f40:	2c 85       	ldd	r18, Y+12	; 0x0c
    7f42:	23 ff       	sbrs	r18, 3
    7f44:	27 c0       	rjmp	.+78     	; 0x7f94 <vfprintf+0x6bc>
    7f46:	04 ee       	ldi	r16, 0xE4	; 228
    7f48:	10 e0       	ldi	r17, 0x00	; 0
    7f4a:	39 2d       	mov	r19, r9
    7f4c:	30 71       	andi	r19, 0x10	; 16
    7f4e:	93 2e       	mov	r9, r19
    7f50:	f8 01       	movw	r30, r16
    7f52:	84 91       	lpm	r24, Z
    7f54:	81 11       	cpse	r24, r1
    7f56:	21 c0       	rjmp	.+66     	; 0x7f9a <vfprintf+0x6c2>
    7f58:	55 20       	and	r5, r5
    7f5a:	09 f4       	brne	.+2      	; 0x7f5e <vfprintf+0x686>
    7f5c:	fc cc       	rjmp	.-1544   	; 0x7956 <vfprintf+0x7e>
    7f5e:	b7 01       	movw	r22, r14
    7f60:	80 e2       	ldi	r24, 0x20	; 32
    7f62:	90 e0       	ldi	r25, 0x00	; 0
    7f64:	74 d2       	rcall	.+1256   	; 0x844e <fputc>
    7f66:	5a 94       	dec	r5
    7f68:	f7 cf       	rjmp	.-18     	; 0x7f58 <vfprintf+0x680>
    7f6a:	f7 01       	movw	r30, r14
    7f6c:	86 81       	ldd	r24, Z+6	; 0x06
    7f6e:	97 81       	ldd	r25, Z+7	; 0x07
    7f70:	23 c0       	rjmp	.+70     	; 0x7fb8 <vfprintf+0x6e0>
    7f72:	8f ef       	ldi	r24, 0xFF	; 255
    7f74:	9f ef       	ldi	r25, 0xFF	; 255
    7f76:	20 c0       	rjmp	.+64     	; 0x7fb8 <vfprintf+0x6e0>
    7f78:	b7 01       	movw	r22, r14
    7f7a:	80 e2       	ldi	r24, 0x20	; 32
    7f7c:	90 e0       	ldi	r25, 0x00	; 0
    7f7e:	67 d2       	rcall	.+1230   	; 0x844e <fputc>
    7f80:	5a 94       	dec	r5
    7f82:	51 10       	cpse	r5, r1
    7f84:	f9 cf       	rjmp	.-14     	; 0x7f78 <vfprintf+0x6a0>
    7f86:	da cf       	rjmp	.-76     	; 0x7f3c <vfprintf+0x664>
    7f88:	51 2c       	mov	r5, r1
    7f8a:	b7 01       	movw	r22, r14
    7f8c:	80 2f       	mov	r24, r16
    7f8e:	90 e0       	ldi	r25, 0x00	; 0
    7f90:	5e d2       	rcall	.+1212   	; 0x844e <fputc>
    7f92:	d6 cf       	rjmp	.-84     	; 0x7f40 <vfprintf+0x668>
    7f94:	08 ee       	ldi	r16, 0xE8	; 232
    7f96:	10 e0       	ldi	r17, 0x00	; 0
    7f98:	d8 cf       	rjmp	.-80     	; 0x7f4a <vfprintf+0x672>
    7f9a:	91 10       	cpse	r9, r1
    7f9c:	80 52       	subi	r24, 0x20	; 32
    7f9e:	b7 01       	movw	r22, r14
    7fa0:	90 e0       	ldi	r25, 0x00	; 0
    7fa2:	55 d2       	rcall	.+1194   	; 0x844e <fputc>
    7fa4:	0f 5f       	subi	r16, 0xFF	; 255
    7fa6:	1f 4f       	sbci	r17, 0xFF	; 255
    7fa8:	d3 cf       	rjmp	.-90     	; 0x7f50 <vfprintf+0x678>
    7faa:	23 e0       	ldi	r18, 0x03	; 3
    7fac:	25 15       	cp	r18, r5
    7fae:	10 f4       	brcc	.+4      	; 0x7fb4 <vfprintf+0x6dc>
    7fb0:	83 e0       	ldi	r24, 0x03	; 3
    7fb2:	c1 cf       	rjmp	.-126    	; 0x7f36 <vfprintf+0x65e>
    7fb4:	51 2c       	mov	r5, r1
    7fb6:	c4 cf       	rjmp	.-120    	; 0x7f40 <vfprintf+0x668>
    7fb8:	60 96       	adiw	r28, 0x10	; 16
    7fba:	0f b6       	in	r0, 0x3f	; 63
    7fbc:	f8 94       	cli
    7fbe:	de bf       	out	0x3e, r29	; 62
    7fc0:	0f be       	out	0x3f, r0	; 63
    7fc2:	cd bf       	out	0x3d, r28	; 61
    7fc4:	df 91       	pop	r29
    7fc6:	cf 91       	pop	r28
    7fc8:	1f 91       	pop	r17
    7fca:	0f 91       	pop	r16
    7fcc:	ff 90       	pop	r15
    7fce:	ef 90       	pop	r14
    7fd0:	df 90       	pop	r13
    7fd2:	cf 90       	pop	r12
    7fd4:	bf 90       	pop	r11
    7fd6:	af 90       	pop	r10
    7fd8:	9f 90       	pop	r9
    7fda:	8f 90       	pop	r8
    7fdc:	7f 90       	pop	r7
    7fde:	6f 90       	pop	r6
    7fe0:	5f 90       	pop	r5
    7fe2:	4f 90       	pop	r4
    7fe4:	3f 90       	pop	r3
    7fe6:	2f 90       	pop	r2
    7fe8:	08 95       	ret

00007fea <__mulsi3>:
    7fea:	db 01       	movw	r26, r22
    7fec:	8f 93       	push	r24
    7fee:	9f 93       	push	r25
    7ff0:	3c d0       	rcall	.+120    	; 0x806a <__muluhisi3>
    7ff2:	bf 91       	pop	r27
    7ff4:	af 91       	pop	r26
    7ff6:	a2 9f       	mul	r26, r18
    7ff8:	80 0d       	add	r24, r0
    7ffa:	91 1d       	adc	r25, r1
    7ffc:	a3 9f       	mul	r26, r19
    7ffe:	90 0d       	add	r25, r0
    8000:	b2 9f       	mul	r27, r18
    8002:	90 0d       	add	r25, r0
    8004:	11 24       	eor	r1, r1
    8006:	08 95       	ret

00008008 <__divmodsi4>:
    8008:	05 2e       	mov	r0, r21
    800a:	97 fb       	bst	r25, 7
    800c:	16 f4       	brtc	.+4      	; 0x8012 <__divmodsi4+0xa>
    800e:	00 94       	com	r0
    8010:	0f d0       	rcall	.+30     	; 0x8030 <__negsi2>
    8012:	57 fd       	sbrc	r21, 7
    8014:	05 d0       	rcall	.+10     	; 0x8020 <__divmodsi4_neg2>
    8016:	bd d0       	rcall	.+378    	; 0x8192 <__udivmodsi4>
    8018:	07 fc       	sbrc	r0, 7
    801a:	02 d0       	rcall	.+4      	; 0x8020 <__divmodsi4_neg2>
    801c:	46 f4       	brtc	.+16     	; 0x802e <__divmodsi4_exit>
    801e:	08 c0       	rjmp	.+16     	; 0x8030 <__negsi2>

00008020 <__divmodsi4_neg2>:
    8020:	50 95       	com	r21
    8022:	40 95       	com	r20
    8024:	30 95       	com	r19
    8026:	21 95       	neg	r18
    8028:	3f 4f       	sbci	r19, 0xFF	; 255
    802a:	4f 4f       	sbci	r20, 0xFF	; 255
    802c:	5f 4f       	sbci	r21, 0xFF	; 255

0000802e <__divmodsi4_exit>:
    802e:	08 95       	ret

00008030 <__negsi2>:
    8030:	90 95       	com	r25
    8032:	80 95       	com	r24
    8034:	70 95       	com	r23
    8036:	61 95       	neg	r22
    8038:	7f 4f       	sbci	r23, 0xFF	; 255
    803a:	8f 4f       	sbci	r24, 0xFF	; 255
    803c:	9f 4f       	sbci	r25, 0xFF	; 255
    803e:	08 95       	ret

00008040 <__umulhisi3>:
    8040:	a2 9f       	mul	r26, r18
    8042:	b0 01       	movw	r22, r0
    8044:	b3 9f       	mul	r27, r19
    8046:	c0 01       	movw	r24, r0
    8048:	a3 9f       	mul	r26, r19
    804a:	70 0d       	add	r23, r0
    804c:	81 1d       	adc	r24, r1
    804e:	11 24       	eor	r1, r1
    8050:	91 1d       	adc	r25, r1
    8052:	b2 9f       	mul	r27, r18
    8054:	70 0d       	add	r23, r0
    8056:	81 1d       	adc	r24, r1
    8058:	11 24       	eor	r1, r1
    805a:	91 1d       	adc	r25, r1
    805c:	08 95       	ret

0000805e <__usmulhisi3>:
    805e:	f0 df       	rcall	.-32     	; 0x8040 <__umulhisi3>

00008060 <__usmulhisi3_tail>:
    8060:	b7 ff       	sbrs	r27, 7
    8062:	08 95       	ret
    8064:	82 1b       	sub	r24, r18
    8066:	93 0b       	sbc	r25, r19
    8068:	08 95       	ret

0000806a <__muluhisi3>:
    806a:	ea df       	rcall	.-44     	; 0x8040 <__umulhisi3>
    806c:	a5 9f       	mul	r26, r21
    806e:	90 0d       	add	r25, r0
    8070:	b4 9f       	mul	r27, r20
    8072:	90 0d       	add	r25, r0
    8074:	a4 9f       	mul	r26, r20
    8076:	80 0d       	add	r24, r0
    8078:	91 1d       	adc	r25, r1
    807a:	11 24       	eor	r1, r1
    807c:	08 95       	ret

0000807e <__muldi3>:
    807e:	df 93       	push	r29
    8080:	cf 93       	push	r28
    8082:	1f 93       	push	r17
    8084:	0f 93       	push	r16
    8086:	9a 9d       	mul	r25, r10
    8088:	f0 2d       	mov	r31, r0
    808a:	21 9f       	mul	r18, r17
    808c:	f0 0d       	add	r31, r0
    808e:	8b 9d       	mul	r24, r11
    8090:	f0 0d       	add	r31, r0
    8092:	8a 9d       	mul	r24, r10
    8094:	e0 2d       	mov	r30, r0
    8096:	f1 0d       	add	r31, r1
    8098:	03 9f       	mul	r16, r19
    809a:	f0 0d       	add	r31, r0
    809c:	02 9f       	mul	r16, r18
    809e:	e0 0d       	add	r30, r0
    80a0:	f1 1d       	adc	r31, r1
    80a2:	4e 9d       	mul	r20, r14
    80a4:	e0 0d       	add	r30, r0
    80a6:	f1 1d       	adc	r31, r1
    80a8:	5e 9d       	mul	r21, r14
    80aa:	f0 0d       	add	r31, r0
    80ac:	4f 9d       	mul	r20, r15
    80ae:	f0 0d       	add	r31, r0
    80b0:	7f 93       	push	r23
    80b2:	6f 93       	push	r22
    80b4:	bf 92       	push	r11
    80b6:	af 92       	push	r10
    80b8:	5f 93       	push	r21
    80ba:	4f 93       	push	r20
    80bc:	d5 01       	movw	r26, r10
    80be:	c0 df       	rcall	.-128    	; 0x8040 <__umulhisi3>
    80c0:	8b 01       	movw	r16, r22
    80c2:	ac 01       	movw	r20, r24
    80c4:	d7 01       	movw	r26, r14
    80c6:	bc df       	rcall	.-136    	; 0x8040 <__umulhisi3>
    80c8:	eb 01       	movw	r28, r22
    80ca:	e8 0f       	add	r30, r24
    80cc:	f9 1f       	adc	r31, r25
    80ce:	d6 01       	movw	r26, r12
    80d0:	1f d0       	rcall	.+62     	; 0x8110 <__muldi3_6>
    80d2:	2f 91       	pop	r18
    80d4:	3f 91       	pop	r19
    80d6:	d6 01       	movw	r26, r12
    80d8:	b3 df       	rcall	.-154    	; 0x8040 <__umulhisi3>
    80da:	c6 0f       	add	r28, r22
    80dc:	d7 1f       	adc	r29, r23
    80de:	e8 1f       	adc	r30, r24
    80e0:	f9 1f       	adc	r31, r25
    80e2:	af 91       	pop	r26
    80e4:	bf 91       	pop	r27
    80e6:	14 d0       	rcall	.+40     	; 0x8110 <__muldi3_6>
    80e8:	2f 91       	pop	r18
    80ea:	3f 91       	pop	r19
    80ec:	a9 df       	rcall	.-174    	; 0x8040 <__umulhisi3>
    80ee:	c6 0f       	add	r28, r22
    80f0:	d7 1f       	adc	r29, r23
    80f2:	e8 1f       	adc	r30, r24
    80f4:	f9 1f       	adc	r31, r25
    80f6:	d6 01       	movw	r26, r12
    80f8:	a3 df       	rcall	.-186    	; 0x8040 <__umulhisi3>
    80fa:	e6 0f       	add	r30, r22
    80fc:	f7 1f       	adc	r31, r23
    80fe:	98 01       	movw	r18, r16
    8100:	be 01       	movw	r22, r28
    8102:	cf 01       	movw	r24, r30
    8104:	11 24       	eor	r1, r1
    8106:	0f 91       	pop	r16
    8108:	1f 91       	pop	r17
    810a:	cf 91       	pop	r28
    810c:	df 91       	pop	r29
    810e:	08 95       	ret

00008110 <__muldi3_6>:
    8110:	97 df       	rcall	.-210    	; 0x8040 <__umulhisi3>
    8112:	46 0f       	add	r20, r22
    8114:	57 1f       	adc	r21, r23
    8116:	c8 1f       	adc	r28, r24
    8118:	d9 1f       	adc	r29, r25
    811a:	08 f4       	brcc	.+2      	; 0x811e <__muldi3_6+0xe>
    811c:	31 96       	adiw	r30, 0x01	; 1
    811e:	08 95       	ret

00008120 <__ashrdi3>:
    8120:	97 fb       	bst	r25, 7
    8122:	10 f8       	bld	r1, 0

00008124 <__lshrdi3>:
    8124:	16 94       	lsr	r1
    8126:	00 08       	sbc	r0, r0
    8128:	0f 93       	push	r16
    812a:	08 30       	cpi	r16, 0x08	; 8
    812c:	98 f0       	brcs	.+38     	; 0x8154 <__lshrdi3+0x30>
    812e:	08 50       	subi	r16, 0x08	; 8
    8130:	23 2f       	mov	r18, r19
    8132:	34 2f       	mov	r19, r20
    8134:	45 2f       	mov	r20, r21
    8136:	56 2f       	mov	r21, r22
    8138:	67 2f       	mov	r22, r23
    813a:	78 2f       	mov	r23, r24
    813c:	89 2f       	mov	r24, r25
    813e:	90 2d       	mov	r25, r0
    8140:	f4 cf       	rjmp	.-24     	; 0x812a <__lshrdi3+0x6>
    8142:	05 94       	asr	r0
    8144:	97 95       	ror	r25
    8146:	87 95       	ror	r24
    8148:	77 95       	ror	r23
    814a:	67 95       	ror	r22
    814c:	57 95       	ror	r21
    814e:	47 95       	ror	r20
    8150:	37 95       	ror	r19
    8152:	27 95       	ror	r18
    8154:	0a 95       	dec	r16
    8156:	aa f7       	brpl	.-22     	; 0x8142 <__lshrdi3+0x1e>
    8158:	0f 91       	pop	r16
    815a:	08 95       	ret

0000815c <__adddi3>:
    815c:	2a 0d       	add	r18, r10
    815e:	3b 1d       	adc	r19, r11
    8160:	4c 1d       	adc	r20, r12
    8162:	5d 1d       	adc	r21, r13
    8164:	6e 1d       	adc	r22, r14
    8166:	7f 1d       	adc	r23, r15
    8168:	80 1f       	adc	r24, r16
    816a:	91 1f       	adc	r25, r17
    816c:	08 95       	ret

0000816e <__subdi3>:
    816e:	2a 19       	sub	r18, r10
    8170:	3b 09       	sbc	r19, r11
    8172:	4c 09       	sbc	r20, r12
    8174:	5d 09       	sbc	r21, r13
    8176:	6e 09       	sbc	r22, r14
    8178:	7f 09       	sbc	r23, r15
    817a:	80 0b       	sbc	r24, r16
    817c:	91 0b       	sbc	r25, r17
    817e:	08 95       	ret

00008180 <__cmpdi2>:
    8180:	2a 15       	cp	r18, r10
    8182:	3b 05       	cpc	r19, r11
    8184:	4c 05       	cpc	r20, r12
    8186:	5d 05       	cpc	r21, r13
    8188:	6e 05       	cpc	r22, r14
    818a:	7f 05       	cpc	r23, r15
    818c:	80 07       	cpc	r24, r16
    818e:	91 07       	cpc	r25, r17
    8190:	08 95       	ret

00008192 <__udivmodsi4>:
    8192:	a1 e2       	ldi	r26, 0x21	; 33
    8194:	1a 2e       	mov	r1, r26
    8196:	aa 1b       	sub	r26, r26
    8198:	bb 1b       	sub	r27, r27
    819a:	fd 01       	movw	r30, r26
    819c:	0d c0       	rjmp	.+26     	; 0x81b8 <__udivmodsi4_ep>

0000819e <__udivmodsi4_loop>:
    819e:	aa 1f       	adc	r26, r26
    81a0:	bb 1f       	adc	r27, r27
    81a2:	ee 1f       	adc	r30, r30
    81a4:	ff 1f       	adc	r31, r31
    81a6:	a2 17       	cp	r26, r18
    81a8:	b3 07       	cpc	r27, r19
    81aa:	e4 07       	cpc	r30, r20
    81ac:	f5 07       	cpc	r31, r21
    81ae:	20 f0       	brcs	.+8      	; 0x81b8 <__udivmodsi4_ep>
    81b0:	a2 1b       	sub	r26, r18
    81b2:	b3 0b       	sbc	r27, r19
    81b4:	e4 0b       	sbc	r30, r20
    81b6:	f5 0b       	sbc	r31, r21

000081b8 <__udivmodsi4_ep>:
    81b8:	66 1f       	adc	r22, r22
    81ba:	77 1f       	adc	r23, r23
    81bc:	88 1f       	adc	r24, r24
    81be:	99 1f       	adc	r25, r25
    81c0:	1a 94       	dec	r1
    81c2:	69 f7       	brne	.-38     	; 0x819e <__udivmodsi4_loop>
    81c4:	60 95       	com	r22
    81c6:	70 95       	com	r23
    81c8:	80 95       	com	r24
    81ca:	90 95       	com	r25
    81cc:	9b 01       	movw	r18, r22
    81ce:	ac 01       	movw	r20, r24
    81d0:	bd 01       	movw	r22, r26
    81d2:	cf 01       	movw	r24, r30
    81d4:	08 95       	ret

000081d6 <atoi>:
    81d6:	fc 01       	movw	r30, r24
    81d8:	88 27       	eor	r24, r24
    81da:	99 27       	eor	r25, r25
    81dc:	e8 94       	clt
    81de:	21 91       	ld	r18, Z+
    81e0:	20 32       	cpi	r18, 0x20	; 32
    81e2:	e9 f3       	breq	.-6      	; 0x81de <atoi+0x8>
    81e4:	29 30       	cpi	r18, 0x09	; 9
    81e6:	10 f0       	brcs	.+4      	; 0x81ec <atoi+0x16>
    81e8:	2e 30       	cpi	r18, 0x0E	; 14
    81ea:	c8 f3       	brcs	.-14     	; 0x81de <atoi+0x8>
    81ec:	2b 32       	cpi	r18, 0x2B	; 43
    81ee:	39 f0       	breq	.+14     	; 0x81fe <atoi+0x28>
    81f0:	2d 32       	cpi	r18, 0x2D	; 45
    81f2:	31 f4       	brne	.+12     	; 0x8200 <atoi+0x2a>
    81f4:	68 94       	set
    81f6:	03 c0       	rjmp	.+6      	; 0x81fe <atoi+0x28>
    81f8:	22 d1       	rcall	.+580    	; 0x843e <__mulhi_const_10>
    81fa:	82 0f       	add	r24, r18
    81fc:	91 1d       	adc	r25, r1
    81fe:	21 91       	ld	r18, Z+
    8200:	20 53       	subi	r18, 0x30	; 48
    8202:	2a 30       	cpi	r18, 0x0A	; 10
    8204:	c8 f3       	brcs	.-14     	; 0x81f8 <atoi+0x22>
    8206:	1e f4       	brtc	.+6      	; 0x820e <atoi+0x38>
    8208:	90 95       	com	r25
    820a:	81 95       	neg	r24
    820c:	9f 4f       	sbci	r25, 0xFF	; 255
    820e:	08 95       	ret

00008210 <__ftoa_engine>:
    8210:	28 30       	cpi	r18, 0x08	; 8
    8212:	08 f0       	brcs	.+2      	; 0x8216 <__ftoa_engine+0x6>
    8214:	27 e0       	ldi	r18, 0x07	; 7
    8216:	33 27       	eor	r19, r19
    8218:	da 01       	movw	r26, r20
    821a:	99 0f       	add	r25, r25
    821c:	31 1d       	adc	r19, r1
    821e:	87 fd       	sbrc	r24, 7
    8220:	91 60       	ori	r25, 0x01	; 1
    8222:	00 96       	adiw	r24, 0x00	; 0
    8224:	61 05       	cpc	r22, r1
    8226:	71 05       	cpc	r23, r1
    8228:	39 f4       	brne	.+14     	; 0x8238 <__ftoa_engine+0x28>
    822a:	32 60       	ori	r19, 0x02	; 2
    822c:	2e 5f       	subi	r18, 0xFE	; 254
    822e:	3d 93       	st	X+, r19
    8230:	30 e3       	ldi	r19, 0x30	; 48
    8232:	2a 95       	dec	r18
    8234:	e1 f7       	brne	.-8      	; 0x822e <__ftoa_engine+0x1e>
    8236:	08 95       	ret
    8238:	9f 3f       	cpi	r25, 0xFF	; 255
    823a:	30 f0       	brcs	.+12     	; 0x8248 <__ftoa_engine+0x38>
    823c:	80 38       	cpi	r24, 0x80	; 128
    823e:	71 05       	cpc	r23, r1
    8240:	61 05       	cpc	r22, r1
    8242:	09 f0       	breq	.+2      	; 0x8246 <__ftoa_engine+0x36>
    8244:	3c 5f       	subi	r19, 0xFC	; 252
    8246:	3c 5f       	subi	r19, 0xFC	; 252
    8248:	3d 93       	st	X+, r19
    824a:	91 30       	cpi	r25, 0x01	; 1
    824c:	08 f0       	brcs	.+2      	; 0x8250 <__ftoa_engine+0x40>
    824e:	80 68       	ori	r24, 0x80	; 128
    8250:	91 1d       	adc	r25, r1
    8252:	df 93       	push	r29
    8254:	cf 93       	push	r28
    8256:	1f 93       	push	r17
    8258:	0f 93       	push	r16
    825a:	ff 92       	push	r15
    825c:	ef 92       	push	r14
    825e:	19 2f       	mov	r17, r25
    8260:	98 7f       	andi	r25, 0xF8	; 248
    8262:	96 95       	lsr	r25
    8264:	e9 2f       	mov	r30, r25
    8266:	96 95       	lsr	r25
    8268:	96 95       	lsr	r25
    826a:	e9 0f       	add	r30, r25
    826c:	ff 27       	eor	r31, r31
    826e:	ea 5b       	subi	r30, 0xBA	; 186
    8270:	fe 4f       	sbci	r31, 0xFE	; 254
    8272:	99 27       	eor	r25, r25
    8274:	33 27       	eor	r19, r19
    8276:	ee 24       	eor	r14, r14
    8278:	ff 24       	eor	r15, r15
    827a:	a7 01       	movw	r20, r14
    827c:	e7 01       	movw	r28, r14
    827e:	05 90       	lpm	r0, Z+
    8280:	08 94       	sec
    8282:	07 94       	ror	r0
    8284:	28 f4       	brcc	.+10     	; 0x8290 <__ftoa_engine+0x80>
    8286:	36 0f       	add	r19, r22
    8288:	e7 1e       	adc	r14, r23
    828a:	f8 1e       	adc	r15, r24
    828c:	49 1f       	adc	r20, r25
    828e:	51 1d       	adc	r21, r1
    8290:	66 0f       	add	r22, r22
    8292:	77 1f       	adc	r23, r23
    8294:	88 1f       	adc	r24, r24
    8296:	99 1f       	adc	r25, r25
    8298:	06 94       	lsr	r0
    829a:	a1 f7       	brne	.-24     	; 0x8284 <__ftoa_engine+0x74>
    829c:	05 90       	lpm	r0, Z+
    829e:	07 94       	ror	r0
    82a0:	28 f4       	brcc	.+10     	; 0x82ac <__ftoa_engine+0x9c>
    82a2:	e7 0e       	add	r14, r23
    82a4:	f8 1e       	adc	r15, r24
    82a6:	49 1f       	adc	r20, r25
    82a8:	56 1f       	adc	r21, r22
    82aa:	c1 1d       	adc	r28, r1
    82ac:	77 0f       	add	r23, r23
    82ae:	88 1f       	adc	r24, r24
    82b0:	99 1f       	adc	r25, r25
    82b2:	66 1f       	adc	r22, r22
    82b4:	06 94       	lsr	r0
    82b6:	a1 f7       	brne	.-24     	; 0x82a0 <__ftoa_engine+0x90>
    82b8:	05 90       	lpm	r0, Z+
    82ba:	07 94       	ror	r0
    82bc:	28 f4       	brcc	.+10     	; 0x82c8 <__ftoa_engine+0xb8>
    82be:	f8 0e       	add	r15, r24
    82c0:	49 1f       	adc	r20, r25
    82c2:	56 1f       	adc	r21, r22
    82c4:	c7 1f       	adc	r28, r23
    82c6:	d1 1d       	adc	r29, r1
    82c8:	88 0f       	add	r24, r24
    82ca:	99 1f       	adc	r25, r25
    82cc:	66 1f       	adc	r22, r22
    82ce:	77 1f       	adc	r23, r23
    82d0:	06 94       	lsr	r0
    82d2:	a1 f7       	brne	.-24     	; 0x82bc <__ftoa_engine+0xac>
    82d4:	05 90       	lpm	r0, Z+
    82d6:	07 94       	ror	r0
    82d8:	20 f4       	brcc	.+8      	; 0x82e2 <__ftoa_engine+0xd2>
    82da:	49 0f       	add	r20, r25
    82dc:	56 1f       	adc	r21, r22
    82de:	c7 1f       	adc	r28, r23
    82e0:	d8 1f       	adc	r29, r24
    82e2:	99 0f       	add	r25, r25
    82e4:	66 1f       	adc	r22, r22
    82e6:	77 1f       	adc	r23, r23
    82e8:	88 1f       	adc	r24, r24
    82ea:	06 94       	lsr	r0
    82ec:	a9 f7       	brne	.-22     	; 0x82d8 <__ftoa_engine+0xc8>
    82ee:	84 91       	lpm	r24, Z
    82f0:	10 95       	com	r17
    82f2:	17 70       	andi	r17, 0x07	; 7
    82f4:	41 f0       	breq	.+16     	; 0x8306 <__ftoa_engine+0xf6>
    82f6:	d6 95       	lsr	r29
    82f8:	c7 95       	ror	r28
    82fa:	57 95       	ror	r21
    82fc:	47 95       	ror	r20
    82fe:	f7 94       	ror	r15
    8300:	e7 94       	ror	r14
    8302:	1a 95       	dec	r17
    8304:	c1 f7       	brne	.-16     	; 0x82f6 <__ftoa_engine+0xe6>
    8306:	ec ee       	ldi	r30, 0xEC	; 236
    8308:	f0 e0       	ldi	r31, 0x00	; 0
    830a:	68 94       	set
    830c:	15 90       	lpm	r1, Z+
    830e:	15 91       	lpm	r17, Z+
    8310:	35 91       	lpm	r19, Z+
    8312:	65 91       	lpm	r22, Z+
    8314:	95 91       	lpm	r25, Z+
    8316:	05 90       	lpm	r0, Z+
    8318:	7f e2       	ldi	r23, 0x2F	; 47
    831a:	73 95       	inc	r23
    831c:	e1 18       	sub	r14, r1
    831e:	f1 0a       	sbc	r15, r17
    8320:	43 0b       	sbc	r20, r19
    8322:	56 0b       	sbc	r21, r22
    8324:	c9 0b       	sbc	r28, r25
    8326:	d0 09       	sbc	r29, r0
    8328:	c0 f7       	brcc	.-16     	; 0x831a <__ftoa_engine+0x10a>
    832a:	e1 0c       	add	r14, r1
    832c:	f1 1e       	adc	r15, r17
    832e:	43 1f       	adc	r20, r19
    8330:	56 1f       	adc	r21, r22
    8332:	c9 1f       	adc	r28, r25
    8334:	d0 1d       	adc	r29, r0
    8336:	7e f4       	brtc	.+30     	; 0x8356 <__ftoa_engine+0x146>
    8338:	70 33       	cpi	r23, 0x30	; 48
    833a:	11 f4       	brne	.+4      	; 0x8340 <__ftoa_engine+0x130>
    833c:	8a 95       	dec	r24
    833e:	e6 cf       	rjmp	.-52     	; 0x830c <__ftoa_engine+0xfc>
    8340:	e8 94       	clt
    8342:	01 50       	subi	r16, 0x01	; 1
    8344:	30 f0       	brcs	.+12     	; 0x8352 <__ftoa_engine+0x142>
    8346:	08 0f       	add	r16, r24
    8348:	0a f4       	brpl	.+2      	; 0x834c <__ftoa_engine+0x13c>
    834a:	00 27       	eor	r16, r16
    834c:	02 17       	cp	r16, r18
    834e:	08 f4       	brcc	.+2      	; 0x8352 <__ftoa_engine+0x142>
    8350:	20 2f       	mov	r18, r16
    8352:	23 95       	inc	r18
    8354:	02 2f       	mov	r16, r18
    8356:	7a 33       	cpi	r23, 0x3A	; 58
    8358:	28 f0       	brcs	.+10     	; 0x8364 <__ftoa_engine+0x154>
    835a:	79 e3       	ldi	r23, 0x39	; 57
    835c:	7d 93       	st	X+, r23
    835e:	2a 95       	dec	r18
    8360:	e9 f7       	brne	.-6      	; 0x835c <__ftoa_engine+0x14c>
    8362:	10 c0       	rjmp	.+32     	; 0x8384 <__ftoa_engine+0x174>
    8364:	7d 93       	st	X+, r23
    8366:	2a 95       	dec	r18
    8368:	89 f6       	brne	.-94     	; 0x830c <__ftoa_engine+0xfc>
    836a:	06 94       	lsr	r0
    836c:	97 95       	ror	r25
    836e:	67 95       	ror	r22
    8370:	37 95       	ror	r19
    8372:	17 95       	ror	r17
    8374:	17 94       	ror	r1
    8376:	e1 18       	sub	r14, r1
    8378:	f1 0a       	sbc	r15, r17
    837a:	43 0b       	sbc	r20, r19
    837c:	56 0b       	sbc	r21, r22
    837e:	c9 0b       	sbc	r28, r25
    8380:	d0 09       	sbc	r29, r0
    8382:	98 f0       	brcs	.+38     	; 0x83aa <__ftoa_engine+0x19a>
    8384:	23 95       	inc	r18
    8386:	7e 91       	ld	r23, -X
    8388:	73 95       	inc	r23
    838a:	7a 33       	cpi	r23, 0x3A	; 58
    838c:	08 f0       	brcs	.+2      	; 0x8390 <__ftoa_engine+0x180>
    838e:	70 e3       	ldi	r23, 0x30	; 48
    8390:	7c 93       	st	X, r23
    8392:	20 13       	cpse	r18, r16
    8394:	b8 f7       	brcc	.-18     	; 0x8384 <__ftoa_engine+0x174>
    8396:	7e 91       	ld	r23, -X
    8398:	70 61       	ori	r23, 0x10	; 16
    839a:	7d 93       	st	X+, r23
    839c:	30 f0       	brcs	.+12     	; 0x83aa <__ftoa_engine+0x19a>
    839e:	83 95       	inc	r24
    83a0:	71 e3       	ldi	r23, 0x31	; 49
    83a2:	7d 93       	st	X+, r23
    83a4:	70 e3       	ldi	r23, 0x30	; 48
    83a6:	2a 95       	dec	r18
    83a8:	e1 f7       	brne	.-8      	; 0x83a2 <__ftoa_engine+0x192>
    83aa:	11 24       	eor	r1, r1
    83ac:	ef 90       	pop	r14
    83ae:	ff 90       	pop	r15
    83b0:	0f 91       	pop	r16
    83b2:	1f 91       	pop	r17
    83b4:	cf 91       	pop	r28
    83b6:	df 91       	pop	r29
    83b8:	99 27       	eor	r25, r25
    83ba:	87 fd       	sbrc	r24, 7
    83bc:	90 95       	com	r25
    83be:	08 95       	ret

000083c0 <strcpy_P>:
    83c0:	fb 01       	movw	r30, r22
    83c2:	dc 01       	movw	r26, r24
    83c4:	05 90       	lpm	r0, Z+
    83c6:	0d 92       	st	X+, r0
    83c8:	00 20       	and	r0, r0
    83ca:	e1 f7       	brne	.-8      	; 0x83c4 <strcpy_P+0x4>
    83cc:	08 95       	ret

000083ce <strnlen_P>:
    83ce:	fc 01       	movw	r30, r24
    83d0:	05 90       	lpm	r0, Z+
    83d2:	61 50       	subi	r22, 0x01	; 1
    83d4:	70 40       	sbci	r23, 0x00	; 0
    83d6:	01 10       	cpse	r0, r1
    83d8:	d8 f7       	brcc	.-10     	; 0x83d0 <strnlen_P+0x2>
    83da:	80 95       	com	r24
    83dc:	90 95       	com	r25
    83de:	8e 0f       	add	r24, r30
    83e0:	9f 1f       	adc	r25, r31
    83e2:	08 95       	ret

000083e4 <memcpy>:
    83e4:	fb 01       	movw	r30, r22
    83e6:	dc 01       	movw	r26, r24
    83e8:	02 c0       	rjmp	.+4      	; 0x83ee <memcpy+0xa>
    83ea:	01 90       	ld	r0, Z+
    83ec:	0d 92       	st	X+, r0
    83ee:	41 50       	subi	r20, 0x01	; 1
    83f0:	50 40       	sbci	r21, 0x00	; 0
    83f2:	d8 f7       	brcc	.-10     	; 0x83ea <memcpy+0x6>
    83f4:	08 95       	ret

000083f6 <memset>:
    83f6:	dc 01       	movw	r26, r24
    83f8:	01 c0       	rjmp	.+2      	; 0x83fc <memset+0x6>
    83fa:	6d 93       	st	X+, r22
    83fc:	41 50       	subi	r20, 0x01	; 1
    83fe:	50 40       	sbci	r21, 0x00	; 0
    8400:	e0 f7       	brcc	.-8      	; 0x83fa <memset+0x4>
    8402:	08 95       	ret

00008404 <strcmp>:
    8404:	fb 01       	movw	r30, r22
    8406:	dc 01       	movw	r26, r24
    8408:	8d 91       	ld	r24, X+
    840a:	01 90       	ld	r0, Z+
    840c:	80 19       	sub	r24, r0
    840e:	01 10       	cpse	r0, r1
    8410:	d9 f3       	breq	.-10     	; 0x8408 <strcmp+0x4>
    8412:	99 0b       	sbc	r25, r25
    8414:	08 95       	ret

00008416 <strlen>:
    8416:	fc 01       	movw	r30, r24
    8418:	01 90       	ld	r0, Z+
    841a:	00 20       	and	r0, r0
    841c:	e9 f7       	brne	.-6      	; 0x8418 <strlen+0x2>
    841e:	80 95       	com	r24
    8420:	90 95       	com	r25
    8422:	8e 0f       	add	r24, r30
    8424:	9f 1f       	adc	r25, r31
    8426:	08 95       	ret

00008428 <strnlen>:
    8428:	fc 01       	movw	r30, r24
    842a:	61 50       	subi	r22, 0x01	; 1
    842c:	70 40       	sbci	r23, 0x00	; 0
    842e:	01 90       	ld	r0, Z+
    8430:	01 10       	cpse	r0, r1
    8432:	d8 f7       	brcc	.-10     	; 0x842a <strnlen+0x2>
    8434:	80 95       	com	r24
    8436:	90 95       	com	r25
    8438:	8e 0f       	add	r24, r30
    843a:	9f 1f       	adc	r25, r31
    843c:	08 95       	ret

0000843e <__mulhi_const_10>:
    843e:	7a e0       	ldi	r23, 0x0A	; 10
    8440:	97 9f       	mul	r25, r23
    8442:	90 2d       	mov	r25, r0
    8444:	87 9f       	mul	r24, r23
    8446:	80 2d       	mov	r24, r0
    8448:	91 0d       	add	r25, r1
    844a:	11 24       	eor	r1, r1
    844c:	08 95       	ret

0000844e <fputc>:
    844e:	0f 93       	push	r16
    8450:	1f 93       	push	r17
    8452:	cf 93       	push	r28
    8454:	df 93       	push	r29
    8456:	fb 01       	movw	r30, r22
    8458:	23 81       	ldd	r18, Z+3	; 0x03
    845a:	21 fd       	sbrc	r18, 1
    845c:	03 c0       	rjmp	.+6      	; 0x8464 <fputc+0x16>
    845e:	8f ef       	ldi	r24, 0xFF	; 255
    8460:	9f ef       	ldi	r25, 0xFF	; 255
    8462:	2c c0       	rjmp	.+88     	; 0x84bc <fputc+0x6e>
    8464:	22 ff       	sbrs	r18, 2
    8466:	16 c0       	rjmp	.+44     	; 0x8494 <fputc+0x46>
    8468:	46 81       	ldd	r20, Z+6	; 0x06
    846a:	57 81       	ldd	r21, Z+7	; 0x07
    846c:	24 81       	ldd	r18, Z+4	; 0x04
    846e:	35 81       	ldd	r19, Z+5	; 0x05
    8470:	42 17       	cp	r20, r18
    8472:	53 07       	cpc	r21, r19
    8474:	44 f4       	brge	.+16     	; 0x8486 <fputc+0x38>
    8476:	a0 81       	ld	r26, Z
    8478:	b1 81       	ldd	r27, Z+1	; 0x01
    847a:	9d 01       	movw	r18, r26
    847c:	2f 5f       	subi	r18, 0xFF	; 255
    847e:	3f 4f       	sbci	r19, 0xFF	; 255
    8480:	31 83       	std	Z+1, r19	; 0x01
    8482:	20 83       	st	Z, r18
    8484:	8c 93       	st	X, r24
    8486:	26 81       	ldd	r18, Z+6	; 0x06
    8488:	37 81       	ldd	r19, Z+7	; 0x07
    848a:	2f 5f       	subi	r18, 0xFF	; 255
    848c:	3f 4f       	sbci	r19, 0xFF	; 255
    848e:	37 83       	std	Z+7, r19	; 0x07
    8490:	26 83       	std	Z+6, r18	; 0x06
    8492:	14 c0       	rjmp	.+40     	; 0x84bc <fputc+0x6e>
    8494:	8b 01       	movw	r16, r22
    8496:	ec 01       	movw	r28, r24
    8498:	fb 01       	movw	r30, r22
    849a:	00 84       	ldd	r0, Z+8	; 0x08
    849c:	f1 85       	ldd	r31, Z+9	; 0x09
    849e:	e0 2d       	mov	r30, r0
    84a0:	19 95       	eicall
    84a2:	89 2b       	or	r24, r25
    84a4:	e1 f6       	brne	.-72     	; 0x845e <fputc+0x10>
    84a6:	d8 01       	movw	r26, r16
    84a8:	16 96       	adiw	r26, 0x06	; 6
    84aa:	8d 91       	ld	r24, X+
    84ac:	9c 91       	ld	r25, X
    84ae:	17 97       	sbiw	r26, 0x07	; 7
    84b0:	01 96       	adiw	r24, 0x01	; 1
    84b2:	17 96       	adiw	r26, 0x07	; 7
    84b4:	9c 93       	st	X, r25
    84b6:	8e 93       	st	-X, r24
    84b8:	16 97       	sbiw	r26, 0x06	; 6
    84ba:	ce 01       	movw	r24, r28
    84bc:	df 91       	pop	r29
    84be:	cf 91       	pop	r28
    84c0:	1f 91       	pop	r17
    84c2:	0f 91       	pop	r16
    84c4:	08 95       	ret

000084c6 <printf>:
    84c6:	cf 93       	push	r28
    84c8:	df 93       	push	r29
    84ca:	cd b7       	in	r28, 0x3d	; 61
    84cc:	de b7       	in	r29, 0x3e	; 62
    84ce:	ae 01       	movw	r20, r28
    84d0:	4a 5f       	subi	r20, 0xFA	; 250
    84d2:	5f 4f       	sbci	r21, 0xFF	; 255
    84d4:	fa 01       	movw	r30, r20
    84d6:	61 91       	ld	r22, Z+
    84d8:	71 91       	ld	r23, Z+
    84da:	af 01       	movw	r20, r30
    84dc:	80 91 75 16 	lds	r24, 0x1675	; 0x801675 <__iob+0x2>
    84e0:	90 91 76 16 	lds	r25, 0x1676	; 0x801676 <__iob+0x3>
    84e4:	f9 d9       	rcall	.-3086   	; 0x78d8 <vfprintf>
    84e6:	df 91       	pop	r29
    84e8:	cf 91       	pop	r28
    84ea:	08 95       	ret

000084ec <printf_P>:
    84ec:	0f 93       	push	r16
    84ee:	1f 93       	push	r17
    84f0:	cf 93       	push	r28
    84f2:	df 93       	push	r29
    84f4:	cd b7       	in	r28, 0x3d	; 61
    84f6:	de b7       	in	r29, 0x3e	; 62
    84f8:	ae 01       	movw	r20, r28
    84fa:	48 5f       	subi	r20, 0xF8	; 248
    84fc:	5f 4f       	sbci	r21, 0xFF	; 255
    84fe:	da 01       	movw	r26, r20
    8500:	6d 91       	ld	r22, X+
    8502:	7d 91       	ld	r23, X+
    8504:	ad 01       	movw	r20, r26
    8506:	03 e7       	ldi	r16, 0x73	; 115
    8508:	16 e1       	ldi	r17, 0x16	; 22
    850a:	f8 01       	movw	r30, r16
    850c:	82 81       	ldd	r24, Z+2	; 0x02
    850e:	93 81       	ldd	r25, Z+3	; 0x03
    8510:	dc 01       	movw	r26, r24
    8512:	13 96       	adiw	r26, 0x03	; 3
    8514:	2c 91       	ld	r18, X
    8516:	13 97       	sbiw	r26, 0x03	; 3
    8518:	28 60       	ori	r18, 0x08	; 8
    851a:	13 96       	adiw	r26, 0x03	; 3
    851c:	2c 93       	st	X, r18
    851e:	dc d9       	rcall	.-3144   	; 0x78d8 <vfprintf>
    8520:	d8 01       	movw	r26, r16
    8522:	12 96       	adiw	r26, 0x02	; 2
    8524:	ed 91       	ld	r30, X+
    8526:	fc 91       	ld	r31, X
    8528:	13 97       	sbiw	r26, 0x03	; 3
    852a:	23 81       	ldd	r18, Z+3	; 0x03
    852c:	27 7f       	andi	r18, 0xF7	; 247
    852e:	23 83       	std	Z+3, r18	; 0x03
    8530:	df 91       	pop	r29
    8532:	cf 91       	pop	r28
    8534:	1f 91       	pop	r17
    8536:	0f 91       	pop	r16
    8538:	08 95       	ret

0000853a <putchar>:
    853a:	60 91 75 16 	lds	r22, 0x1675	; 0x801675 <__iob+0x2>
    853e:	70 91 76 16 	lds	r23, 0x1676	; 0x801676 <__iob+0x3>
    8542:	85 cf       	rjmp	.-246    	; 0x844e <fputc>

00008544 <puts>:
    8544:	0f 93       	push	r16
    8546:	1f 93       	push	r17
    8548:	cf 93       	push	r28
    854a:	df 93       	push	r29
    854c:	e0 91 75 16 	lds	r30, 0x1675	; 0x801675 <__iob+0x2>
    8550:	f0 91 76 16 	lds	r31, 0x1676	; 0x801676 <__iob+0x3>
    8554:	23 81       	ldd	r18, Z+3	; 0x03
    8556:	21 ff       	sbrs	r18, 1
    8558:	1b c0       	rjmp	.+54     	; 0x8590 <puts+0x4c>
    855a:	8c 01       	movw	r16, r24
    855c:	d0 e0       	ldi	r29, 0x00	; 0
    855e:	c0 e0       	ldi	r28, 0x00	; 0
    8560:	f8 01       	movw	r30, r16
    8562:	81 91       	ld	r24, Z+
    8564:	8f 01       	movw	r16, r30
    8566:	60 91 75 16 	lds	r22, 0x1675	; 0x801675 <__iob+0x2>
    856a:	70 91 76 16 	lds	r23, 0x1676	; 0x801676 <__iob+0x3>
    856e:	db 01       	movw	r26, r22
    8570:	18 96       	adiw	r26, 0x08	; 8
    8572:	ed 91       	ld	r30, X+
    8574:	fc 91       	ld	r31, X
    8576:	19 97       	sbiw	r26, 0x09	; 9
    8578:	88 23       	and	r24, r24
    857a:	31 f0       	breq	.+12     	; 0x8588 <puts+0x44>
    857c:	19 95       	eicall
    857e:	89 2b       	or	r24, r25
    8580:	79 f3       	breq	.-34     	; 0x8560 <puts+0x1c>
    8582:	df ef       	ldi	r29, 0xFF	; 255
    8584:	cf ef       	ldi	r28, 0xFF	; 255
    8586:	ec cf       	rjmp	.-40     	; 0x8560 <puts+0x1c>
    8588:	8a e0       	ldi	r24, 0x0A	; 10
    858a:	19 95       	eicall
    858c:	89 2b       	or	r24, r25
    858e:	19 f0       	breq	.+6      	; 0x8596 <puts+0x52>
    8590:	8f ef       	ldi	r24, 0xFF	; 255
    8592:	9f ef       	ldi	r25, 0xFF	; 255
    8594:	02 c0       	rjmp	.+4      	; 0x859a <puts+0x56>
    8596:	8d 2f       	mov	r24, r29
    8598:	9c 2f       	mov	r25, r28
    859a:	df 91       	pop	r29
    859c:	cf 91       	pop	r28
    859e:	1f 91       	pop	r17
    85a0:	0f 91       	pop	r16
    85a2:	08 95       	ret

000085a4 <__ultoa_invert>:
    85a4:	fa 01       	movw	r30, r20
    85a6:	aa 27       	eor	r26, r26
    85a8:	28 30       	cpi	r18, 0x08	; 8
    85aa:	51 f1       	breq	.+84     	; 0x8600 <__ultoa_invert+0x5c>
    85ac:	20 31       	cpi	r18, 0x10	; 16
    85ae:	81 f1       	breq	.+96     	; 0x8610 <__ultoa_invert+0x6c>
    85b0:	e8 94       	clt
    85b2:	6f 93       	push	r22
    85b4:	6e 7f       	andi	r22, 0xFE	; 254
    85b6:	6e 5f       	subi	r22, 0xFE	; 254
    85b8:	7f 4f       	sbci	r23, 0xFF	; 255
    85ba:	8f 4f       	sbci	r24, 0xFF	; 255
    85bc:	9f 4f       	sbci	r25, 0xFF	; 255
    85be:	af 4f       	sbci	r26, 0xFF	; 255
    85c0:	b1 e0       	ldi	r27, 0x01	; 1
    85c2:	3e d0       	rcall	.+124    	; 0x8640 <__ultoa_invert+0x9c>
    85c4:	b4 e0       	ldi	r27, 0x04	; 4
    85c6:	3c d0       	rcall	.+120    	; 0x8640 <__ultoa_invert+0x9c>
    85c8:	67 0f       	add	r22, r23
    85ca:	78 1f       	adc	r23, r24
    85cc:	89 1f       	adc	r24, r25
    85ce:	9a 1f       	adc	r25, r26
    85d0:	a1 1d       	adc	r26, r1
    85d2:	68 0f       	add	r22, r24
    85d4:	79 1f       	adc	r23, r25
    85d6:	8a 1f       	adc	r24, r26
    85d8:	91 1d       	adc	r25, r1
    85da:	a1 1d       	adc	r26, r1
    85dc:	6a 0f       	add	r22, r26
    85de:	71 1d       	adc	r23, r1
    85e0:	81 1d       	adc	r24, r1
    85e2:	91 1d       	adc	r25, r1
    85e4:	a1 1d       	adc	r26, r1
    85e6:	20 d0       	rcall	.+64     	; 0x8628 <__ultoa_invert+0x84>
    85e8:	09 f4       	brne	.+2      	; 0x85ec <__ultoa_invert+0x48>
    85ea:	68 94       	set
    85ec:	3f 91       	pop	r19
    85ee:	2a e0       	ldi	r18, 0x0A	; 10
    85f0:	26 9f       	mul	r18, r22
    85f2:	11 24       	eor	r1, r1
    85f4:	30 19       	sub	r19, r0
    85f6:	30 5d       	subi	r19, 0xD0	; 208
    85f8:	31 93       	st	Z+, r19
    85fa:	de f6       	brtc	.-74     	; 0x85b2 <__ultoa_invert+0xe>
    85fc:	cf 01       	movw	r24, r30
    85fe:	08 95       	ret
    8600:	46 2f       	mov	r20, r22
    8602:	47 70       	andi	r20, 0x07	; 7
    8604:	40 5d       	subi	r20, 0xD0	; 208
    8606:	41 93       	st	Z+, r20
    8608:	b3 e0       	ldi	r27, 0x03	; 3
    860a:	0f d0       	rcall	.+30     	; 0x862a <__ultoa_invert+0x86>
    860c:	c9 f7       	brne	.-14     	; 0x8600 <__ultoa_invert+0x5c>
    860e:	f6 cf       	rjmp	.-20     	; 0x85fc <__ultoa_invert+0x58>
    8610:	46 2f       	mov	r20, r22
    8612:	4f 70       	andi	r20, 0x0F	; 15
    8614:	40 5d       	subi	r20, 0xD0	; 208
    8616:	4a 33       	cpi	r20, 0x3A	; 58
    8618:	18 f0       	brcs	.+6      	; 0x8620 <__ultoa_invert+0x7c>
    861a:	49 5d       	subi	r20, 0xD9	; 217
    861c:	31 fd       	sbrc	r19, 1
    861e:	40 52       	subi	r20, 0x20	; 32
    8620:	41 93       	st	Z+, r20
    8622:	02 d0       	rcall	.+4      	; 0x8628 <__ultoa_invert+0x84>
    8624:	a9 f7       	brne	.-22     	; 0x8610 <__ultoa_invert+0x6c>
    8626:	ea cf       	rjmp	.-44     	; 0x85fc <__ultoa_invert+0x58>
    8628:	b4 e0       	ldi	r27, 0x04	; 4
    862a:	a6 95       	lsr	r26
    862c:	97 95       	ror	r25
    862e:	87 95       	ror	r24
    8630:	77 95       	ror	r23
    8632:	67 95       	ror	r22
    8634:	ba 95       	dec	r27
    8636:	c9 f7       	brne	.-14     	; 0x862a <__ultoa_invert+0x86>
    8638:	00 97       	sbiw	r24, 0x00	; 0
    863a:	61 05       	cpc	r22, r1
    863c:	71 05       	cpc	r23, r1
    863e:	08 95       	ret
    8640:	9b 01       	movw	r18, r22
    8642:	ac 01       	movw	r20, r24
    8644:	0a 2e       	mov	r0, r26
    8646:	06 94       	lsr	r0
    8648:	57 95       	ror	r21
    864a:	47 95       	ror	r20
    864c:	37 95       	ror	r19
    864e:	27 95       	ror	r18
    8650:	ba 95       	dec	r27
    8652:	c9 f7       	brne	.-14     	; 0x8646 <__ultoa_invert+0xa2>
    8654:	62 0f       	add	r22, r18
    8656:	73 1f       	adc	r23, r19
    8658:	84 1f       	adc	r24, r20
    865a:	95 1f       	adc	r25, r21
    865c:	a0 1d       	adc	r26, r0
    865e:	08 95       	ret

00008660 <_exit>:
    8660:	f8 94       	cli

00008662 <__stop_program>:
    8662:	ff cf       	rjmp	.-2      	; 0x8662 <__stop_program>
